
bench_spdmv:     file format elf64-x86-64


Disassembly of section .init:

0000000000002ba8 <_init>:
    2ba8:	48 83 ec 08          	sub    $0x8,%rsp
    2bac:	48 8b 05 35 e4 20 00 	mov    0x20e435(%rip),%rax        # 210fe8 <__gmon_start__>
    2bb3:	48 85 c0             	test   %rax,%rax
    2bb6:	74 02                	je     2bba <_init+0x12>
    2bb8:	ff d0                	callq  *%rax
    2bba:	48 83 c4 08          	add    $0x8,%rsp
    2bbe:	c3                   	retq   

Disassembly of section .plt:

0000000000002bc0 <.plt>:
    2bc0:	ff 35 9a e1 20 00    	pushq  0x20e19a(%rip)        # 210d60 <_GLOBAL_OFFSET_TABLE_+0x8>
    2bc6:	ff 25 9c e1 20 00    	jmpq   *0x20e19c(%rip)        # 210d68 <_GLOBAL_OFFSET_TABLE_+0x10>
    2bcc:	0f 1f 40 00          	nopl   0x0(%rax)

0000000000002bd0 <__printf_chk@plt>:
    2bd0:	ff 25 9a e1 20 00    	jmpq   *0x20e19a(%rip)        # 210d70 <__printf_chk@GLIBC_2.3.4>
    2bd6:	68 00 00 00 00       	pushq  $0x0
    2bdb:	e9 e0 ff ff ff       	jmpq   2bc0 <.plt>

0000000000002be0 <_ZNSo3putEc@plt>:
    2be0:	ff 25 92 e1 20 00    	jmpq   *0x20e192(%rip)        # 210d78 <_ZNSo3putEc@GLIBCXX_3.4>
    2be6:	68 01 00 00 00       	pushq  $0x1
    2beb:	e9 d0 ff ff ff       	jmpq   2bc0 <.plt>

0000000000002bf0 <_ZNSt13basic_filebufIcSt11char_traitsIcEE5closeEv@plt>:
    2bf0:	ff 25 8a e1 20 00    	jmpq   *0x20e18a(%rip)        # 210d80 <_ZNSt13basic_filebufIcSt11char_traitsIcEE5closeEv@GLIBCXX_3.4>
    2bf6:	68 02 00 00 00       	pushq  $0x2
    2bfb:	e9 c0 ff ff ff       	jmpq   2bc0 <.plt>

0000000000002c00 <_ZNKSt12__basic_fileIcE7is_openEv@plt>:
    2c00:	ff 25 82 e1 20 00    	jmpq   *0x20e182(%rip)        # 210d88 <_ZNKSt12__basic_fileIcE7is_openEv@GLIBCXX_3.4>
    2c06:	68 03 00 00 00       	pushq  $0x3
    2c0b:	e9 b0 ff ff ff       	jmpq   2bc0 <.plt>

0000000000002c10 <_ZNSt14basic_ifstreamIcSt11char_traitsIcEED1Ev@plt>:
    2c10:	ff 25 7a e1 20 00    	jmpq   *0x20e17a(%rip)        # 210d90 <_ZNSt14basic_ifstreamIcSt11char_traitsIcEED1Ev@GLIBCXX_3.4>
    2c16:	68 04 00 00 00       	pushq  $0x4
    2c1b:	e9 a0 ff ff ff       	jmpq   2bc0 <.plt>

0000000000002c20 <_ZNKSt7__cxx1112basic_stringIcSt11char_traitsIcESaIcEE7compareEPKc@plt>:
    2c20:	ff 25 72 e1 20 00    	jmpq   *0x20e172(%rip)        # 210d98 <_ZNKSt7__cxx1112basic_stringIcSt11char_traitsIcESaIcEE7compareEPKc@GLIBCXX_3.4.21>
    2c26:	68 05 00 00 00       	pushq  $0x5
    2c2b:	e9 90 ff ff ff       	jmpq   2bc0 <.plt>

0000000000002c30 <_ZNSt8ios_baseC2Ev@plt>:
    2c30:	ff 25 6a e1 20 00    	jmpq   *0x20e16a(%rip)        # 210da0 <_ZNSt8ios_baseC2Ev@GLIBCXX_3.4>
    2c36:	68 06 00 00 00       	pushq  $0x6
    2c3b:	e9 80 ff ff ff       	jmpq   2bc0 <.plt>

0000000000002c40 <_ZNSt8ios_baseD2Ev@plt>:
    2c40:	ff 25 62 e1 20 00    	jmpq   *0x20e162(%rip)        # 210da8 <_ZNSt8ios_baseD2Ev@GLIBCXX_3.4>
    2c46:	68 07 00 00 00       	pushq  $0x7
    2c4b:	e9 70 ff ff ff       	jmpq   2bc0 <.plt>

0000000000002c50 <_ZNSt8ios_base7failureB5cxx11C1EPKcRKSt10error_code@plt>:
    2c50:	ff 25 5a e1 20 00    	jmpq   *0x20e15a(%rip)        # 210db0 <_ZNSt8ios_base7failureB5cxx11C1EPKcRKSt10error_code@GLIBCXX_3.4.21>
    2c56:	68 08 00 00 00       	pushq  $0x8
    2c5b:	e9 60 ff ff ff       	jmpq   2bc0 <.plt>

0000000000002c60 <_ZSt25__throw_bad_function_callv@plt>:
    2c60:	ff 25 52 e1 20 00    	jmpq   *0x20e152(%rip)        # 210db8 <_ZSt25__throw_bad_function_callv@GLIBCXX_3.4.14>
    2c66:	68 09 00 00 00       	pushq  $0x9
    2c6b:	e9 50 ff ff ff       	jmpq   2bc0 <.plt>

0000000000002c70 <_ZNSi4peekEv@plt>:
    2c70:	ff 25 4a e1 20 00    	jmpq   *0x20e14a(%rip)        # 210dc0 <_ZNSi4peekEv@GLIBCXX_3.4>
    2c76:	68 0a 00 00 00       	pushq  $0xa
    2c7b:	e9 40 ff ff ff       	jmpq   2bc0 <.plt>

0000000000002c80 <__cxa_begin_catch@plt>:
    2c80:	ff 25 42 e1 20 00    	jmpq   *0x20e142(%rip)        # 210dc8 <__cxa_begin_catch@CXXABI_1.3>
    2c86:	68 0b 00 00 00       	pushq  $0xb
    2c8b:	e9 30 ff ff ff       	jmpq   2bc0 <.plt>

0000000000002c90 <strlen@plt>:
    2c90:	ff 25 3a e1 20 00    	jmpq   *0x20e13a(%rip)        # 210dd0 <strlen@GLIBC_2.2.5>
    2c96:	68 0c 00 00 00       	pushq  $0xc
    2c9b:	e9 20 ff ff ff       	jmpq   2bc0 <.plt>

0000000000002ca0 <_ZSt4endlIcSt11char_traitsIcEERSt13basic_ostreamIT_T0_ES6_@plt>:
    2ca0:	ff 25 32 e1 20 00    	jmpq   *0x20e132(%rip)        # 210dd8 <_ZSt4endlIcSt11char_traitsIcEERSt13basic_ostreamIT_T0_ES6_@GLIBCXX_3.4>
    2ca6:	68 0d 00 00 00       	pushq  $0xd
    2cab:	e9 10 ff ff ff       	jmpq   2bc0 <.plt>

0000000000002cb0 <__cxa_allocate_exception@plt>:
    2cb0:	ff 25 2a e1 20 00    	jmpq   *0x20e12a(%rip)        # 210de0 <__cxa_allocate_exception@CXXABI_1.3>
    2cb6:	68 0e 00 00 00       	pushq  $0xe
    2cbb:	e9 00 ff ff ff       	jmpq   2bc0 <.plt>

0000000000002cc0 <posix_memalign@plt>:
    2cc0:	ff 25 22 e1 20 00    	jmpq   *0x20e122(%rip)        # 210de8 <posix_memalign@GLIBC_2.2.5>
    2cc6:	68 0f 00 00 00       	pushq  $0xf
    2ccb:	e9 f0 fe ff ff       	jmpq   2bc0 <.plt>

0000000000002cd0 <_ZSt20__throw_length_errorPKc@plt>:
    2cd0:	ff 25 1a e1 20 00    	jmpq   *0x20e11a(%rip)        # 210df0 <_ZSt20__throw_length_errorPKc@GLIBCXX_3.4>
    2cd6:	68 10 00 00 00       	pushq  $0x10
    2cdb:	e9 e0 fe ff ff       	jmpq   2bc0 <.plt>

0000000000002ce0 <memset@plt>:
    2ce0:	ff 25 12 e1 20 00    	jmpq   *0x20e112(%rip)        # 210df8 <memset@GLIBC_2.2.5>
    2ce6:	68 11 00 00 00       	pushq  $0x11
    2ceb:	e9 d0 fe ff ff       	jmpq   2bc0 <.plt>

0000000000002cf0 <_ZNSi6ignoreEli@plt>:
    2cf0:	ff 25 0a e1 20 00    	jmpq   *0x20e10a(%rip)        # 210e00 <_ZNSi6ignoreEli@GLIBCXX_3.4>
    2cf6:	68 12 00 00 00       	pushq  $0x12
    2cfb:	e9 c0 fe ff ff       	jmpq   2bc0 <.plt>

0000000000002d00 <__assert_fail@plt>:
    2d00:	ff 25 02 e1 20 00    	jmpq   *0x20e102(%rip)        # 210e08 <__assert_fail@GLIBC_2.2.5>
    2d06:	68 13 00 00 00       	pushq  $0x13
    2d0b:	e9 b0 fe ff ff       	jmpq   2bc0 <.plt>

0000000000002d10 <_ZNSo5flushEv@plt>:
    2d10:	ff 25 fa e0 20 00    	jmpq   *0x20e0fa(%rip)        # 210e10 <_ZNSo5flushEv@GLIBCXX_3.4>
    2d16:	68 14 00 00 00       	pushq  $0x14
    2d1b:	e9 a0 fe ff ff       	jmpq   2bc0 <.plt>

0000000000002d20 <_ZSt19__throw_logic_errorPKc@plt>:
    2d20:	ff 25 f2 e0 20 00    	jmpq   *0x20e0f2(%rip)        # 210e18 <_ZSt19__throw_logic_errorPKc@GLIBCXX_3.4>
    2d26:	68 15 00 00 00       	pushq  $0x15
    2d2b:	e9 90 fe ff ff       	jmpq   2bc0 <.plt>

0000000000002d30 <__cxa_free_exception@plt>:
    2d30:	ff 25 ea e0 20 00    	jmpq   *0x20e0ea(%rip)        # 210e20 <__cxa_free_exception@CXXABI_1.3>
    2d36:	68 16 00 00 00       	pushq  $0x16
    2d3b:	e9 80 fe ff ff       	jmpq   2bc0 <.plt>

0000000000002d40 <nextafter@plt>:
    2d40:	ff 25 e2 e0 20 00    	jmpq   *0x20e0e2(%rip)        # 210e28 <nextafter@GLIBC_2.2.5>
    2d46:	68 17 00 00 00       	pushq  $0x17
    2d4b:	e9 70 fe ff ff       	jmpq   2bc0 <.plt>

0000000000002d50 <strtod@plt>:
    2d50:	ff 25 da e0 20 00    	jmpq   *0x20e0da(%rip)        # 210e30 <strtod@GLIBC_2.2.5>
    2d56:	68 18 00 00 00       	pushq  $0x18
    2d5b:	e9 60 fe ff ff       	jmpq   2bc0 <.plt>

0000000000002d60 <sched_setaffinity@plt>:
    2d60:	ff 25 d2 e0 20 00    	jmpq   *0x20e0d2(%rip)        # 210e38 <sched_setaffinity@GLIBC_2.3.4>
    2d66:	68 19 00 00 00       	pushq  $0x19
    2d6b:	e9 50 fe ff ff       	jmpq   2bc0 <.plt>

0000000000002d70 <memcpy@plt>:
    2d70:	ff 25 ca e0 20 00    	jmpq   *0x20e0ca(%rip)        # 210e40 <memcpy@GLIBC_2.14>
    2d76:	68 1a 00 00 00       	pushq  $0x1a
    2d7b:	e9 40 fe ff ff       	jmpq   2bc0 <.plt>

0000000000002d80 <__cxa_atexit@plt>:
    2d80:	ff 25 c2 e0 20 00    	jmpq   *0x20e0c2(%rip)        # 210e48 <__cxa_atexit@GLIBC_2.2.5>
    2d86:	68 1b 00 00 00       	pushq  $0x1b
    2d8b:	e9 30 fe ff ff       	jmpq   2bc0 <.plt>

0000000000002d90 <_ZNSt13basic_filebufIcSt11char_traitsIcEE4openEPKcSt13_Ios_Openmode@plt>:
    2d90:	ff 25 ba e0 20 00    	jmpq   *0x20e0ba(%rip)        # 210e50 <_ZNSt13basic_filebufIcSt11char_traitsIcEE4openEPKcSt13_Ios_Openmode@GLIBCXX_3.4>
    2d96:	68 1c 00 00 00       	pushq  $0x1c
    2d9b:	e9 20 fe ff ff       	jmpq   2bc0 <.plt>

0000000000002da0 <_ZSt17iostream_categoryv@plt>:
    2da0:	ff 25 b2 e0 20 00    	jmpq   *0x20e0b2(%rip)        # 210e58 <_ZSt17iostream_categoryv@GLIBCXX_3.4.21>
    2da6:	68 1d 00 00 00       	pushq  $0x1d
    2dab:	e9 10 fe ff ff       	jmpq   2bc0 <.plt>

0000000000002db0 <_ZNSt13random_device7_M_finiEv@plt>:
    2db0:	ff 25 aa e0 20 00    	jmpq   *0x20e0aa(%rip)        # 210e60 <_ZNSt13random_device7_M_finiEv@GLIBCXX_3.4.18>
    2db6:	68 1e 00 00 00       	pushq  $0x1e
    2dbb:	e9 00 fe ff ff       	jmpq   2bc0 <.plt>

0000000000002dc0 <_ZdlPv@plt>:
    2dc0:	ff 25 a2 e0 20 00    	jmpq   *0x20e0a2(%rip)        # 210e68 <_ZdlPv@GLIBCXX_3.4>
    2dc6:	68 1f 00 00 00       	pushq  $0x1f
    2dcb:	e9 f0 fd ff ff       	jmpq   2bc0 <.plt>

0000000000002dd0 <_ZStlsISt11char_traitsIcEERSt13basic_ostreamIcT_ES5_PKc@plt>:
    2dd0:	ff 25 9a e0 20 00    	jmpq   *0x20e09a(%rip)        # 210e70 <_ZStlsISt11char_traitsIcEERSt13basic_ostreamIcT_ES5_PKc@GLIBCXX_3.4>
    2dd6:	68 20 00 00 00       	pushq  $0x20
    2ddb:	e9 e0 fd ff ff       	jmpq   2bc0 <.plt>

0000000000002de0 <_Znwm@plt>:
    2de0:	ff 25 92 e0 20 00    	jmpq   *0x20e092(%rip)        # 210e78 <_Znwm@GLIBCXX_3.4>
    2de6:	68 21 00 00 00       	pushq  $0x21
    2deb:	e9 d0 fd ff ff       	jmpq   2bc0 <.plt>

0000000000002df0 <_ZNSt13basic_filebufIcSt11char_traitsIcEEC1Ev@plt>:
    2df0:	ff 25 8a e0 20 00    	jmpq   *0x20e08a(%rip)        # 210e80 <_ZNSt13basic_filebufIcSt11char_traitsIcEEC1Ev@GLIBCXX_3.4>
    2df6:	68 22 00 00 00       	pushq  $0x22
    2dfb:	e9 c0 fd ff ff       	jmpq   2bc0 <.plt>

0000000000002e00 <__stack_chk_fail@plt>:
    2e00:	ff 25 82 e0 20 00    	jmpq   *0x20e082(%rip)        # 210e88 <__stack_chk_fail@GLIBC_2.4>
    2e06:	68 23 00 00 00       	pushq  $0x23
    2e0b:	e9 b0 fd ff ff       	jmpq   2bc0 <.plt>

0000000000002e10 <omp_set_num_threads@plt>:
    2e10:	ff 25 7a e0 20 00    	jmpq   *0x20e07a(%rip)        # 210e90 <omp_set_num_threads@OMP_1.0>
    2e16:	68 24 00 00 00       	pushq  $0x24
    2e1b:	e9 a0 fd ff ff       	jmpq   2bc0 <.plt>

0000000000002e20 <_ZSt16__ostream_insertIcSt11char_traitsIcEERSt13basic_ostreamIT_T0_ES6_PKS3_l@plt>:
    2e20:	ff 25 72 e0 20 00    	jmpq   *0x20e072(%rip)        # 210e98 <_ZSt16__ostream_insertIcSt11char_traitsIcEERSt13basic_ostreamIT_T0_ES6_PKS3_l@GLIBCXX_3.4.9>
    2e26:	68 25 00 00 00       	pushq  $0x25
    2e2b:	e9 90 fd ff ff       	jmpq   2bc0 <.plt>

0000000000002e30 <_ZNKSt5ctypeIcE13_M_widen_initEv@plt>:
    2e30:	ff 25 6a e0 20 00    	jmpq   *0x20e06a(%rip)        # 210ea0 <_ZNKSt5ctypeIcE13_M_widen_initEv@GLIBCXX_3.4.11>
    2e36:	68 26 00 00 00       	pushq  $0x26
    2e3b:	e9 80 fd ff ff       	jmpq   2bc0 <.plt>

0000000000002e40 <_ZNSt7__cxx1112basic_stringIcSt11char_traitsIcESaIcEE8_M_eraseEmm@plt>:
    2e40:	ff 25 62 e0 20 00    	jmpq   *0x20e062(%rip)        # 210ea8 <_ZNSt7__cxx1112basic_stringIcSt11char_traitsIcESaIcEE8_M_eraseEmm@GLIBCXX_3.4.21>
    2e46:	68 27 00 00 00       	pushq  $0x27
    2e4b:	e9 70 fd ff ff       	jmpq   2bc0 <.plt>

0000000000002e50 <free@plt>:
    2e50:	ff 25 5a e0 20 00    	jmpq   *0x20e05a(%rip)        # 210eb0 <free@GLIBC_2.2.5>
    2e56:	68 28 00 00 00       	pushq  $0x28
    2e5b:	e9 60 fd ff ff       	jmpq   2bc0 <.plt>

0000000000002e60 <exit@plt>:
    2e60:	ff 25 52 e0 20 00    	jmpq   *0x20e052(%rip)        # 210eb8 <exit@GLIBC_2.2.5>
    2e66:	68 29 00 00 00       	pushq  $0x29
    2e6b:	e9 50 fd ff ff       	jmpq   2bc0 <.plt>

0000000000002e70 <getenv@plt>:
    2e70:	ff 25 4a e0 20 00    	jmpq   *0x20e04a(%rip)        # 210ec0 <getenv@GLIBC_2.2.5>
    2e76:	68 2a 00 00 00       	pushq  $0x2a
    2e7b:	e9 40 fd ff ff       	jmpq   2bc0 <.plt>

0000000000002e80 <_ZSt16__throw_bad_castv@plt>:
    2e80:	ff 25 42 e0 20 00    	jmpq   *0x20e042(%rip)        # 210ec8 <_ZSt16__throw_bad_castv@GLIBCXX_3.4>
    2e86:	68 2b 00 00 00       	pushq  $0x2b
    2e8b:	e9 30 fd ff ff       	jmpq   2bc0 <.plt>

0000000000002e90 <_ZNSt9basic_iosIcSt11char_traitsIcEE4initEPSt15basic_streambufIcS1_E@plt>:
    2e90:	ff 25 3a e0 20 00    	jmpq   *0x20e03a(%rip)        # 210ed0 <_ZNSt9basic_iosIcSt11char_traitsIcEE4initEPSt15basic_streambufIcS1_E@GLIBCXX_3.4>
    2e96:	68 2c 00 00 00       	pushq  $0x2c
    2e9b:	e9 20 fd ff ff       	jmpq   2bc0 <.plt>

0000000000002ea0 <_ZNSt13random_device9_M_getvalEv@plt>:
    2ea0:	ff 25 32 e0 20 00    	jmpq   *0x20e032(%rip)        # 210ed8 <_ZNSt13random_device9_M_getvalEv@GLIBCXX_3.4.18>
    2ea6:	68 2d 00 00 00       	pushq  $0x2d
    2eab:	e9 10 fd ff ff       	jmpq   2bc0 <.plt>

0000000000002eb0 <strtol@plt>:
    2eb0:	ff 25 2a e0 20 00    	jmpq   *0x20e02a(%rip)        # 210ee0 <strtol@GLIBC_2.2.5>
    2eb6:	68 2e 00 00 00       	pushq  $0x2e
    2ebb:	e9 00 fd ff ff       	jmpq   2bc0 <.plt>

0000000000002ec0 <_ZNSt6localeD1Ev@plt>:
    2ec0:	ff 25 22 e0 20 00    	jmpq   *0x20e022(%rip)        # 210ee8 <_ZNSt6localeD1Ev@GLIBCXX_3.4>
    2ec6:	68 2f 00 00 00       	pushq  $0x2f
    2ecb:	e9 f0 fc ff ff       	jmpq   2bc0 <.plt>

0000000000002ed0 <__cxa_rethrow@plt>:
    2ed0:	ff 25 1a e0 20 00    	jmpq   *0x20e01a(%rip)        # 210ef0 <__cxa_rethrow@CXXABI_1.3>
    2ed6:	68 30 00 00 00       	pushq  $0x30
    2edb:	e9 e0 fc ff ff       	jmpq   2bc0 <.plt>

0000000000002ee0 <basename@plt>:
    2ee0:	ff 25 12 e0 20 00    	jmpq   *0x20e012(%rip)        # 210ef8 <basename@GLIBC_2.2.5>
    2ee6:	68 31 00 00 00       	pushq  $0x31
    2eeb:	e9 d0 fc ff ff       	jmpq   2bc0 <.plt>

0000000000002ef0 <GOMP_parallel@plt>:
    2ef0:	ff 25 0a e0 20 00    	jmpq   *0x20e00a(%rip)        # 210f00 <GOMP_parallel@GOMP_4.0>
    2ef6:	68 32 00 00 00       	pushq  $0x32
    2efb:	e9 c0 fc ff ff       	jmpq   2bc0 <.plt>

0000000000002f00 <_ZSt24__throw_out_of_range_fmtPKcz@plt>:
    2f00:	ff 25 02 e0 20 00    	jmpq   *0x20e002(%rip)        # 210f08 <_ZSt24__throw_out_of_range_fmtPKcz@GLIBCXX_3.4.20>
    2f06:	68 33 00 00 00       	pushq  $0x33
    2f0b:	e9 b0 fc ff ff       	jmpq   2bc0 <.plt>

0000000000002f10 <_ZNSt8ios_base4InitC1Ev@plt>:
    2f10:	ff 25 fa df 20 00    	jmpq   *0x20dffa(%rip)        # 210f10 <_ZNSt8ios_base4InitC1Ev@GLIBCXX_3.4>
    2f16:	68 34 00 00 00       	pushq  $0x34
    2f1b:	e9 a0 fc ff ff       	jmpq   2bc0 <.plt>

0000000000002f20 <_ZNSt13basic_filebufIcSt11char_traitsIcEED1Ev@plt>:
    2f20:	ff 25 f2 df 20 00    	jmpq   *0x20dff2(%rip)        # 210f18 <_ZNSt13basic_filebufIcSt11char_traitsIcEED1Ev@GLIBCXX_3.4>
    2f26:	68 35 00 00 00       	pushq  $0x35
    2f2b:	e9 90 fc ff ff       	jmpq   2bc0 <.plt>

0000000000002f30 <omp_get_thread_num@plt>:
    2f30:	ff 25 ea df 20 00    	jmpq   *0x20dfea(%rip)        # 210f20 <omp_get_thread_num@OMP_1.0>
    2f36:	68 36 00 00 00       	pushq  $0x36
    2f3b:	e9 80 fc ff ff       	jmpq   2bc0 <.plt>

0000000000002f40 <_ZNSo9_M_insertIdEERSoT_@plt>:
    2f40:	ff 25 e2 df 20 00    	jmpq   *0x20dfe2(%rip)        # 210f28 <_ZNSo9_M_insertIdEERSoT_@GLIBCXX_3.4.9>
    2f46:	68 37 00 00 00       	pushq  $0x37
    2f4b:	e9 70 fc ff ff       	jmpq   2bc0 <.plt>

0000000000002f50 <_ZNKSt7__cxx1112basic_stringIcSt11char_traitsIcESaIcEE16find_last_not_ofEPKcmm@plt>:
    2f50:	ff 25 da df 20 00    	jmpq   *0x20dfda(%rip)        # 210f30 <_ZNKSt7__cxx1112basic_stringIcSt11char_traitsIcESaIcEE16find_last_not_ofEPKcmm@GLIBCXX_3.4.21>
    2f56:	68 38 00 00 00       	pushq  $0x38
    2f5b:	e9 60 fc ff ff       	jmpq   2bc0 <.plt>

0000000000002f60 <memmove@plt>:
    2f60:	ff 25 d2 df 20 00    	jmpq   *0x20dfd2(%rip)        # 210f38 <memmove@GLIBC_2.2.5>
    2f66:	68 39 00 00 00       	pushq  $0x39
    2f6b:	e9 50 fc ff ff       	jmpq   2bc0 <.plt>

0000000000002f70 <__cxa_end_catch@plt>:
    2f70:	ff 25 ca df 20 00    	jmpq   *0x20dfca(%rip)        # 210f40 <__cxa_end_catch@CXXABI_1.3>
    2f76:	68 3a 00 00 00       	pushq  $0x3a
    2f7b:	e9 40 fc ff ff       	jmpq   2bc0 <.plt>

0000000000002f80 <omp_get_max_threads@plt>:
    2f80:	ff 25 c2 df 20 00    	jmpq   *0x20dfc2(%rip)        # 210f48 <omp_get_max_threads@OMP_1.0>
    2f86:	68 3b 00 00 00       	pushq  $0x3b
    2f8b:	e9 30 fc ff ff       	jmpq   2bc0 <.plt>

0000000000002f90 <_ZNKSt7__cxx1112basic_stringIcSt11char_traitsIcESaIcEE17find_first_not_ofEPKcmm@plt>:
    2f90:	ff 25 ba df 20 00    	jmpq   *0x20dfba(%rip)        # 210f50 <_ZNKSt7__cxx1112basic_stringIcSt11char_traitsIcESaIcEE17find_first_not_ofEPKcmm@GLIBCXX_3.4.21>
    2f96:	68 3c 00 00 00       	pushq  $0x3c
    2f9b:	e9 20 fc ff ff       	jmpq   2bc0 <.plt>

0000000000002fa0 <_ZNSt13random_device7_M_initERKNSt7__cxx1112basic_stringIcSt11char_traitsIcESaIcEEE@plt>:
    2fa0:	ff 25 b2 df 20 00    	jmpq   *0x20dfb2(%rip)        # 210f58 <_ZNSt13random_device7_M_initERKNSt7__cxx1112basic_stringIcSt11char_traitsIcESaIcEEE@GLIBCXX_3.4.21>
    2fa6:	68 3d 00 00 00       	pushq  $0x3d
    2fab:	e9 10 fc ff ff       	jmpq   2bc0 <.plt>

0000000000002fb0 <_ZNSt9basic_iosIcSt11char_traitsIcEE5clearESt12_Ios_Iostate@plt>:
    2fb0:	ff 25 aa df 20 00    	jmpq   *0x20dfaa(%rip)        # 210f60 <_ZNSt9basic_iosIcSt11char_traitsIcEE5clearESt12_Ios_Iostate@GLIBCXX_3.4>
    2fb6:	68 3e 00 00 00       	pushq  $0x3e
    2fbb:	e9 00 fc ff ff       	jmpq   2bc0 <.plt>

0000000000002fc0 <__cxa_throw@plt>:
    2fc0:	ff 25 a2 df 20 00    	jmpq   *0x20dfa2(%rip)        # 210f68 <__cxa_throw@CXXABI_1.3>
    2fc6:	68 3f 00 00 00       	pushq  $0x3f
    2fcb:	e9 f0 fb ff ff       	jmpq   2bc0 <.plt>

0000000000002fd0 <_ZNSolsEi@plt>:
    2fd0:	ff 25 9a df 20 00    	jmpq   *0x20df9a(%rip)        # 210f70 <_ZNSolsEi@GLIBCXX_3.4>
    2fd6:	68 40 00 00 00       	pushq  $0x40
    2fdb:	e9 e0 fb ff ff       	jmpq   2bc0 <.plt>

0000000000002fe0 <_ZNKSt7__cxx1112basic_stringIcSt11char_traitsIcESaIcEE4findEPKcmm@plt>:
    2fe0:	ff 25 92 df 20 00    	jmpq   *0x20df92(%rip)        # 210f78 <_ZNKSt7__cxx1112basic_stringIcSt11char_traitsIcESaIcEE4findEPKcmm@GLIBCXX_3.4.21>
    2fe6:	68 41 00 00 00       	pushq  $0x41
    2feb:	e9 d0 fb ff ff       	jmpq   2bc0 <.plt>

0000000000002ff0 <_Unwind_Resume@plt>:
    2ff0:	ff 25 8a df 20 00    	jmpq   *0x20df8a(%rip)        # 210f80 <_Unwind_Resume@GCC_3.0>
    2ff6:	68 42 00 00 00       	pushq  $0x42
    2ffb:	e9 c0 fb ff ff       	jmpq   2bc0 <.plt>

0000000000003000 <omp_get_wtime@plt>:
    3000:	ff 25 82 df 20 00    	jmpq   *0x20df82(%rip)        # 210f88 <omp_get_wtime@OMP_2.0>
    3006:	68 43 00 00 00       	pushq  $0x43
    300b:	e9 b0 fb ff ff       	jmpq   2bc0 <.plt>

0000000000003010 <_ZNSt7__cxx1112basic_stringIcSt11char_traitsIcESaIcEE9_M_createERmm@plt>:
    3010:	ff 25 7a df 20 00    	jmpq   *0x20df7a(%rip)        # 210f90 <_ZNSt7__cxx1112basic_stringIcSt11char_traitsIcESaIcEE9_M_createERmm@GLIBCXX_3.4.21>
    3016:	68 44 00 00 00       	pushq  $0x44
    301b:	e9 a0 fb ff ff       	jmpq   2bc0 <.plt>

0000000000003020 <GOMP_barrier@plt>:
    3020:	ff 25 72 df 20 00    	jmpq   *0x20df72(%rip)        # 210f98 <GOMP_barrier@GOMP_1.0>
    3026:	68 45 00 00 00       	pushq  $0x45
    302b:	e9 90 fb ff ff       	jmpq   2bc0 <.plt>

0000000000003030 <_ZSt7getlineIcSt11char_traitsIcESaIcEERSt13basic_istreamIT_T0_ES7_RNSt7__cxx1112basic_stringIS4_S5_T1_EES4_@plt>:
    3030:	ff 25 6a df 20 00    	jmpq   *0x20df6a(%rip)        # 210fa0 <_ZSt7getlineIcSt11char_traitsIcESaIcEERSt13basic_istreamIT_T0_ES7_RNSt7__cxx1112basic_stringIS4_S5_T1_EES4_@GLIBCXX_3.4.21>
    3036:	68 46 00 00 00       	pushq  $0x46
    303b:	e9 80 fb ff ff       	jmpq   2bc0 <.plt>

0000000000003040 <_ZNSt12__basic_fileIcED1Ev@plt>:
    3040:	ff 25 62 df 20 00    	jmpq   *0x20df62(%rip)        # 210fa8 <_ZNSt12__basic_fileIcED1Ev@GLIBCXX_3.4>
    3046:	68 47 00 00 00       	pushq  $0x47
    304b:	e9 70 fb ff ff       	jmpq   2bc0 <.plt>

0000000000003050 <omp_get_num_threads@plt>:
    3050:	ff 25 5a df 20 00    	jmpq   *0x20df5a(%rip)        # 210fb0 <omp_get_num_threads@OMP_1.0>
    3056:	68 48 00 00 00       	pushq  $0x48
    305b:	e9 60 fb ff ff       	jmpq   2bc0 <.plt>

0000000000003060 <omp_set_dynamic@plt>:
    3060:	ff 25 52 df 20 00    	jmpq   *0x20df52(%rip)        # 210fb8 <omp_set_dynamic@OMP_1.0>
    3066:	68 49 00 00 00       	pushq  $0x49
    306b:	e9 50 fb ff ff       	jmpq   2bc0 <.plt>

0000000000003070 <_ZNSt7__cxx1112basic_stringIcSt11char_traitsIcESaIcEE6assignEPKc@plt>:
    3070:	ff 25 4a df 20 00    	jmpq   *0x20df4a(%rip)        # 210fc0 <_ZNSt7__cxx1112basic_stringIcSt11char_traitsIcESaIcEE6assignEPKc@GLIBCXX_3.4.21>
    3076:	68 4a 00 00 00       	pushq  $0x4a
    307b:	e9 40 fb ff ff       	jmpq   2bc0 <.plt>

Disassembly of section .plt.got:

0000000000003080 <__cxa_finalize@plt>:
    3080:	ff 25 42 df 20 00    	jmpq   *0x20df42(%rip)        # 210fc8 <__cxa_finalize@GLIBC_2.2.5>
    3086:	66 90                	xchg   %ax,%ax

Disassembly of section .text:

0000000000003090 <_GLOBAL__sub_I__ZN4util2io6DoReadERSt14basic_ifstreamIcSt11char_traitsIcEERSt6vectorINSt7__cxx1112basic_stringIcS3_SaIcEEESaISA_EE>:
    3090:	48 83 ec 08          	sub    $0x8,%rsp
    3094:	48 8d 3d b6 e1 20 00 	lea    0x20e1b6(%rip),%rdi        # 211251 <_ZStL8__ioinit>
    309b:	e8 70 fe ff ff       	callq  2f10 <_ZNSt8ios_base4InitC1Ev@plt>
    30a0:	48 8b 3d 51 df 20 00 	mov    0x20df51(%rip),%rdi        # 210ff8 <_ZNSt8ios_base4InitD1Ev@GLIBCXX_3.4>
    30a7:	48 83 c4 08          	add    $0x8,%rsp
    30ab:	48 8d 15 56 df 20 00 	lea    0x20df56(%rip),%rdx        # 211008 <__dso_handle>
    30b2:	48 8d 35 98 e1 20 00 	lea    0x20e198(%rip),%rsi        # 211251 <_ZStL8__ioinit>
    30b9:	e9 c2 fc ff ff       	jmpq   2d80 <__cxa_atexit@plt>
    30be:	66 90                	xchg   %ax,%ax

00000000000030c0 <_GLOBAL__sub_I__ZN4util7runtime11get_threadsEv>:
    30c0:	48 83 ec 08          	sub    $0x8,%rsp
    30c4:	48 8d 3d 87 e1 20 00 	lea    0x20e187(%rip),%rdi        # 211252 <_ZStL8__ioinit>
    30cb:	e8 40 fe ff ff       	callq  2f10 <_ZNSt8ios_base4InitC1Ev@plt>
    30d0:	48 8b 3d 21 df 20 00 	mov    0x20df21(%rip),%rdi        # 210ff8 <_ZNSt8ios_base4InitD1Ev@GLIBCXX_3.4>
    30d7:	48 83 c4 08          	add    $0x8,%rsp
    30db:	48 8d 15 26 df 20 00 	lea    0x20df26(%rip),%rdx        # 211008 <__dso_handle>
    30e2:	48 8d 35 69 e1 20 00 	lea    0x20e169(%rip),%rsi        # 211252 <_ZStL8__ioinit>
    30e9:	e9 92 fc ff ff       	jmpq   2d80 <__cxa_atexit@plt>
    30ee:	66 90                	xchg   %ax,%ax

00000000000030f0 <_GLOBAL__sub_I_coo_matrix.cpp>:
    30f0:	48 83 ec 08          	sub    $0x8,%rsp
    30f4:	48 8d 3d 58 e1 20 00 	lea    0x20e158(%rip),%rdi        # 211253 <_ZStL8__ioinit>
    30fb:	e8 10 fe ff ff       	callq  2f10 <_ZNSt8ios_base4InitC1Ev@plt>
    3100:	48 8b 3d f1 de 20 00 	mov    0x20def1(%rip),%rdi        # 210ff8 <_ZNSt8ios_base4InitD1Ev@GLIBCXX_3.4>
    3107:	48 83 c4 08          	add    $0x8,%rsp
    310b:	48 8d 15 f6 de 20 00 	lea    0x20def6(%rip),%rdx        # 211008 <__dso_handle>
    3112:	48 8d 35 3a e1 20 00 	lea    0x20e13a(%rip),%rsi        # 211253 <_ZStL8__ioinit>
    3119:	e9 62 fc ff ff       	jmpq   2d80 <__cxa_atexit@plt>
    311e:	66 90                	xchg   %ax,%ax

0000000000003120 <_GLOBAL__sub_I_csr_matrix.cpp>:
    3120:	48 83 ec 08          	sub    $0x8,%rsp
    3124:	48 8d 3d 29 e1 20 00 	lea    0x20e129(%rip),%rdi        # 211254 <_ZStL8__ioinit>
    312b:	e8 e0 fd ff ff       	callq  2f10 <_ZNSt8ios_base4InitC1Ev@plt>
    3130:	48 8b 3d c1 de 20 00 	mov    0x20dec1(%rip),%rdi        # 210ff8 <_ZNSt8ios_base4InitD1Ev@GLIBCXX_3.4>
    3137:	48 83 c4 08          	add    $0x8,%rsp
    313b:	48 8d 15 c6 de 20 00 	lea    0x20dec6(%rip),%rdx        # 211008 <__dso_handle>
    3142:	48 8d 35 0b e1 20 00 	lea    0x20e10b(%rip),%rsi        # 211254 <_ZStL8__ioinit>
    3149:	e9 32 fc ff ff       	jmpq   2d80 <__cxa_atexit@plt>
    314e:	66 90                	xchg   %ax,%ax

0000000000003150 <_GLOBAL__sub_I__ZN4util13internal_freeEPvNS_8PlatformE>:
    3150:	48 83 ec 08          	sub    $0x8,%rsp
    3154:	48 8d 3d fa e0 20 00 	lea    0x20e0fa(%rip),%rdi        # 211255 <_ZStL8__ioinit>
    315b:	e8 b0 fd ff ff       	callq  2f10 <_ZNSt8ios_base4InitC1Ev@plt>
    3160:	48 8b 3d 91 de 20 00 	mov    0x20de91(%rip),%rdi        # 210ff8 <_ZNSt8ios_base4InitD1Ev@GLIBCXX_3.4>
    3167:	48 83 c4 08          	add    $0x8,%rsp
    316b:	48 8d 15 96 de 20 00 	lea    0x20de96(%rip),%rdx        # 211008 <__dso_handle>
    3172:	48 8d 35 dc e0 20 00 	lea    0x20e0dc(%rip),%rsi        # 211255 <_ZStL8__ioinit>
    3179:	e9 02 fc ff ff       	jmpq   2d80 <__cxa_atexit@plt>
    317e:	66 90                	xchg   %ax,%ax

0000000000003180 <main>:
    3180:	41 57                	push   %r15
    3182:	41 56                	push   %r14
    3184:	41 55                	push   %r13
    3186:	41 54                	push   %r12
    3188:	55                   	push   %rbp
    3189:	53                   	push   %rbx
    318a:	48 89 f3             	mov    %rsi,%rbx
    318d:	48 81 ec 48 28 00 00 	sub    $0x2848,%rsp
    3194:	64 48 8b 04 25 28 00 	mov    %fs:0x28,%rax
    319b:	00 00 
    319d:	48 89 84 24 38 28 00 	mov    %rax,0x2838(%rsp)
    31a4:	00 
    31a5:	31 c0                	xor    %eax,%eax
    31a7:	83 ff 04             	cmp    $0x4,%edi
    31aa:	0f 84 c4 00 00 00    	je     3274 <main+0xf4>
    31b0:	ba 07 00 00 00       	mov    $0x7,%edx
    31b5:	48 8d 35 12 a2 00 00 	lea    0xa212(%rip),%rsi        # d3ce <_ZTSSt5_BindIFMN6matrix6sparse9CSRMatrixIidEEFvPdPKdEPS3_St12_PlaceholderILi1EESA_ILi2EEEE+0x22e>
    31bc:	48 8d 3d 7d df 20 00 	lea    0x20df7d(%rip),%rdi        # 211140 <_ZSt4cerr@@GLIBCXX_3.4>
    31c3:	e8 58 fc ff ff       	callq  2e20 <_ZSt16__ostream_insertIcSt11char_traitsIcEERSt13basic_ostreamIT_T0_ES6_PKS3_l@plt>
    31c8:	48 8b 33             	mov    (%rbx),%rsi
    31cb:	48 8d 3d 6e df 20 00 	lea    0x20df6e(%rip),%rdi        # 211140 <_ZSt4cerr@@GLIBCXX_3.4>
    31d2:	e8 f9 fb ff ff       	callq  2dd0 <_ZStlsISt11char_traitsIcEERSt13basic_ostreamIcT_ES5_PKc@plt>
    31d7:	ba 14 00 00 00       	mov    $0x14,%edx
    31dc:	48 8d 35 f3 a1 00 00 	lea    0xa1f3(%rip),%rsi        # d3d6 <_ZTSSt5_BindIFMN6matrix6sparse9CSRMatrixIidEEFvPdPKdEPS3_St12_PlaceholderILi1EESA_ILi2EEEE+0x236>
    31e3:	48 89 c3             	mov    %rax,%rbx
    31e6:	48 89 c7             	mov    %rax,%rdi
    31e9:	e8 32 fc ff ff       	callq  2e20 <_ZSt16__ostream_insertIcSt11char_traitsIcEERSt13basic_ostreamIT_T0_ES6_PKS3_l@plt>
    31ee:	ba 23 00 00 00       	mov    $0x23,%edx
    31f3:	48 8d 35 ae a0 00 00 	lea    0xa0ae(%rip),%rsi        # d2a8 <_ZTSSt5_BindIFMN6matrix6sparse9CSRMatrixIidEEFvPdPKdEPS3_St12_PlaceholderILi1EESA_ILi2EEEE+0x108>
    31fa:	48 89 df             	mov    %rbx,%rdi
    31fd:	e8 1e fc ff ff       	callq  2e20 <_ZSt16__ostream_insertIcSt11char_traitsIcEERSt13basic_ostreamIT_T0_ES6_PKS3_l@plt>
    3202:	ba 20 00 00 00       	mov    $0x20,%edx
    3207:	48 8d 35 c2 a0 00 00 	lea    0xa0c2(%rip),%rsi        # d2d0 <_ZTSSt5_BindIFMN6matrix6sparse9CSRMatrixIidEEFvPdPKdEPS3_St12_PlaceholderILi1EESA_ILi2EEEE+0x130>
    320e:	48 89 df             	mov    %rbx,%rdi
    3211:	e8 0a fc ff ff       	callq  2e20 <_ZSt16__ostream_insertIcSt11char_traitsIcEERSt13basic_ostreamIT_T0_ES6_PKS3_l@plt>
    3216:	ba 27 00 00 00       	mov    $0x27,%edx
    321b:	48 8d 35 d6 a0 00 00 	lea    0xa0d6(%rip),%rsi        # d2f8 <_ZTSSt5_BindIFMN6matrix6sparse9CSRMatrixIidEEFvPdPKdEPS3_St12_PlaceholderILi1EESA_ILi2EEEE+0x158>
    3222:	48 89 df             	mov    %rbx,%rdi
    3225:	e8 f6 fb ff ff       	callq  2e20 <_ZSt16__ostream_insertIcSt11char_traitsIcEERSt13basic_ostreamIT_T0_ES6_PKS3_l@plt>
    322a:	ba 38 00 00 00       	mov    $0x38,%edx
    322f:	48 8d 35 ea a0 00 00 	lea    0xa0ea(%rip),%rsi        # d320 <_ZTSSt5_BindIFMN6matrix6sparse9CSRMatrixIidEEFvPdPKdEPS3_St12_PlaceholderILi1EESA_ILi2EEEE+0x180>
    3236:	48 89 df             	mov    %rbx,%rdi
    3239:	e8 e2 fb ff ff       	callq  2e20 <_ZSt16__ostream_insertIcSt11char_traitsIcEERSt13basic_ostreamIT_T0_ES6_PKS3_l@plt>
    323e:	48 89 df             	mov    %rbx,%rdi
    3241:	e8 5a fa ff ff       	callq  2ca0 <_ZSt4endlIcSt11char_traitsIcEERSt13basic_ostreamIT_T0_ES6_@plt>
    3246:	b8 01 00 00 00       	mov    $0x1,%eax
    324b:	48 8b b4 24 38 28 00 	mov    0x2838(%rsp),%rsi
    3252:	00 
    3253:	64 48 33 34 25 28 00 	xor    %fs:0x28,%rsi
    325a:	00 00 
    325c:	0f 85 26 0f 00 00    	jne    4188 <main+0x1008>
    3262:	48 81 c4 48 28 00 00 	add    $0x2848,%rsp
    3269:	5b                   	pop    %rbx
    326a:	5d                   	pop    %rbp
    326b:	41 5c                	pop    %r12
    326d:	41 5d                	pop    %r13
    326f:	41 5e                	pop    %r14
    3271:	41 5f                	pop    %r15
    3273:	c3                   	retq   
    3274:	48 8b 7e 10          	mov    0x10(%rsi),%rdi
    3278:	4c 8b 76 08          	mov    0x8(%rsi),%r14
    327c:	ba 0a 00 00 00       	mov    $0xa,%edx
    3281:	31 f6                	xor    %esi,%esi
    3283:	e8 28 fc ff ff       	callq  2eb0 <strtol@plt>
    3288:	48 8b 7b 18          	mov    0x18(%rbx),%rdi
    328c:	ba 0a 00 00 00       	mov    $0xa,%edx
    3291:	31 f6                	xor    %esi,%esi
    3293:	48 89 c5             	mov    %rax,%rbp
    3296:	41 89 c5             	mov    %eax,%r13d
    3299:	e8 12 fc ff ff       	callq  2eb0 <strtol@plt>
    329e:	ba 08 00 00 00       	mov    $0x8,%edx
    32a3:	48 8d 35 41 a1 00 00 	lea    0xa141(%rip),%rsi        # d3eb <_ZTSSt5_BindIFMN6matrix6sparse9CSRMatrixIidEEFvPdPKdEPS3_St12_PlaceholderILi1EESA_ILi2EEEE+0x24b>
    32aa:	48 8d 3d 6f dd 20 00 	lea    0x20dd6f(%rip),%rdi        # 211020 <_ZSt4cout@@GLIBCXX_3.4>
    32b1:	49 89 c4             	mov    %rax,%r12
    32b4:	e8 67 fb ff ff       	callq  2e20 <_ZSt16__ostream_insertIcSt11char_traitsIcEERSt13basic_ostreamIT_T0_ES6_PKS3_l@plt>
    32b9:	4c 89 f6             	mov    %r14,%rsi
    32bc:	48 8d 3d 5d dd 20 00 	lea    0x20dd5d(%rip),%rdi        # 211020 <_ZSt4cout@@GLIBCXX_3.4>
    32c3:	e8 08 fb ff ff       	callq  2dd0 <_ZStlsISt11char_traitsIcEERSt13basic_ostreamIcT_ES5_PKc@plt>
    32c8:	48 8d 35 dc 95 00 00 	lea    0x95dc(%rip),%rsi        # c8ab <_IO_stdin_used+0x1eb>
    32cf:	48 89 c7             	mov    %rax,%rdi
    32d2:	e8 f9 fa ff ff       	callq  2dd0 <_ZStlsISt11char_traitsIcEERSt13basic_ostreamIcT_ES5_PKc@plt>
    32d7:	ba 08 00 00 00       	mov    $0x8,%edx
    32dc:	48 8d 35 11 a1 00 00 	lea    0xa111(%rip),%rsi        # d3f4 <_ZTSSt5_BindIFMN6matrix6sparse9CSRMatrixIidEEFvPdPKdEPS3_St12_PlaceholderILi1EESA_ILi2EEEE+0x254>
    32e3:	48 8d 3d 36 dd 20 00 	lea    0x20dd36(%rip),%rdi        # 211020 <_ZSt4cout@@GLIBCXX_3.4>
    32ea:	e8 31 fb ff ff       	callq  2e20 <_ZSt16__ostream_insertIcSt11char_traitsIcEERSt13basic_ostreamIT_T0_ES6_PKS3_l@plt>
    32ef:	89 ee                	mov    %ebp,%esi
    32f1:	48 8d 3d 28 dd 20 00 	lea    0x20dd28(%rip),%rdi        # 211020 <_ZSt4cout@@GLIBCXX_3.4>
    32f8:	e8 d3 fc ff ff       	callq  2fd0 <_ZNSolsEi@plt>
    32fd:	48 8d 35 a7 95 00 00 	lea    0x95a7(%rip),%rsi        # c8ab <_IO_stdin_used+0x1eb>
    3304:	48 89 c7             	mov    %rax,%rdi
    3307:	e8 c4 fa ff ff       	callq  2dd0 <_ZStlsISt11char_traitsIcEERSt13basic_ostreamIcT_ES5_PKc@plt>
    330c:	ba 09 00 00 00       	mov    $0x9,%edx
    3311:	48 8d 35 e5 a0 00 00 	lea    0xa0e5(%rip),%rsi        # d3fd <_ZTSSt5_BindIFMN6matrix6sparse9CSRMatrixIidEEFvPdPKdEPS3_St12_PlaceholderILi1EESA_ILi2EEEE+0x25d>
    3318:	48 8d 3d 01 dd 20 00 	lea    0x20dd01(%rip),%rdi        # 211020 <_ZSt4cout@@GLIBCXX_3.4>
    331f:	e8 fc fa ff ff       	callq  2e20 <_ZSt16__ostream_insertIcSt11char_traitsIcEERSt13basic_ostreamIT_T0_ES6_PKS3_l@plt>
    3324:	44 89 e6             	mov    %r12d,%esi
    3327:	48 8d 3d f2 dc 20 00 	lea    0x20dcf2(%rip),%rdi        # 211020 <_ZSt4cout@@GLIBCXX_3.4>
    332e:	e8 9d fc ff ff       	callq  2fd0 <_ZNSolsEi@plt>
    3333:	48 8d 35 71 95 00 00 	lea    0x9571(%rip),%rsi        # c8ab <_IO_stdin_used+0x1eb>
    333a:	48 89 c7             	mov    %rax,%rdi
    333d:	e8 8e fa ff ff       	callq  2dd0 <_ZStlsISt11char_traitsIcEERSt13basic_ostreamIcT_ES5_PKc@plt>
    3342:	31 ff                	xor    %edi,%edi
    3344:	e8 17 fd ff ff       	callq  3060 <omp_set_dynamic@plt>
    3349:	44 89 e7             	mov    %r12d,%edi
    334c:	e8 bf fa ff ff       	callq  2e10 <omp_set_num_threads@plt>
    3351:	48 8b 73 08          	mov    0x8(%rbx),%rsi
    3355:	48 83 ca ff          	or     $0xffffffffffffffff,%rdx
    3359:	48 8d 84 24 e0 00 00 	lea    0xe0(%rsp),%rax
    3360:	00 
    3361:	48 89 04 24          	mov    %rax,(%rsp)
    3365:	48 8d 84 24 f0 00 00 	lea    0xf0(%rsp),%rax
    336c:	00 
    336d:	48 89 84 24 e0 00 00 	mov    %rax,0xe0(%rsp)
    3374:	00 
    3375:	48 85 f6             	test   %rsi,%rsi
    3378:	74 15                	je     338f <main+0x20f>
    337a:	31 c0                	xor    %eax,%eax
    337c:	48 89 d1             	mov    %rdx,%rcx
    337f:	48 89 f7             	mov    %rsi,%rdi
    3382:	f2 ae                	repnz scas %es:(%rdi),%al
    3384:	48 89 c8             	mov    %rcx,%rax
    3387:	48 f7 d0             	not    %rax
    338a:	48 8d 54 06 ff       	lea    -0x1(%rsi,%rax,1),%rdx
    338f:	48 8b 3c 24          	mov    (%rsp),%rdi
    3393:	e8 68 8e 00 00       	callq  c200 <_ZNSt7__cxx1112basic_stringIcSt11char_traitsIcESaIcEE12_M_constructIPKcEEvT_S8_St20forward_iterator_tag.isra.42>
    3398:	48 8d 84 24 00 01 00 	lea    0x100(%rsp),%rax
    339f:	00 
    33a0:	48 c7 84 24 08 01 00 	movq   $0x0,0x108(%rsp)
    33a7:	00 00 00 00 00 
    33ac:	48 89 44 24 10       	mov    %rax,0x10(%rsp)
    33b1:	48 8d 84 24 10 01 00 	lea    0x110(%rsp),%rax
    33b8:	00 
    33b9:	48 89 84 24 00 01 00 	mov    %rax,0x100(%rsp)
    33c0:	00 
    33c1:	c6 84 24 10 01 00 00 	movb   $0x0,0x110(%rsp)
    33c8:	00 
    33c9:	85 ed                	test   %ebp,%ebp
    33cb:	0f 84 9a 03 00 00    	je     376b <main+0x5eb>
    33d1:	83 ed 01             	sub    $0x1,%ebp
    33d4:	0f 85 a2 03 00 00    	jne    377c <main+0x5fc>
    33da:	48 8b 7c 24 10       	mov    0x10(%rsp),%rdi
    33df:	48 8d 35 25 a0 00 00 	lea    0xa025(%rip),%rsi        # d40b <_ZTSSt5_BindIFMN6matrix6sparse9CSRMatrixIidEEFvPdPKdEPS3_St12_PlaceholderILi1EESA_ILi2EEEE+0x26b>
    33e6:	e8 85 fc ff ff       	callq  3070 <_ZNSt7__cxx1112basic_stringIcSt11char_traitsIcESaIcEE6assignEPKc@plt>
    33eb:	bf 68 00 00 00       	mov    $0x68,%edi
    33f0:	e8 eb f9 ff ff       	callq  2de0 <_Znwm@plt>
    33f5:	48 89 c3             	mov    %rax,%rbx
    33f8:	48 8d 05 61 d3 20 00 	lea    0x20d361(%rip),%rax        # 210760 <_ZTVN6matrix6sparse9CSRMatrixIifEE+0x10>
    33ff:	48 8b 34 24          	mov    (%rsp),%rsi
    3403:	48 89 03             	mov    %rax,(%rbx)
    3406:	48 8d 84 24 20 01 00 	lea    0x120(%rsp),%rax
    340d:	00 
    340e:	c7 43 08 00 00 00 00 	movl   $0x0,0x8(%rbx)
    3415:	48 89 c7             	mov    %rax,%rdi
    3418:	c6 43 18 01          	movb   $0x1,0x18(%rbx)
    341c:	48 c7 43 58 00 00 00 	movq   $0x0,0x58(%rbx)
    3423:	00 
    3424:	48 89 44 24 08       	mov    %rax,0x8(%rsp)
    3429:	e8 a2 39 00 00       	callq  6dd0 <_ZN4util2io3MMFIifEC1ERKNSt7__cxx1112basic_stringIcSt11char_traitsIcESaIcEEE>
    342e:	8b 84 24 20 01 00 00 	mov    0x120(%rsp),%eax
    3435:	8b 94 24 24 01 00 00 	mov    0x124(%rsp),%edx
    343c:	80 bc 24 38 03 00 00 	cmpb   $0x0,0x338(%rsp)
    3443:	00 
    3444:	89 43 0c             	mov    %eax,0xc(%rbx)
    3447:	89 53 10             	mov    %edx,0x10(%rbx)
    344a:	75 0e                	jne    345a <main+0x2da>
    344c:	80 bc 24 39 03 00 00 	cmpb   $0x0,0x339(%rsp)
    3453:	00 
    3454:	0f 84 ad 0a 00 00    	je     3f07 <main+0xd87>
    345a:	48 8b 94 24 48 03 00 	mov    0x348(%rsp),%rdx
    3461:	00 
    3462:	48 2b 94 24 40 03 00 	sub    0x340(%rsp),%rdx
    3469:	00 
    346a:	48 c1 fa 02          	sar    $0x2,%rdx
    346e:	69 d2 ab aa aa aa    	imul   $0xaaaaaaab,%edx,%edx
    3474:	8d 78 01             	lea    0x1(%rax),%edi
    3477:	89 53 14             	mov    %edx,0x14(%rbx)
    347a:	8b 73 08             	mov    0x8(%rbx),%esi
    347d:	48 63 ff             	movslq %edi,%rdi
    3480:	48 c1 e7 02          	shl    $0x2,%rdi
    3484:	e8 47 83 00 00       	callq  b7d0 <_ZN4util14internal_allocEmNS_8PlatformE>
    3489:	48 63 7b 14          	movslq 0x14(%rbx),%rdi
    348d:	8b 73 08             	mov    0x8(%rbx),%esi
    3490:	48 89 43 20          	mov    %rax,0x20(%rbx)
    3494:	48 c1 e7 02          	shl    $0x2,%rdi
    3498:	e8 33 83 00 00       	callq  b7d0 <_ZN4util14internal_allocEmNS_8PlatformE>
    349d:	48 63 7b 14          	movslq 0x14(%rbx),%rdi
    34a1:	8b 73 08             	mov    0x8(%rbx),%esi
    34a4:	48 89 43 28          	mov    %rax,0x28(%rbx)
    34a8:	48 c1 e7 02          	shl    $0x2,%rdi
    34ac:	e8 1f 83 00 00       	callq  b7d0 <_ZN4util14internal_allocEmNS_8PlatformE>
    34b1:	48 89 43 30          	mov    %rax,0x30(%rbx)
    34b5:	4c 8d 7c 24 40       	lea    0x40(%rsp),%r15
    34ba:	c6 43 39 00          	movb   $0x0,0x39(%rbx)
    34be:	c6 43 38 00          	movb   $0x0,0x38(%rbx)
    34c2:	e8 b9 fa ff ff       	callq  2f80 <omp_get_max_threads@plt>
    34c7:	48 c7 43 40 00 00 00 	movq   $0x0,0x40(%rbx)
    34ce:	00 
    34cf:	48 8d 3d 5a 8c 00 00 	lea    0x8c5a(%rip),%rdi        # c130 <_ZN6matrix6sparse9CSRMatrixIifEC2ERKNSt7__cxx1112basic_stringIcSt11char_traitsIcESaIcEEEN4util8PlatformE._omp_fn.6>
    34d6:	31 c9                	xor    %ecx,%ecx
    34d8:	89 43 3c             	mov    %eax,0x3c(%rbx)
    34db:	48 8d b4 24 a0 00 00 	lea    0xa0(%rsp),%rsi
    34e2:	00 
    34e3:	89 c2                	mov    %eax,%edx
    34e5:	48 89 74 24 20       	mov    %rsi,0x20(%rsp)
    34ea:	48 89 9c 24 a0 00 00 	mov    %rbx,0xa0(%rsp)
    34f1:	00 
    34f2:	e8 f9 f9 ff ff       	callq  2ef0 <GOMP_parallel@plt>
    34f7:	48 8b 74 24 08       	mov    0x8(%rsp),%rsi
    34fc:	31 d2                	xor    %edx,%edx
    34fe:	4c 89 ff             	mov    %r15,%rdi
    3501:	e8 0a 25 00 00       	callq  5a10 <_ZN4util2io3MMFIifE8iteratorC1EPS2_m>
    3506:	80 bc 24 38 03 00 00 	cmpb   $0x0,0x338(%rsp)
    350d:	00 
    350e:	75 0e                	jne    351e <main+0x39e>
    3510:	80 bc 24 39 03 00 00 	cmpb   $0x0,0x339(%rsp)
    3517:	00 
    3518:	0f 84 32 0a 00 00    	je     3f50 <main+0xdd0>
    351e:	48 8b 94 24 48 03 00 	mov    0x348(%rsp),%rdx
    3525:	00 
    3526:	48 8b 74 24 08       	mov    0x8(%rsp),%rsi
    352b:	48 8d 7c 24 60       	lea    0x60(%rsp),%rdi
    3530:	48 b8 ab aa aa aa aa 	movabs $0xaaaaaaaaaaaaaaab,%rax
    3537:	aa aa aa 
    353a:	48 2b 94 24 40 03 00 	sub    0x340(%rsp),%rdx
    3541:	00 
    3542:	48 c1 fa 02          	sar    $0x2,%rdx
    3546:	48 0f af d0          	imul   %rax,%rdx
    354a:	e8 c1 24 00 00       	callq  5a10 <_ZN4util2io3MMFIifE8iteratorC1EPS2_m>
    354f:	48 8b 43 20          	mov    0x20(%rbx),%rax
    3553:	48 8b 7c 24 40       	mov    0x40(%rsp),%rdi
    3558:	45 31 e4             	xor    %r12d,%r12d
    355b:	4d 8d 77 10          	lea    0x10(%r15),%r14
    355f:	4c 8b 54 24 60       	mov    0x60(%rsp),%r10
    3564:	44 89 e6             	mov    %r12d,%esi
    3567:	c7 00 00 00 00 00    	movl   $0x0,(%rax)
    356d:	31 c0                	xor    %eax,%eax
    356f:	49 39 fa             	cmp    %rdi,%r10
    3572:	0f 84 ef 00 00 00    	je     3667 <main+0x4e7>
    3578:	0f 1f 84 00 00 00 00 	nopl   0x0(%rax,%rax,1)
    357f:	00 
    3580:	44 0f b6 8f 18 02 00 	movzbl 0x218(%rdi),%r9d
    3587:	00 
    3588:	45 84 c9             	test   %r9b,%r9b
    358b:	0f 85 df 07 00 00    	jne    3d70 <main+0xbf0>
    3591:	80 bf 19 02 00 00 00 	cmpb   $0x0,0x219(%rdi)
    3598:	0f 85 fa 07 00 00    	jne    3d98 <main+0xc18>
    359e:	80 7c 24 5c 00       	cmpb   $0x0,0x5c(%rsp)
    35a3:	0f 84 3f 0a 00 00    	je     3fe8 <main+0xe68>
    35a9:	8b 4c 24 50          	mov    0x50(%rsp),%ecx
    35ad:	8d 69 ff             	lea    -0x1(%rcx),%ebp
    35b0:	8b 4c 24 54          	mov    0x54(%rsp),%ecx
    35b4:	8d 51 ff             	lea    -0x1(%rcx),%edx
    35b7:	4c 89 f1             	mov    %r14,%rcx
    35ba:	c5 fa 10 41 08       	vmovss 0x8(%rcx),%xmm0
    35bf:	39 e8                	cmp    %ebp,%eax
    35c1:	0f 8f 02 0a 00 00    	jg     3fc9 <main+0xe49>
    35c7:	39 6b 0c             	cmp    %ebp,0xc(%rbx)
    35ca:	0f 8e da 09 00 00    	jle    3faa <main+0xe2a>
    35d0:	85 d2                	test   %edx,%edx
    35d2:	0f 88 94 09 00 00    	js     3f6c <main+0xdec>
    35d8:	39 53 10             	cmp    %edx,0x10(%rbx)
    35db:	0f 8e 8b 09 00 00    	jle    3f6c <main+0xdec>
    35e1:	39 73 14             	cmp    %esi,0x14(%rbx)
    35e4:	0f 8e a1 09 00 00    	jle    3f8b <main+0xe0b>
    35ea:	39 e8                	cmp    %ebp,%eax
    35ec:	74 3d                	je     362b <main+0x4ab>
    35ee:	41 89 eb             	mov    %ebp,%r11d
    35f1:	41 29 c3             	sub    %eax,%r11d
    35f4:	45 85 db             	test   %r11d,%r11d
    35f7:	7e 32                	jle    362b <main+0x4ab>
    35f9:	49 63 cd             	movslq %r13d,%rcx
    35fc:	45 8d 43 ff          	lea    -0x1(%r11),%r8d
    3600:	4e 8d 44 01 01       	lea    0x1(%rcx,%r8,1),%r8
    3605:	48 8d 04 8d 00 00 00 	lea    0x0(,%rcx,4),%rax
    360c:	00 
    360d:	49 c1 e0 02          	shl    $0x2,%r8
    3611:	0f 1f 80 00 00 00 00 	nopl   0x0(%rax)
    3618:	48 8b 4b 20          	mov    0x20(%rbx),%rcx
    361c:	89 34 01             	mov    %esi,(%rcx,%rax,1)
    361f:	48 83 c0 04          	add    $0x4,%rax
    3623:	49 39 c0             	cmp    %rax,%r8
    3626:	75 f0                	jne    3618 <main+0x498>
    3628:	45 01 dd             	add    %r11d,%r13d
    362b:	48 8b 43 28          	mov    0x28(%rbx),%rax
    362f:	42 89 14 a0          	mov    %edx,(%rax,%r12,4)
    3633:	48 8b 43 30          	mov    0x30(%rbx),%rax
    3637:	c4 a1 7a 11 04 a0    	vmovss %xmm0,(%rax,%r12,4)
    363d:	48 83 44 24 48 01    	addq   $0x1,0x48(%rsp)
    3643:	45 84 c9             	test   %r9b,%r9b
    3646:	75 0d                	jne    3655 <main+0x4d5>
    3648:	80 bf 19 02 00 00 00 	cmpb   $0x0,0x219(%rdi)
    364f:	0f 84 8b 07 00 00    	je     3de0 <main+0xc60>
    3655:	49 83 c4 01          	add    $0x1,%r12
    3659:	89 e8                	mov    %ebp,%eax
    365b:	44 89 e6             	mov    %r12d,%esi
    365e:	49 39 fa             	cmp    %rdi,%r10
    3661:	0f 85 19 ff ff ff    	jne    3580 <main+0x400>
    3667:	48 8b 54 24 68       	mov    0x68(%rsp),%rdx
    366c:	48 39 54 24 48       	cmp    %rdx,0x48(%rsp)
    3671:	0f 85 09 ff ff ff    	jne    3580 <main+0x400>
    3677:	48 8b 43 20          	mov    0x20(%rbx),%rax
    367b:	49 63 d5             	movslq %r13d,%rdx
    367e:	44 89 24 90          	mov    %r12d,(%rax,%rdx,4)
    3682:	44 39 6b 0c          	cmp    %r13d,0xc(%rbx)
    3686:	0f 85 3f 0a 00 00    	jne    40cb <main+0xf4b>
    368c:	44 3b 63 14          	cmp    0x14(%rbx),%r12d
    3690:	0f 85 16 0a 00 00    	jne    40ac <main+0xf2c>
    3696:	48 8b 44 24 08       	mov    0x8(%rsp),%rax
    369b:	48 8d b8 88 00 00 00 	lea    0x88(%rax),%rdi
    36a2:	e8 59 f5 ff ff       	callq  2c00 <_ZNKSt12__basic_fileIcE7is_openEv@plt>
    36a7:	84 c0                	test   %al,%al
    36a9:	0f 85 64 08 00 00    	jne    3f13 <main+0xd93>
    36af:	48 8b bc 24 40 03 00 	mov    0x340(%rsp),%rdi
    36b6:	00 
    36b7:	48 85 ff             	test   %rdi,%rdi
    36ba:	74 05                	je     36c1 <main+0x541>
    36bc:	e8 ff f6 ff ff       	callq  2dc0 <_ZdlPv@plt>
    36c1:	4c 8b 7c 24 08       	mov    0x8(%rsp),%r15
    36c6:	48 8d 05 03 d2 20 00 	lea    0x20d203(%rip),%rax        # 2108d0 <_ZTVSt14basic_ifstreamIcSt11char_traitsIcEE@@GLIBCXX_3.4+0x18>
    36cd:	48 89 84 24 30 01 00 	mov    %rax,0x130(%rsp)
    36d4:	00 
    36d5:	48 83 c0 28          	add    $0x28,%rax
    36d9:	48 89 84 24 30 02 00 	mov    %rax,0x230(%rsp)
    36e0:	00 
    36e1:	49 8d 7f 20          	lea    0x20(%r15),%rdi
    36e5:	48 8d 05 2c d2 20 00 	lea    0x20d22c(%rip),%rax        # 210918 <_ZTVSt13basic_filebufIcSt11char_traitsIcEE@@GLIBCXX_3.4+0x10>
    36ec:	48 89 84 24 40 01 00 	mov    %rax,0x140(%rsp)
    36f3:	00 
    36f4:	e8 f7 f4 ff ff       	callq  2bf0 <_ZNSt13basic_filebufIcSt11char_traitsIcEE5closeEv@plt>
    36f9:	49 8d bf 88 00 00 00 	lea    0x88(%r15),%rdi
    3700:	e8 3b f9 ff ff       	callq  3040 <_ZNSt12__basic_fileIcED1Ev@plt>
    3705:	48 8d 05 3c d1 20 00 	lea    0x20d13c(%rip),%rax        # 210848 <_ZTVSt15basic_streambufIcSt11char_traitsIcEE@@GLIBCXX_3.4+0x10>
    370c:	49 8d 7f 58          	lea    0x58(%r15),%rdi
    3710:	48 89 84 24 40 01 00 	mov    %rax,0x140(%rsp)
    3717:	00 
    3718:	e8 a3 f7 ff ff       	callq  2ec0 <_ZNSt6localeD1Ev@plt>
    371d:	48 8b 05 6c d2 20 00 	mov    0x20d26c(%rip),%rax        # 210990 <_ZTTSt14basic_ifstreamIcSt11char_traitsIcEE@@GLIBCXX_3.4+0x8>
    3724:	48 8b 15 6d d2 20 00 	mov    0x20d26d(%rip),%rdx        # 210998 <_ZTTSt14basic_ifstreamIcSt11char_traitsIcEE@@GLIBCXX_3.4+0x10>
    372b:	49 8d bf 10 01 00 00 	lea    0x110(%r15),%rdi
    3732:	48 89 84 24 30 01 00 	mov    %rax,0x130(%rsp)
    3739:	00 
    373a:	48 8b 40 e8          	mov    -0x18(%rax),%rax
    373e:	48 89 94 04 30 01 00 	mov    %rdx,0x130(%rsp,%rax,1)
    3745:	00 
    3746:	48 8d 05 db d0 20 00 	lea    0x20d0db(%rip),%rax        # 210828 <_ZTVSt9basic_iosIcSt11char_traitsIcEE@@GLIBCXX_3.4+0x10>
    374d:	48 c7 84 24 38 01 00 	movq   $0x0,0x138(%rsp)
    3754:	00 00 00 00 00 
    3759:	48 89 84 24 30 02 00 	mov    %rax,0x230(%rsp)
    3760:	00 
    3761:	e8 da f4 ff ff       	callq  2c40 <_ZNSt8ios_baseD2Ev@plt>
    3766:	e9 e7 02 00 00       	jmpq   3a52 <main+0x8d2>
    376b:	48 8b 7c 24 10       	mov    0x10(%rsp),%rdi
    3770:	48 8d 35 90 9c 00 00 	lea    0x9c90(%rip),%rsi        # d407 <_ZTSSt5_BindIFMN6matrix6sparse9CSRMatrixIidEEFvPdPKdEPS3_St12_PlaceholderILi1EESA_ILi2EEEE+0x267>
    3777:	e8 f4 f8 ff ff       	callq  3070 <_ZNSt7__cxx1112basic_stringIcSt11char_traitsIcESaIcEE6assignEPKc@plt>
    377c:	bf 58 00 00 00       	mov    $0x58,%edi
    3781:	e8 5a f6 ff ff       	callq  2de0 <_Znwm@plt>
    3786:	48 89 c3             	mov    %rax,%rbx
    3789:	48 8d 05 20 cf 20 00 	lea    0x20cf20(%rip),%rax        # 2106b0 <_ZTVN6matrix6sparse9COOMatrixIifEE+0x10>
    3790:	48 8d ac 24 b0 14 00 	lea    0x14b0(%rsp),%rbp
    3797:	00 
    3798:	48 89 03             	mov    %rax,(%rbx)
    379b:	c7 43 08 00 00 00 00 	movl   $0x0,0x8(%rbx)
    37a2:	e8 d9 f7 ff ff       	callq  2f80 <omp_get_max_threads@plt>
    37a7:	c6 43 1c 01          	movb   $0x1,0x1c(%rbx)
    37ab:	48 8b 34 24          	mov    (%rsp),%rsi
    37af:	48 89 ef             	mov    %rbp,%rdi
    37b2:	89 43 0c             	mov    %eax,0xc(%rbx)
    37b5:	48 c7 43 48 00 00 00 	movq   $0x0,0x48(%rbx)
    37bc:	00 
    37bd:	e8 0e 36 00 00       	callq  6dd0 <_ZN4util2io3MMFIifEC1ERKNSt7__cxx1112basic_stringIcSt11char_traitsIcESaIcEEE>
    37c2:	8b 84 24 b0 14 00 00 	mov    0x14b0(%rsp),%eax
    37c9:	80 bc 24 c8 16 00 00 	cmpb   $0x0,0x16c8(%rsp)
    37d0:	00 
    37d1:	89 43 10             	mov    %eax,0x10(%rbx)
    37d4:	8b 84 24 b4 14 00 00 	mov    0x14b4(%rsp),%eax
    37db:	89 43 14             	mov    %eax,0x14(%rbx)
    37de:	0f 84 6d 05 00 00    	je     3d51 <main+0xbd1>
    37e4:	48 8b 84 24 d8 16 00 	mov    0x16d8(%rsp),%rax
    37eb:	00 
    37ec:	48 2b 84 24 d0 16 00 	sub    0x16d0(%rsp),%rax
    37f3:	00 
    37f4:	48 c1 f8 02          	sar    $0x2,%rax
    37f8:	69 c0 ab aa aa aa    	imul   $0xaaaaaaab,%eax,%eax
    37fe:	89 43 18             	mov    %eax,0x18(%rbx)
    3801:	8b 73 08             	mov    0x8(%rbx),%esi
    3804:	48 98                	cltq   
    3806:	48 8d 3c 85 00 00 00 	lea    0x0(,%rax,4),%rdi
    380d:	00 
    380e:	e8 bd 7f 00 00       	callq  b7d0 <_ZN4util14internal_allocEmNS_8PlatformE>
    3813:	48 63 7b 18          	movslq 0x18(%rbx),%rdi
    3817:	8b 73 08             	mov    0x8(%rbx),%esi
    381a:	48 89 43 20          	mov    %rax,0x20(%rbx)
    381e:	48 c1 e7 02          	shl    $0x2,%rdi
    3822:	e8 a9 7f 00 00       	callq  b7d0 <_ZN4util14internal_allocEmNS_8PlatformE>
    3827:	48 63 7b 18          	movslq 0x18(%rbx),%rdi
    382b:	8b 73 08             	mov    0x8(%rbx),%esi
    382e:	48 89 43 28          	mov    %rax,0x28(%rbx)
    3832:	48 c1 e7 02          	shl    $0x2,%rdi
    3836:	e8 95 7f 00 00       	callq  b7d0 <_ZN4util14internal_allocEmNS_8PlatformE>
    383b:	48 89 43 30          	mov    %rax,0x30(%rbx)
    383f:	4c 8d ac 24 80 00 00 	lea    0x80(%rsp),%r13
    3846:	00 
    3847:	31 d2                	xor    %edx,%edx
    3849:	48 89 ee             	mov    %rbp,%rsi
    384c:	4c 89 ef             	mov    %r13,%rdi
    384f:	e8 bc 21 00 00       	callq  5a10 <_ZN4util2io3MMFIifE8iteratorC1EPS2_m>
    3854:	80 bc 24 c8 16 00 00 	cmpb   $0x0,0x16c8(%rsp)
    385b:	00 
    385c:	75 0e                	jne    386c <main+0x6ec>
    385e:	80 bc 24 c9 16 00 00 	cmpb   $0x0,0x16c9(%rsp)
    3865:	00 
    3866:	0f 84 8e 06 00 00    	je     3efa <main+0xd7a>
    386c:	48 8b 94 24 d8 16 00 	mov    0x16d8(%rsp),%rdx
    3873:	00 
    3874:	48 2b 94 24 d0 16 00 	sub    0x16d0(%rsp),%rdx
    387b:	00 
    387c:	48 b8 ab aa aa aa aa 	movabs $0xaaaaaaaaaaaaaaab,%rax
    3883:	aa aa aa 
    3886:	48 c1 fa 02          	sar    $0x2,%rdx
    388a:	48 0f af d0          	imul   %rax,%rdx
    388e:	48 8d 84 24 a0 00 00 	lea    0xa0(%rsp),%rax
    3895:	00 
    3896:	48 89 ee             	mov    %rbp,%rsi
    3899:	48 89 c7             	mov    %rax,%rdi
    389c:	48 89 44 24 20       	mov    %rax,0x20(%rsp)
    38a1:	e8 6a 21 00 00       	callq  5a10 <_ZN4util2io3MMFIifE8iteratorC1EPS2_m>
    38a6:	48 8b bc 24 80 00 00 	mov    0x80(%rsp),%rdi
    38ad:	00 
    38ae:	48 8b b4 24 a0 00 00 	mov    0xa0(%rsp),%rsi
    38b5:	00 
    38b6:	45 31 e4             	xor    %r12d,%r12d
    38b9:	4d 8d 75 18          	lea    0x18(%r13),%r14
    38bd:	e9 a1 00 00 00       	jmpq   3963 <main+0x7e3>
    38c2:	66 0f 1f 44 00 00    	nopw   0x0(%rax,%rax,1)
    38c8:	80 bf 18 02 00 00 00 	cmpb   $0x0,0x218(%rdi)
    38cf:	0f 85 33 05 00 00    	jne    3e08 <main+0xc88>
    38d5:	80 bf 19 02 00 00 00 	cmpb   $0x0,0x219(%rdi)
    38dc:	0f 85 7e 05 00 00    	jne    3e60 <main+0xce0>
    38e2:	80 bc 24 9c 00 00 00 	cmpb   $0x0,0x9c(%rsp)
    38e9:	00 
    38ea:	0f 84 a4 07 00 00    	je     4094 <main+0xf14>
    38f0:	8b 84 24 90 00 00 00 	mov    0x90(%rsp),%eax
    38f7:	48 8b 53 20          	mov    0x20(%rbx),%rdx
    38fb:	4e 8d 04 a5 00 00 00 	lea    0x0(,%r12,4),%r8
    3902:	00 
    3903:	83 e8 01             	sub    $0x1,%eax
    3906:	42 89 04 a2          	mov    %eax,(%rdx,%r12,4)
    390a:	8b 84 24 94 00 00 00 	mov    0x94(%rsp),%eax
    3911:	48 8b 53 28          	mov    0x28(%rbx),%rdx
    3915:	83 e8 01             	sub    $0x1,%eax
    3918:	42 89 04 a2          	mov    %eax,(%rdx,%r12,4)
    391c:	48 8b 43 30          	mov    0x30(%rbx),%rax
    3920:	49 8d 55 14          	lea    0x14(%r13),%rdx
    3924:	49 8d 75 10          	lea    0x10(%r13),%rsi
    3928:	4c 89 f1             	mov    %r14,%rcx
    392b:	c5 fa 10 84 24 98 00 	vmovss 0x98(%rsp),%xmm0
    3932:	00 00 
    3934:	c4 a1 7a 11 04 00    	vmovss %xmm0,(%rax,%r8,1)
    393a:	48 83 84 24 88 00 00 	addq   $0x1,0x88(%rsp)
    3941:	00 01 
    3943:	e8 b8 1e 00 00       	callq  5800 <_ZN4util2io3MMFIifE7GetNextERiS3_Rf>
    3948:	88 84 24 9c 00 00 00 	mov    %al,0x9c(%rsp)
    394f:	48 8b bc 24 80 00 00 	mov    0x80(%rsp),%rdi
    3956:	00 
    3957:	48 8b b4 24 a0 00 00 	mov    0xa0(%rsp),%rsi
    395e:	00 
    395f:	49 83 c4 01          	add    $0x1,%r12
    3963:	48 39 fe             	cmp    %rdi,%rsi
    3966:	0f 85 5c ff ff ff    	jne    38c8 <main+0x748>
    396c:	48 8b 8c 24 a8 00 00 	mov    0xa8(%rsp),%rcx
    3973:	00 
    3974:	48 39 8c 24 88 00 00 	cmp    %rcx,0x88(%rsp)
    397b:	00 
    397c:	0f 85 46 ff ff ff    	jne    38c8 <main+0x748>
    3982:	44 39 63 18          	cmp    %r12d,0x18(%rbx)
    3986:	0f 85 ca 07 00 00    	jne    4156 <main+0xfd6>
    398c:	48 8d bd 88 00 00 00 	lea    0x88(%rbp),%rdi
    3993:	e8 68 f2 ff ff       	callq  2c00 <_ZNKSt12__basic_fileIcE7is_openEv@plt>
    3998:	84 c0                	test   %al,%al
    399a:	0f 85 27 05 00 00    	jne    3ec7 <main+0xd47>
    39a0:	48 8b bc 24 d0 16 00 	mov    0x16d0(%rsp),%rdi
    39a7:	00 
    39a8:	48 85 ff             	test   %rdi,%rdi
    39ab:	74 05                	je     39b2 <main+0x832>
    39ad:	e8 0e f4 ff ff       	callq  2dc0 <_ZdlPv@plt>
    39b2:	48 8d 05 17 cf 20 00 	lea    0x20cf17(%rip),%rax        # 2108d0 <_ZTVSt14basic_ifstreamIcSt11char_traitsIcEE@@GLIBCXX_3.4+0x18>
    39b9:	48 8d 7d 20          	lea    0x20(%rbp),%rdi
    39bd:	48 89 84 24 c0 14 00 	mov    %rax,0x14c0(%rsp)
    39c4:	00 
    39c5:	48 83 c0 28          	add    $0x28,%rax
    39c9:	48 89 84 24 c0 15 00 	mov    %rax,0x15c0(%rsp)
    39d0:	00 
    39d1:	48 8d 05 40 cf 20 00 	lea    0x20cf40(%rip),%rax        # 210918 <_ZTVSt13basic_filebufIcSt11char_traitsIcEE@@GLIBCXX_3.4+0x10>
    39d8:	48 89 84 24 d0 14 00 	mov    %rax,0x14d0(%rsp)
    39df:	00 
    39e0:	e8 0b f2 ff ff       	callq  2bf0 <_ZNSt13basic_filebufIcSt11char_traitsIcEE5closeEv@plt>
    39e5:	48 8d bd 88 00 00 00 	lea    0x88(%rbp),%rdi
    39ec:	e8 4f f6 ff ff       	callq  3040 <_ZNSt12__basic_fileIcED1Ev@plt>
    39f1:	48 8d 05 50 ce 20 00 	lea    0x20ce50(%rip),%rax        # 210848 <_ZTVSt15basic_streambufIcSt11char_traitsIcEE@@GLIBCXX_3.4+0x10>
    39f8:	48 8d 7d 58          	lea    0x58(%rbp),%rdi
    39fc:	48 89 84 24 d0 14 00 	mov    %rax,0x14d0(%rsp)
    3a03:	00 
    3a04:	e8 b7 f4 ff ff       	callq  2ec0 <_ZNSt6localeD1Ev@plt>
    3a09:	48 8b 05 80 cf 20 00 	mov    0x20cf80(%rip),%rax        # 210990 <_ZTTSt14basic_ifstreamIcSt11char_traitsIcEE@@GLIBCXX_3.4+0x8>
    3a10:	48 8b 15 81 cf 20 00 	mov    0x20cf81(%rip),%rdx        # 210998 <_ZTTSt14basic_ifstreamIcSt11char_traitsIcEE@@GLIBCXX_3.4+0x10>
    3a17:	48 8d bd 10 01 00 00 	lea    0x110(%rbp),%rdi
    3a1e:	48 89 84 24 c0 14 00 	mov    %rax,0x14c0(%rsp)
    3a25:	00 
    3a26:	48 8b 40 e8          	mov    -0x18(%rax),%rax
    3a2a:	48 89 94 04 c0 14 00 	mov    %rdx,0x14c0(%rsp,%rax,1)
    3a31:	00 
    3a32:	48 8d 05 ef cd 20 00 	lea    0x20cdef(%rip),%rax        # 210828 <_ZTVSt9basic_iosIcSt11char_traitsIcEE@@GLIBCXX_3.4+0x10>
    3a39:	48 c7 84 24 c8 14 00 	movq   $0x0,0x14c8(%rsp)
    3a40:	00 00 00 00 00 
    3a45:	48 89 84 24 c0 15 00 	mov    %rax,0x15c0(%rsp)
    3a4c:	00 
    3a4d:	e8 ee f1 ff ff       	callq  2c40 <_ZNSt8ios_baseD2Ev@plt>
    3a52:	48 8b 03             	mov    (%rbx),%rax
    3a55:	48 89 df             	mov    %rbx,%rdi
    3a58:	ff 50 10             	callq  *0x10(%rax)
    3a5b:	41 89 c4             	mov    %eax,%r12d
    3a5e:	48 8b 03             	mov    (%rbx),%rax
    3a61:	48 89 df             	mov    %rbx,%rdi
    3a64:	ff 50 18             	callq  *0x18(%rax)
    3a67:	41 89 c5             	mov    %eax,%r13d
    3a6a:	48 8b 03             	mov    (%rbx),%rax
    3a6d:	48 89 df             	mov    %rbx,%rdi
    3a70:	ff 50 20             	callq  *0x20(%rax)
    3a73:	48 8d ac 24 b0 14 00 	lea    0x14b0(%rsp),%rbp
    3a7a:	00 
    3a7b:	48 8d 15 94 99 00 00 	lea    0x9994(%rip),%rdx        # d416 <_ZTSSt5_BindIFMN6matrix6sparse9CSRMatrixIidEEFvPdPKdEPS3_St12_PlaceholderILi1EESA_ILi2EEEE+0x276>
    3a82:	89 44 24 2c          	mov    %eax,0x2c(%rsp)
    3a86:	48 8d 72 f9          	lea    -0x7(%rdx),%rsi
    3a8a:	48 8d 45 10          	lea    0x10(%rbp),%rax
    3a8e:	48 89 ef             	mov    %rbp,%rdi
    3a91:	48 89 84 24 b0 14 00 	mov    %rax,0x14b0(%rsp)
    3a98:	00 
    3a99:	e8 62 87 00 00       	callq  c200 <_ZNSt7__cxx1112basic_stringIcSt11char_traitsIcESaIcEE12_M_constructIPKcEEvT_S8_St20forward_iterator_tag.isra.42>
    3a9e:	48 8d 84 24 20 01 00 	lea    0x120(%rsp),%rax
    3aa5:	00 
    3aa6:	48 89 ee             	mov    %rbp,%rsi
    3aa9:	48 89 c7             	mov    %rax,%rdi
    3aac:	48 89 44 24 08       	mov    %rax,0x8(%rsp)
    3ab1:	e8 ea f4 ff ff       	callq  2fa0 <_ZNSt13random_device7_M_initERKNSt7__cxx1112basic_stringIcSt11char_traitsIcESaIcEEE@plt>
    3ab6:	48 8b bc 24 b0 14 00 	mov    0x14b0(%rsp),%rdi
    3abd:	00 
    3abe:	48 8d 45 10          	lea    0x10(%rbp),%rax
    3ac2:	48 39 c7             	cmp    %rax,%rdi
    3ac5:	74 05                	je     3acc <main+0x94c>
    3ac7:	e8 f4 f2 ff ff       	callq  2dc0 <_ZdlPv@plt>
    3acc:	48 8b 7c 24 08       	mov    0x8(%rsp),%rdi
    3ad1:	e8 ca f3 ff ff       	callq  2ea0 <_ZNSt13random_device9_M_getvalEv@plt>
    3ad6:	89 c0                	mov    %eax,%eax
    3ad8:	b9 01 00 00 00       	mov    $0x1,%ecx
    3add:	48 89 84 24 b0 14 00 	mov    %rax,0x14b0(%rsp)
    3ae4:	00 
    3ae5:	48 89 c2             	mov    %rax,%rdx
    3ae8:	0f 1f 84 00 00 00 00 	nopl   0x0(%rax,%rax,1)
    3aef:	00 
    3af0:	48 89 d0             	mov    %rdx,%rax
    3af3:	48 c1 e8 1e          	shr    $0x1e,%rax
    3af7:	48 31 d0             	xor    %rdx,%rax
    3afa:	48 69 c0 65 89 07 6c 	imul   $0x6c078965,%rax,%rax
    3b01:	8d 14 08             	lea    (%rax,%rcx,1),%edx
    3b04:	48 89 54 cd 00       	mov    %rdx,0x0(%rbp,%rcx,8)
    3b09:	48 83 c1 01          	add    $0x1,%rcx
    3b0d:	48 81 f9 70 02 00 00 	cmp    $0x270,%rcx
    3b14:	75 da                	jne    3af0 <main+0x970>
    3b16:	c5 f9 28 05 32 9c 00 	vmovapd 0x9c32(%rip),%xmm0        # d750 <_ZZN6matrix6sparse9CSRMatrixIifEC4ERKNSt7__cxx1112basic_stringIcSt11char_traitsIcESaIcEEEN4util8PlatformEE19__PRETTY_FUNCTION__+0x170>
    3b1d:	00 
    3b1e:	49 63 fc             	movslq %r12d,%rdi
    3b21:	31 f6                	xor    %esi,%esi
    3b23:	48 c7 84 24 30 28 00 	movq   $0x270,0x2830(%rsp)
    3b2a:	00 70 02 00 00 
    3b2f:	48 c1 e7 02          	shl    $0x2,%rdi
    3b33:	c5 f8 29 84 24 80 00 	vmovaps %xmm0,0x80(%rsp)
    3b3a:	00 00 
    3b3c:	e8 8f 7c 00 00       	callq  b7d0 <_ZN4util14internal_allocEmNS_8PlatformE>
    3b41:	48 8b 74 24 20       	mov    0x20(%rsp),%rsi
    3b46:	48 8d 3d 13 7d 00 00 	lea    0x7d13(%rip),%rdi        # b860 <main._omp_fn.0>
    3b4d:	31 c9                	xor    %ecx,%ecx
    3b4f:	31 d2                	xor    %edx,%edx
    3b51:	49 89 c6             	mov    %rax,%r14
    3b54:	48 89 84 24 a0 00 00 	mov    %rax,0xa0(%rsp)
    3b5b:	00 
    3b5c:	44 89 a4 24 a8 00 00 	mov    %r12d,0xa8(%rsp)
    3b63:	00 
    3b64:	e8 87 f3 ff ff       	callq  2ef0 <GOMP_parallel@plt>
    3b69:	49 63 fd             	movslq %r13d,%rdi
    3b6c:	31 f6                	xor    %esi,%esi
    3b6e:	48 c1 e7 02          	shl    $0x2,%rdi
    3b72:	e8 59 7c 00 00       	callq  b7d0 <_ZN4util14internal_allocEmNS_8PlatformE>
    3b77:	c4 e1 f9 6e dd       	vmovq  %rbp,%xmm3
    3b7c:	48 8b 74 24 20       	mov    0x20(%rsp),%rsi
    3b81:	49 89 c7             	mov    %rax,%r15
    3b84:	31 d2                	xor    %edx,%edx
    3b86:	48 89 84 24 b0 00 00 	mov    %rax,0xb0(%rsp)
    3b8d:	00 
    3b8e:	48 8d 84 24 80 00 00 	lea    0x80(%rsp),%rax
    3b95:	00 
    3b96:	31 c9                	xor    %ecx,%ecx
    3b98:	48 8d 3d 31 7d 00 00 	lea    0x7d31(%rip),%rdi        # b8d0 <main._omp_fn.1>
    3b9f:	c4 e3 e1 22 c0 01    	vpinsrq $0x1,%rax,%xmm3,%xmm0
    3ba5:	44 89 ac 24 b8 00 00 	mov    %r13d,0xb8(%rsp)
    3bac:	00 
    3bad:	c5 f8 29 84 24 a0 00 	vmovaps %xmm0,0xa0(%rsp)
    3bb4:	00 00 
    3bb6:	e8 35 f3 ff ff       	callq  2ef0 <GOMP_parallel@plt>
    3bbb:	e8 40 f4 ff ff       	callq  3000 <omp_get_wtime@plt>
    3bc0:	48 8b 03             	mov    (%rbx),%rax
    3bc3:	48 89 5c 24 60       	mov    %rbx,0x60(%rsp)
    3bc8:	31 f6                	xor    %esi,%esi
    3bca:	c5 fb 11 44 24 30    	vmovsd %xmm0,0x30(%rsp)
    3bd0:	ba 01 00 00 00       	mov    $0x1,%edx
    3bd5:	48 89 df             	mov    %rbx,%rdi
    3bd8:	ff 50 38             	callq  *0x38(%rax)
    3bdb:	e8 20 f4 ff ff       	callq  3000 <omp_get_wtime@plt>
    3be0:	48 8d 6c 24 60       	lea    0x60(%rsp),%rbp
    3be5:	45 89 e8             	mov    %r13d,%r8d
    3be8:	4c 89 f9             	mov    %r15,%rcx
    3beb:	c5 fb 5c 64 24 30    	vsubsd 0x30(%rsp),%xmm0,%xmm4
    3bf1:	44 89 e2             	mov    %r12d,%edx
    3bf4:	4c 89 f6             	mov    %r14,%rsi
    3bf7:	48 89 ef             	mov    %rbp,%rdi
    3bfa:	c5 fb 11 64 24 30    	vmovsd %xmm4,0x30(%rsp)
    3c00:	e8 9b 89 00 00       	callq  c5a0 <_ZN6kernel6sparse5SpDMVIifEclEPfiPKfi>
    3c05:	e8 f6 f3 ff ff       	callq  3000 <omp_get_wtime@plt>
    3c0a:	48 8d 35 06 98 00 00 	lea    0x9806(%rip),%rsi        # d417 <_ZTSSt5_BindIFMN6matrix6sparse9CSRMatrixIidEEFvPdPKdEPS3_St12_PlaceholderILi1EESA_ILi2EEEE+0x277>
    3c11:	bf 01 00 00 00       	mov    $0x1,%edi
    3c16:	31 c0                	xor    %eax,%eax
    3c18:	c5 fb 11 44 24 38    	vmovsd %xmm0,0x38(%rsp)
    3c1e:	e8 ad ef ff ff       	callq  2bd0 <__printf_chk@plt>
    3c23:	b9 01 04 00 00       	mov    $0x401,%ecx
    3c28:	48 87 c9             	xchg   %rcx,%rcx
    3c2b:	b9 07 04 00 00       	mov    $0x407,%ecx
    3c30:	48 87 c9             	xchg   %rcx,%rcx
    3c33:	45 89 e8             	mov    %r13d,%r8d
    3c36:	4c 89 f9             	mov    %r15,%rcx
    3c39:	44 89 e2             	mov    %r12d,%edx
    3c3c:	4c 89 f6             	mov    %r14,%rsi
    3c3f:	48 89 ef             	mov    %rbp,%rdi
    3c42:	e8 59 89 00 00       	callq  c5a0 <_ZN6kernel6sparse5SpDMVIifEclEPfiPKfi>
    3c47:	b9 08 04 00 00       	mov    $0x408,%ecx
    3c4c:	48 87 c9             	xchg   %rcx,%rcx
    3c4f:	b9 02 04 00 00       	mov    $0x402,%ecx
    3c54:	48 87 c9             	xchg   %rcx,%rcx
    3c57:	48 8d 35 cc 97 00 00 	lea    0x97cc(%rip),%rsi        # d42a <_ZTSSt5_BindIFMN6matrix6sparse9CSRMatrixIidEEFvPdPKdEPS3_St12_PlaceholderILi1EESA_ILi2EEEE+0x28a>
    3c5e:	bf 01 00 00 00       	mov    $0x1,%edi
    3c63:	31 c0                	xor    %eax,%eax
    3c65:	e8 66 ef ff ff       	callq  2bd0 <__printf_chk@plt>
    3c6a:	c5 fa 7e 34 24       	vmovq  (%rsp),%xmm6
    3c6f:	4c 8b 7c 24 10       	mov    0x10(%rsp),%r15
    3c74:	c4 c3 c9 22 d7 01    	vpinsrq $0x1,%r15,%xmm6,%xmm2
    3c7a:	c5 f8 29 54 24 10    	vmovaps %xmm2,0x10(%rsp)
    3c80:	e8 7b f3 ff ff       	callq  3000 <omp_get_wtime@plt>
    3c85:	c5 f1 57 c9          	vxorpd %xmm1,%xmm1,%xmm1
    3c89:	48 8b 74 24 20       	mov    0x20(%rsp),%rsi
    3c8e:	31 c9                	xor    %ecx,%ecx
    3c90:	c5 f3 2a 4c 24 2c    	vcvtsi2sdl 0x2c(%rsp),%xmm1,%xmm1
    3c96:	c5 fb 5c 44 24 38    	vsubsd 0x38(%rsp),%xmm0,%xmm0
    3c9c:	c5 fb 10 64 24 30    	vmovsd 0x30(%rsp),%xmm4
    3ca2:	31 d2                	xor    %edx,%edx
    3ca4:	c5 f9 6f 54 24 10    	vmovdqa 0x10(%rsp),%xmm2
    3caa:	48 8d 3d 0f 86 00 00 	lea    0x860f(%rip),%rdi        # c2c0 <main._omp_fn.2>
    3cb1:	c7 84 24 d0 00 00 00 	movl   $0x1,0xd0(%rsp)
    3cb8:	01 00 00 00 
    3cbc:	c5 fb 11 a4 24 b8 00 	vmovsd %xmm4,0xb8(%rsp)
    3cc3:	00 00 
    3cc5:	c5 fb 11 84 24 b0 00 	vmovsd %xmm0,0xb0(%rsp)
    3ccc:	00 00 
    3cce:	c5 f3 58 c9          	vaddsd %xmm1,%xmm1,%xmm1
    3cd2:	c5 f3 59 0d c6 99 00 	vmulsd 0x99c6(%rip),%xmm1,%xmm1        # d6a0 <_ZZN6matrix6sparse9CSRMatrixIifEC4ERKNSt7__cxx1112basic_stringIcSt11char_traitsIcESaIcEEEN4util8PlatformEE19__PRETTY_FUNCTION__+0xc0>
    3cd9:	00 
    3cda:	c5 f8 29 94 24 a0 00 	vmovaps %xmm2,0xa0(%rsp)
    3ce1:	00 00 
    3ce3:	48 89 9c 24 c8 00 00 	mov    %rbx,0xc8(%rsp)
    3cea:	00 
    3ceb:	c5 f3 5e c8          	vdivsd %xmm0,%xmm1,%xmm1
    3cef:	c5 fb 11 8c 24 c0 00 	vmovsd %xmm1,0xc0(%rsp)
    3cf6:	00 00 
    3cf8:	e8 f3 f1 ff ff       	callq  2ef0 <GOMP_parallel@plt>
    3cfd:	48 8b 03             	mov    (%rbx),%rax
    3d00:	48 89 df             	mov    %rbx,%rdi
    3d03:	ff 50 08             	callq  *0x8(%rax)
    3d06:	48 8b 7c 24 08       	mov    0x8(%rsp),%rdi
    3d0b:	e8 a0 f0 ff ff       	callq  2db0 <_ZNSt13random_device7_M_finiEv@plt>
    3d10:	48 8b bc 24 00 01 00 	mov    0x100(%rsp),%rdi
    3d17:	00 
    3d18:	49 8d 47 10          	lea    0x10(%r15),%rax
    3d1c:	48 39 c7             	cmp    %rax,%rdi
    3d1f:	74 05                	je     3d26 <main+0xba6>
    3d21:	e8 9a f0 ff ff       	callq  2dc0 <_ZdlPv@plt>
    3d26:	48 8b 14 24          	mov    (%rsp),%rdx
    3d2a:	48 8b bc 24 e0 00 00 	mov    0xe0(%rsp),%rdi
    3d31:	00 
    3d32:	31 c0                	xor    %eax,%eax
    3d34:	48 83 c2 10          	add    $0x10,%rdx
    3d38:	48 39 d7             	cmp    %rdx,%rdi
    3d3b:	0f 84 0a f5 ff ff    	je     324b <main+0xcb>
    3d41:	89 04 24             	mov    %eax,(%rsp)
    3d44:	e8 77 f0 ff ff       	callq  2dc0 <_ZdlPv@plt>
    3d49:	8b 04 24             	mov    (%rsp),%eax
    3d4c:	e9 fa f4 ff ff       	jmpq   324b <main+0xcb>
    3d51:	80 bc 24 c9 16 00 00 	cmpb   $0x0,0x16c9(%rsp)
    3d58:	00 
    3d59:	0f 85 85 fa ff ff    	jne    37e4 <main+0x664>
    3d5f:	8b 84 24 b8 14 00 00 	mov    0x14b8(%rsp),%eax
    3d66:	e9 93 fa ff ff       	jmpq   37fe <main+0x67e>
    3d6b:	0f 1f 44 00 00       	nopl   0x0(%rax,%rax,1)
    3d70:	48 8b 54 24 48       	mov    0x48(%rsp),%rdx
    3d75:	48 8d 0c 52          	lea    (%rdx,%rdx,2),%rcx
    3d79:	48 8b 97 20 02 00 00 	mov    0x220(%rdi),%rdx
    3d80:	48 8d 0c 8a          	lea    (%rdx,%rcx,4),%rcx
    3d84:	8b 11                	mov    (%rcx),%edx
    3d86:	8d 6a ff             	lea    -0x1(%rdx),%ebp
    3d89:	8b 51 04             	mov    0x4(%rcx),%edx
    3d8c:	83 ea 01             	sub    $0x1,%edx
    3d8f:	e9 26 f8 ff ff       	jmpq   35ba <main+0x43a>
    3d94:	0f 1f 40 00          	nopl   0x0(%rax)
    3d98:	48 8b 54 24 48       	mov    0x48(%rsp),%rdx
    3d9d:	48 8d 0c 52          	lea    (%rdx,%rdx,2),%rcx
    3da1:	48 8b 97 20 02 00 00 	mov    0x220(%rdi),%rdx
    3da8:	48 8d 0c 8a          	lea    (%rdx,%rcx,4),%rcx
    3dac:	8b 11                	mov    (%rcx),%edx
    3dae:	8d 6a ff             	lea    -0x1(%rdx),%ebp
    3db1:	8b 51 04             	mov    0x4(%rcx),%edx
    3db4:	83 ea 01             	sub    $0x1,%edx
    3db7:	80 bf 19 02 00 00 00 	cmpb   $0x0,0x219(%rdi)
    3dbe:	0f 85 f6 f7 ff ff    	jne    35ba <main+0x43a>
    3dc4:	80 7c 24 5c 00       	cmpb   $0x0,0x5c(%rsp)
    3dc9:	0f 84 19 02 00 00    	je     3fe8 <main+0xe68>
    3dcf:	4c 89 f1             	mov    %r14,%rcx
    3dd2:	e9 e3 f7 ff ff       	jmpq   35ba <main+0x43a>
    3dd7:	66 0f 1f 84 00 00 00 	nopw   0x0(%rax,%rax,1)
    3dde:	00 00 
    3de0:	49 8d 4f 18          	lea    0x18(%r15),%rcx
    3de4:	49 8d 57 14          	lea    0x14(%r15),%rdx
    3de8:	4c 89 f6             	mov    %r14,%rsi
    3deb:	e8 10 1a 00 00       	callq  5800 <_ZN4util2io3MMFIifE7GetNextERiS3_Rf>
    3df0:	48 8b 7c 24 40       	mov    0x40(%rsp),%rdi
    3df5:	4c 8b 54 24 60       	mov    0x60(%rsp),%r10
    3dfa:	88 44 24 5c          	mov    %al,0x5c(%rsp)
    3dfe:	e9 52 f8 ff ff       	jmpq   3655 <main+0x4d5>
    3e03:	0f 1f 44 00 00       	nopl   0x0(%rax,%rax,1)
    3e08:	48 8b 84 24 88 00 00 	mov    0x88(%rsp),%rax
    3e0f:	00 
    3e10:	48 8b 97 20 02 00 00 	mov    0x220(%rdi),%rdx
    3e17:	4c 8b 43 20          	mov    0x20(%rbx),%r8
    3e1b:	48 8d 0c 40          	lea    (%rax,%rax,2),%rcx
    3e1f:	48 83 c0 01          	add    $0x1,%rax
    3e23:	48 8d 14 8a          	lea    (%rdx,%rcx,4),%rdx
    3e27:	8b 0a                	mov    (%rdx),%ecx
    3e29:	c5 fa 10 42 08       	vmovss 0x8(%rdx),%xmm0
    3e2e:	83 e9 01             	sub    $0x1,%ecx
    3e31:	43 89 0c a0          	mov    %ecx,(%r8,%r12,4)
    3e35:	8b 4a 04             	mov    0x4(%rdx),%ecx
    3e38:	4c 8b 43 28          	mov    0x28(%rbx),%r8
    3e3c:	83 e9 01             	sub    $0x1,%ecx
    3e3f:	43 89 0c a0          	mov    %ecx,(%r8,%r12,4)
    3e43:	48 8b 53 30          	mov    0x30(%rbx),%rdx
    3e47:	c4 a1 7a 11 04 a2    	vmovss %xmm0,(%rdx,%r12,4)
    3e4d:	48 89 84 24 88 00 00 	mov    %rax,0x88(%rsp)
    3e54:	00 
    3e55:	e9 05 fb ff ff       	jmpq   395f <main+0x7df>
    3e5a:	66 0f 1f 44 00 00    	nopw   0x0(%rax,%rax,1)
    3e60:	48 8b 84 24 88 00 00 	mov    0x88(%rsp),%rax
    3e67:	00 
    3e68:	48 8b 97 20 02 00 00 	mov    0x220(%rdi),%rdx
    3e6f:	4e 8d 04 a5 00 00 00 	lea    0x0(,%r12,4),%r8
    3e76:	00 
    3e77:	4c 8b 4b 20          	mov    0x20(%rbx),%r9
    3e7b:	48 8d 0c 40          	lea    (%rax,%rax,2),%rcx
    3e7f:	48 8d 0c 8a          	lea    (%rdx,%rcx,4),%rcx
    3e83:	8b 11                	mov    (%rcx),%edx
    3e85:	83 ea 01             	sub    $0x1,%edx
    3e88:	43 89 14 a1          	mov    %edx,(%r9,%r12,4)
    3e8c:	8b 51 04             	mov    0x4(%rcx),%edx
    3e8f:	4c 8b 4b 28          	mov    0x28(%rbx),%r9
    3e93:	83 ea 01             	sub    $0x1,%edx
    3e96:	80 bf 19 02 00 00 00 	cmpb   $0x0,0x219(%rdi)
    3e9d:	43 89 14 a1          	mov    %edx,(%r9,%r12,4)
    3ea1:	0f 84 df 01 00 00    	je     4086 <main+0xf06>
    3ea7:	c5 fa 10 41 08       	vmovss 0x8(%rcx),%xmm0
    3eac:	48 8b 53 30          	mov    0x30(%rbx),%rdx
    3eb0:	48 83 c0 01          	add    $0x1,%rax
    3eb4:	c4 a1 7a 11 04 a2    	vmovss %xmm0,(%rdx,%r12,4)
    3eba:	48 89 84 24 88 00 00 	mov    %rax,0x88(%rsp)
    3ec1:	00 
    3ec2:	e9 98 fa ff ff       	jmpq   395f <main+0x7df>
    3ec7:	48 8d 7d 20          	lea    0x20(%rbp),%rdi
    3ecb:	e8 20 ed ff ff       	callq  2bf0 <_ZNSt13basic_filebufIcSt11char_traitsIcEE5closeEv@plt>
    3ed0:	48 85 c0             	test   %rax,%rax
    3ed3:	0f 85 c7 fa ff ff    	jne    39a0 <main+0x820>
    3ed9:	48 8b 84 24 c0 14 00 	mov    0x14c0(%rsp),%rax
    3ee0:	00 
    3ee1:	48 8b 40 e8          	mov    -0x18(%rax),%rax
    3ee5:	48 8d 7c 05 10       	lea    0x10(%rbp,%rax,1),%rdi
    3eea:	8b 77 20             	mov    0x20(%rdi),%esi
    3eed:	83 ce 04             	or     $0x4,%esi
    3ef0:	e8 bb f0 ff ff       	callq  2fb0 <_ZNSt9basic_iosIcSt11char_traitsIcEE5clearESt12_Ios_Iostate@plt>
    3ef5:	e9 a6 fa ff ff       	jmpq   39a0 <main+0x820>
    3efa:	48 63 94 24 b8 14 00 	movslq 0x14b8(%rsp),%rdx
    3f01:	00 
    3f02:	e9 87 f9 ff ff       	jmpq   388e <main+0x70e>
    3f07:	8b 94 24 28 01 00 00 	mov    0x128(%rsp),%edx
    3f0e:	e9 61 f5 ff ff       	jmpq   3474 <main+0x2f4>
    3f13:	48 8b 44 24 08       	mov    0x8(%rsp),%rax
    3f18:	48 8d 78 20          	lea    0x20(%rax),%rdi
    3f1c:	e8 cf ec ff ff       	callq  2bf0 <_ZNSt13basic_filebufIcSt11char_traitsIcEE5closeEv@plt>
    3f21:	48 85 c0             	test   %rax,%rax
    3f24:	0f 85 85 f7 ff ff    	jne    36af <main+0x52f>
    3f2a:	48 8b 84 24 30 01 00 	mov    0x130(%rsp),%rax
    3f31:	00 
    3f32:	48 8b 74 24 08       	mov    0x8(%rsp),%rsi
    3f37:	48 8b 40 e8          	mov    -0x18(%rax),%rax
    3f3b:	48 8d 7c 06 10       	lea    0x10(%rsi,%rax,1),%rdi
    3f40:	8b 77 20             	mov    0x20(%rdi),%esi
    3f43:	83 ce 04             	or     $0x4,%esi
    3f46:	e8 65 f0 ff ff       	callq  2fb0 <_ZNSt9basic_iosIcSt11char_traitsIcEE5clearESt12_Ios_Iostate@plt>
    3f4b:	e9 5f f7 ff ff       	jmpq   36af <main+0x52f>
    3f50:	48 63 94 24 28 01 00 	movslq 0x128(%rsp),%rdx
    3f57:	00 
    3f58:	48 8b 74 24 08       	mov    0x8(%rsp),%rsi
    3f5d:	48 8d 7c 24 60       	lea    0x60(%rsp),%rdi
    3f62:	e8 a9 1a 00 00       	callq  5a10 <_ZN4util2io3MMFIifE8iteratorC1EPS2_m>
    3f67:	e9 e3 f5 ff ff       	jmpq   354f <main+0x3cf>
    3f6c:	48 8d 0d 6d 96 00 00 	lea    0x966d(%rip),%rcx        # d5e0 <_ZZN6matrix6sparse9CSRMatrixIifEC4ERKNSt7__cxx1112basic_stringIcSt11char_traitsIcESaIcEEEN4util8PlatformEE19__PRETTY_FUNCTION__>
    3f73:	ba 52 00 00 00       	mov    $0x52,%edx
    3f78:	48 8d 35 38 8e 00 00 	lea    0x8e38(%rip),%rsi        # cdb7 <_ZTSSt5_BindIFMN6matrix6sparse9COOMatrixIidEEFvPdPKdEPS3_St12_PlaceholderILi1EESA_ILi2EEEE+0x57>
    3f7f:	48 8d 3d 5d 8e 00 00 	lea    0x8e5d(%rip),%rdi        # cde3 <_ZTSSt5_BindIFMN6matrix6sparse9COOMatrixIidEEFvPdPKdEPS3_St12_PlaceholderILi1EESA_ILi2EEEE+0x83>
    3f86:	e8 75 ed ff ff       	callq  2d00 <__assert_fail@plt>
    3f8b:	48 8d 0d 4e 96 00 00 	lea    0x964e(%rip),%rcx        # d5e0 <_ZZN6matrix6sparse9CSRMatrixIifEC4ERKNSt7__cxx1112basic_stringIcSt11char_traitsIcESaIcEEEN4util8PlatformEE19__PRETTY_FUNCTION__>
    3f92:	ba 53 00 00 00       	mov    $0x53,%edx
    3f97:	48 8d 35 19 8e 00 00 	lea    0x8e19(%rip),%rsi        # cdb7 <_ZTSSt5_BindIFMN6matrix6sparse9COOMatrixIidEEFvPdPKdEPS3_St12_PlaceholderILi1EESA_ILi2EEEE+0x57>
    3f9e:	48 8d 3d 57 8e 00 00 	lea    0x8e57(%rip),%rdi        # cdfc <_ZTSSt5_BindIFMN6matrix6sparse9COOMatrixIidEEFvPdPKdEPS3_St12_PlaceholderILi1EESA_ILi2EEEE+0x9c>
    3fa5:	e8 56 ed ff ff       	callq  2d00 <__assert_fail@plt>
    3faa:	48 8d 0d 2f 96 00 00 	lea    0x962f(%rip),%rcx        # d5e0 <_ZZN6matrix6sparse9CSRMatrixIifEC4ERKNSt7__cxx1112basic_stringIcSt11char_traitsIcESaIcEEEN4util8PlatformEE19__PRETTY_FUNCTION__>
    3fb1:	ba 51 00 00 00       	mov    $0x51,%edx
    3fb6:	48 8d 35 fa 8d 00 00 	lea    0x8dfa(%rip),%rsi        # cdb7 <_ZTSSt5_BindIFMN6matrix6sparse9COOMatrixIidEEFvPdPKdEPS3_St12_PlaceholderILi1EESA_ILi2EEEE+0x57>
    3fbd:	48 8d 3d 12 8e 00 00 	lea    0x8e12(%rip),%rdi        # cdd6 <_ZTSSt5_BindIFMN6matrix6sparse9COOMatrixIidEEFvPdPKdEPS3_St12_PlaceholderILi1EESA_ILi2EEEE+0x76>
    3fc4:	e8 37 ed ff ff       	callq  2d00 <__assert_fail@plt>
    3fc9:	48 8d 0d 10 96 00 00 	lea    0x9610(%rip),%rcx        # d5e0 <_ZZN6matrix6sparse9CSRMatrixIifEC4ERKNSt7__cxx1112basic_stringIcSt11char_traitsIcESaIcEEEN4util8PlatformEE19__PRETTY_FUNCTION__>
    3fd0:	ba 50 00 00 00       	mov    $0x50,%edx
    3fd5:	48 8d 35 db 8d 00 00 	lea    0x8ddb(%rip),%rsi        # cdb7 <_ZTSSt5_BindIFMN6matrix6sparse9COOMatrixIidEEFvPdPKdEPS3_St12_PlaceholderILi1EESA_ILi2EEEE+0x57>
    3fdc:	48 8d 3d e3 8d 00 00 	lea    0x8de3(%rip),%rdi        # cdc6 <_ZTSSt5_BindIFMN6matrix6sparse9COOMatrixIidEEFvPdPKdEPS3_St12_PlaceholderILi1EESA_ILi2EEEE+0x66>
    3fe3:	e8 18 ed ff ff       	callq  2d00 <__assert_fail@plt>
    3fe8:	48 8d 35 e9 87 00 00 	lea    0x87e9(%rip),%rsi        # c7d8 <_IO_stdin_used+0x118>
    3fef:	48 8d 3d 2a d0 20 00 	lea    0x20d02a(%rip),%rdi        # 211020 <_ZSt4cout@@GLIBCXX_3.4>
    3ff6:	e8 d5 ed ff ff       	callq  2dd0 <_ZStlsISt11char_traitsIcEERSt13basic_ostreamIcT_ES5_PKc@plt>
    3ffb:	bf 01 00 00 00       	mov    $0x1,%edi
    4000:	e8 5b ee ff ff       	callq  2e60 <exit@plt>
    4005:	48 8b 7c 24 08       	mov    0x8(%rsp),%rdi
    400a:	48 89 c5             	mov    %rax,%rbp
    400d:	c5 f8 77             	vzeroupper 
    4010:	e8 bb 09 00 00       	callq  49d0 <_ZN4util2io3MMFIifED1Ev>
    4015:	48 8b 43 58          	mov    0x58(%rbx),%rax
    4019:	48 85 c0             	test   %rax,%rax
    401c:	74 0e                	je     402c <main+0xeac>
    401e:	48 8d 7b 48          	lea    0x48(%rbx),%rdi
    4022:	ba 03 00 00 00       	mov    $0x3,%edx
    4027:	48 89 fe             	mov    %rdi,%rsi
    402a:	ff d0                	callq  *%rax
    402c:	48 89 df             	mov    %rbx,%rdi
    402f:	48 89 eb             	mov    %rbp,%rbx
    4032:	e8 89 ed ff ff       	callq  2dc0 <_ZdlPv@plt>
    4037:	48 8b 44 24 10       	mov    0x10(%rsp),%rax
    403c:	48 8b bc 24 00 01 00 	mov    0x100(%rsp),%rdi
    4043:	00 
    4044:	48 83 c0 10          	add    $0x10,%rax
    4048:	48 39 c7             	cmp    %rax,%rdi
    404b:	74 05                	je     4052 <main+0xed2>
    404d:	e8 6e ed ff ff       	callq  2dc0 <_ZdlPv@plt>
    4052:	48 8b 04 24          	mov    (%rsp),%rax
    4056:	48 8b bc 24 e0 00 00 	mov    0xe0(%rsp),%rdi
    405d:	00 
    405e:	48 83 c0 10          	add    $0x10,%rax
    4062:	48 39 c7             	cmp    %rax,%rdi
    4065:	74 05                	je     406c <main+0xeec>
    4067:	e8 54 ed ff ff       	callq  2dc0 <_ZdlPv@plt>
    406c:	48 89 df             	mov    %rbx,%rdi
    406f:	e8 7c ef ff ff       	callq  2ff0 <_Unwind_Resume@plt>
    4074:	48 8b 7c 24 08       	mov    0x8(%rsp),%rdi
    4079:	48 89 c3             	mov    %rax,%rbx
    407c:	c5 f8 77             	vzeroupper 
    407f:	e8 2c ed ff ff       	callq  2db0 <_ZNSt13random_device7_M_finiEv@plt>
    4084:	eb b1                	jmp    4037 <main+0xeb7>
    4086:	80 bc 24 9c 00 00 00 	cmpb   $0x0,0x9c(%rsp)
    408d:	00 
    408e:	0f 85 88 f8 ff ff    	jne    391c <main+0x79c>
    4094:	48 8d 35 3d 87 00 00 	lea    0x873d(%rip),%rsi        # c7d8 <_IO_stdin_used+0x118>
    409b:	48 8d 3d 7e cf 20 00 	lea    0x20cf7e(%rip),%rdi        # 211020 <_ZSt4cout@@GLIBCXX_3.4>
    40a2:	e8 29 ed ff ff       	callq  2dd0 <_ZStlsISt11char_traitsIcEERSt13basic_ostreamIcT_ES5_PKc@plt>
    40a7:	e9 4f ff ff ff       	jmpq   3ffb <main+0xe7b>
    40ac:	48 8d 0d 2d 95 00 00 	lea    0x952d(%rip),%rcx        # d5e0 <_ZZN6matrix6sparse9CSRMatrixIifEC4ERKNSt7__cxx1112basic_stringIcSt11char_traitsIcESaIcEEEN4util8PlatformEE19__PRETTY_FUNCTION__>
    40b3:	ba 65 00 00 00       	mov    $0x65,%edx
    40b8:	48 8d 35 f8 8c 00 00 	lea    0x8cf8(%rip),%rsi        # cdb7 <_ZTSSt5_BindIFMN6matrix6sparse9COOMatrixIidEEFvPdPKdEPS3_St12_PlaceholderILi1EESA_ILi2EEEE+0x57>
    40bf:	48 8d 3d 53 8d 00 00 	lea    0x8d53(%rip),%rdi        # ce19 <_ZTSSt5_BindIFMN6matrix6sparse9COOMatrixIidEEFvPdPKdEPS3_St12_PlaceholderILi1EESA_ILi2EEEE+0xb9>
    40c6:	e8 35 ec ff ff       	callq  2d00 <__assert_fail@plt>
    40cb:	48 8d 0d 0e 95 00 00 	lea    0x950e(%rip),%rcx        # d5e0 <_ZZN6matrix6sparse9CSRMatrixIifEC4ERKNSt7__cxx1112basic_stringIcSt11char_traitsIcESaIcEEEN4util8PlatformEE19__PRETTY_FUNCTION__>
    40d2:	ba 64 00 00 00       	mov    $0x64,%edx
    40d7:	48 8d 35 d9 8c 00 00 	lea    0x8cd9(%rip),%rsi        # cdb7 <_ZTSSt5_BindIFMN6matrix6sparse9COOMatrixIidEEFvPdPKdEPS3_St12_PlaceholderILi1EESA_ILi2EEEE+0x57>
    40de:	48 8d 3d 24 8d 00 00 	lea    0x8d24(%rip),%rdi        # ce09 <_ZTSSt5_BindIFMN6matrix6sparse9COOMatrixIidEEFvPdPKdEPS3_St12_PlaceholderILi1EESA_ILi2EEEE+0xa9>
    40e5:	e8 16 ec ff ff       	callq  2d00 <__assert_fail@plt>
    40ea:	49 89 c4             	mov    %rax,%r12
    40ed:	48 89 ef             	mov    %rbp,%rdi
    40f0:	c5 f8 77             	vzeroupper 
    40f3:	e8 d8 08 00 00       	callq  49d0 <_ZN4util2io3MMFIifED1Ev>
    40f8:	48 8b 43 48          	mov    0x48(%rbx),%rax
    40fc:	48 85 c0             	test   %rax,%rax
    40ff:	74 0e                	je     410f <main+0xf8f>
    4101:	48 8d 7b 38          	lea    0x38(%rbx),%rdi
    4105:	ba 03 00 00 00       	mov    $0x3,%edx
    410a:	48 89 fe             	mov    %rdi,%rsi
    410d:	ff d0                	callq  *%rax
    410f:	48 89 df             	mov    %rbx,%rdi
    4112:	4c 89 e3             	mov    %r12,%rbx
    4115:	e8 a6 ec ff ff       	callq  2dc0 <_ZdlPv@plt>
    411a:	e9 18 ff ff ff       	jmpq   4037 <main+0xeb7>
    411f:	48 89 c5             	mov    %rax,%rbp
    4122:	c5 f8 77             	vzeroupper 
    4125:	e9 eb fe ff ff       	jmpq   4015 <main+0xe95>
    412a:	48 89 c3             	mov    %rax,%rbx
    412d:	c5 f8 77             	vzeroupper 
    4130:	e9 02 ff ff ff       	jmpq   4037 <main+0xeb7>
    4135:	48 8b bc 24 b0 14 00 	mov    0x14b0(%rsp),%rdi
    413c:	00 
    413d:	48 83 c5 10          	add    $0x10,%rbp
    4141:	48 89 c3             	mov    %rax,%rbx
    4144:	48 39 ef             	cmp    %rbp,%rdi
    4147:	74 2c                	je     4175 <main+0xff5>
    4149:	c5 f8 77             	vzeroupper 
    414c:	e8 6f ec ff ff       	callq  2dc0 <_ZdlPv@plt>
    4151:	e9 e1 fe ff ff       	jmpq   4037 <main+0xeb7>
    4156:	48 8d 0d c3 93 00 00 	lea    0x93c3(%rip),%rcx        # d520 <_ZZN6matrix6sparse9COOMatrixIifEC4ERKNSt7__cxx1112basic_stringIcSt11char_traitsIcESaIcEEEN4util8PlatformEE19__PRETTY_FUNCTION__>
    415d:	ba 38 00 00 00       	mov    $0x38,%edx
    4162:	48 8d 35 fa 87 00 00 	lea    0x87fa(%rip),%rsi        # c963 <_IO_stdin_used+0x2a3>
    4169:	48 8d 3d 02 88 00 00 	lea    0x8802(%rip),%rdi        # c972 <_IO_stdin_used+0x2b2>
    4170:	e8 8b eb ff ff       	callq  2d00 <__assert_fail@plt>
    4175:	c5 f8 77             	vzeroupper 
    4178:	e9 ba fe ff ff       	jmpq   4037 <main+0xeb7>
    417d:	49 89 c4             	mov    %rax,%r12
    4180:	c5 f8 77             	vzeroupper 
    4183:	e9 70 ff ff ff       	jmpq   40f8 <main+0xf78>
    4188:	e8 73 ec ff ff       	callq  2e00 <__stack_chk_fail@plt>
    418d:	0f 1f 00             	nopl   (%rax)

0000000000004190 <_GLOBAL__sub_I_send_local_addrs>:
    4190:	48 83 ec 08          	sub    $0x8,%rsp
    4194:	48 8d 3d c1 d0 20 00 	lea    0x20d0c1(%rip),%rdi        # 21125c <_ZStL8__ioinit>
    419b:	e8 70 ed ff ff       	callq  2f10 <_ZNSt8ios_base4InitC1Ev@plt>
    41a0:	48 8b 3d 51 ce 20 00 	mov    0x20ce51(%rip),%rdi        # 210ff8 <_ZNSt8ios_base4InitD1Ev@GLIBCXX_3.4>
    41a7:	48 83 c4 08          	add    $0x8,%rsp
    41ab:	48 8d 15 56 ce 20 00 	lea    0x20ce56(%rip),%rdx        # 211008 <__dso_handle>
    41b2:	48 8d 35 a3 d0 20 00 	lea    0x20d0a3(%rip),%rsi        # 21125c <_ZStL8__ioinit>
    41b9:	e9 c2 eb ff ff       	jmpq   2d80 <__cxa_atexit@plt>
    41be:	66 90                	xchg   %ax,%ax

00000000000041c0 <_start>:
    41c0:	31 ed                	xor    %ebp,%ebp
    41c2:	49 89 d1             	mov    %rdx,%r9
    41c5:	5e                   	pop    %rsi
    41c6:	48 89 e2             	mov    %rsp,%rdx
    41c9:	48 83 e4 f0          	and    $0xfffffffffffffff0,%rsp
    41cd:	50                   	push   %rax
    41ce:	54                   	push   %rsp
    41cf:	4c 8d 05 ca 84 00 00 	lea    0x84ca(%rip),%r8        # c6a0 <__libc_csu_fini>
    41d6:	48 8d 0d 53 84 00 00 	lea    0x8453(%rip),%rcx        # c630 <__libc_csu_init>
    41dd:	48 8d 3d 9c ef ff ff 	lea    -0x1064(%rip),%rdi        # 3180 <main>
    41e4:	ff 15 f6 cd 20 00    	callq  *0x20cdf6(%rip)        # 210fe0 <__libc_start_main@GLIBC_2.2.5>
    41ea:	f4                   	hlt    
    41eb:	0f 1f 44 00 00       	nopl   0x0(%rax,%rax,1)

00000000000041f0 <deregister_tm_clones>:
    41f0:	48 8d 3d 29 ce 20 00 	lea    0x20ce29(%rip),%rdi        # 211020 <_ZSt4cout@@GLIBCXX_3.4>
    41f7:	55                   	push   %rbp
    41f8:	48 8d 05 21 ce 20 00 	lea    0x20ce21(%rip),%rax        # 211020 <_ZSt4cout@@GLIBCXX_3.4>
    41ff:	48 39 f8             	cmp    %rdi,%rax
    4202:	48 89 e5             	mov    %rsp,%rbp
    4205:	74 19                	je     4220 <deregister_tm_clones+0x30>
    4207:	48 8b 05 ca cd 20 00 	mov    0x20cdca(%rip),%rax        # 210fd8 <_ITM_deregisterTMCloneTable>
    420e:	48 85 c0             	test   %rax,%rax
    4211:	74 0d                	je     4220 <deregister_tm_clones+0x30>
    4213:	5d                   	pop    %rbp
    4214:	ff e0                	jmpq   *%rax
    4216:	66 2e 0f 1f 84 00 00 	nopw   %cs:0x0(%rax,%rax,1)
    421d:	00 00 00 
    4220:	5d                   	pop    %rbp
    4221:	c3                   	retq   
    4222:	0f 1f 40 00          	nopl   0x0(%rax)
    4226:	66 2e 0f 1f 84 00 00 	nopw   %cs:0x0(%rax,%rax,1)
    422d:	00 00 00 

0000000000004230 <register_tm_clones>:
    4230:	48 8d 3d e9 cd 20 00 	lea    0x20cde9(%rip),%rdi        # 211020 <_ZSt4cout@@GLIBCXX_3.4>
    4237:	48 8d 35 e2 cd 20 00 	lea    0x20cde2(%rip),%rsi        # 211020 <_ZSt4cout@@GLIBCXX_3.4>
    423e:	55                   	push   %rbp
    423f:	48 29 fe             	sub    %rdi,%rsi
    4242:	48 89 e5             	mov    %rsp,%rbp
    4245:	48 c1 fe 03          	sar    $0x3,%rsi
    4249:	48 89 f0             	mov    %rsi,%rax
    424c:	48 c1 e8 3f          	shr    $0x3f,%rax
    4250:	48 01 c6             	add    %rax,%rsi
    4253:	48 d1 fe             	sar    %rsi
    4256:	74 18                	je     4270 <register_tm_clones+0x40>
    4258:	48 8b 05 91 cd 20 00 	mov    0x20cd91(%rip),%rax        # 210ff0 <_ITM_registerTMCloneTable>
    425f:	48 85 c0             	test   %rax,%rax
    4262:	74 0c                	je     4270 <register_tm_clones+0x40>
    4264:	5d                   	pop    %rbp
    4265:	ff e0                	jmpq   *%rax
    4267:	66 0f 1f 84 00 00 00 	nopw   0x0(%rax,%rax,1)
    426e:	00 00 
    4270:	5d                   	pop    %rbp
    4271:	c3                   	retq   
    4272:	0f 1f 40 00          	nopl   0x0(%rax)
    4276:	66 2e 0f 1f 84 00 00 	nopw   %cs:0x0(%rax,%rax,1)
    427d:	00 00 00 

0000000000004280 <__do_global_dtors_aux>:
    4280:	80 3d c9 cf 20 00 00 	cmpb   $0x0,0x20cfc9(%rip)        # 211250 <completed.7698>
    4287:	75 2f                	jne    42b8 <__do_global_dtors_aux+0x38>
    4289:	48 83 3d 37 cd 20 00 	cmpq   $0x0,0x20cd37(%rip)        # 210fc8 <__cxa_finalize@GLIBC_2.2.5>
    4290:	00 
    4291:	55                   	push   %rbp
    4292:	48 89 e5             	mov    %rsp,%rbp
    4295:	74 0c                	je     42a3 <__do_global_dtors_aux+0x23>
    4297:	48 8b 3d 6a cd 20 00 	mov    0x20cd6a(%rip),%rdi        # 211008 <__dso_handle>
    429e:	e8 dd ed ff ff       	callq  3080 <__cxa_finalize@plt>
    42a3:	e8 48 ff ff ff       	callq  41f0 <deregister_tm_clones>
    42a8:	c6 05 a1 cf 20 00 01 	movb   $0x1,0x20cfa1(%rip)        # 211250 <completed.7698>
    42af:	5d                   	pop    %rbp
    42b0:	c3                   	retq   
    42b1:	0f 1f 80 00 00 00 00 	nopl   0x0(%rax)
    42b8:	f3 c3                	repz retq 
    42ba:	66 0f 1f 44 00 00    	nopw   0x0(%rax,%rax,1)

00000000000042c0 <frame_dummy>:
    42c0:	55                   	push   %rbp
    42c1:	48 89 e5             	mov    %rsp,%rbp
    42c4:	5d                   	pop    %rbp
    42c5:	e9 66 ff ff ff       	jmpq   4230 <register_tm_clones>
    42ca:	66 0f 1f 44 00 00    	nopw   0x0(%rax,%rax,1)

00000000000042d0 <_ZN4util2io6DoReadERSt14basic_ifstreamIcSt11char_traitsIcEERSt6vectorINSt7__cxx1112basic_stringIcS3_SaIcEEESaISA_EE>:
    42d0:	41 57                	push   %r15
    42d2:	41 56                	push   %r14
    42d4:	41 55                	push   %r13
    42d6:	41 54                	push   %r12
    42d8:	55                   	push   %rbp
    42d9:	53                   	push   %rbx
    42da:	48 81 ec d8 00 00 00 	sub    $0xd8,%rsp
    42e1:	64 48 8b 04 25 28 00 	mov    %fs:0x28,%rax
    42e8:	00 00 
    42ea:	48 89 84 24 c8 00 00 	mov    %rax,0xc8(%rsp)
    42f1:	00 
    42f2:	31 c0                	xor    %eax,%eax
    42f4:	48 8d 6c 24 60       	lea    0x60(%rsp),%rbp
    42f9:	c6 44 24 70 00       	movb   $0x0,0x70(%rsp)
    42fe:	48 c7 44 24 68 00 00 	movq   $0x0,0x68(%rsp)
    4305:	00 00 
    4307:	48 8d 45 10          	lea    0x10(%rbp),%rax
    430b:	48 89 44 24 60       	mov    %rax,0x60(%rsp)
    4310:	48 8b 07             	mov    (%rdi),%rax
    4313:	48 8b 40 e8          	mov    -0x18(%rax),%rax
    4317:	48 8b 9c 07 f0 00 00 	mov    0xf0(%rdi,%rax,1),%rbx
    431e:	00 
    431f:	48 85 db             	test   %rbx,%rbx
    4322:	0f 84 fb 05 00 00    	je     4923 <_ZN4util2io6DoReadERSt14basic_ifstreamIcSt11char_traitsIcEERSt6vectorINSt7__cxx1112basic_stringIcS3_SaIcEEESaISA_EE+0x653>
    4328:	80 7b 38 00          	cmpb   $0x0,0x38(%rbx)
    432c:	49 89 fc             	mov    %rdi,%r12
    432f:	49 89 f7             	mov    %rsi,%r15
    4332:	74 64                	je     4398 <_ZN4util2io6DoReadERSt14basic_ifstreamIcSt11char_traitsIcEERSt6vectorINSt7__cxx1112basic_stringIcS3_SaIcEEESaISA_EE+0xc8>
    4334:	0f be 53 43          	movsbl 0x43(%rbx),%edx
    4338:	48 89 ee             	mov    %rbp,%rsi
    433b:	4c 89 e7             	mov    %r12,%rdi
    433e:	e8 ed ec ff ff       	callq  3030 <_ZSt7getlineIcSt11char_traitsIcESaIcEERSt13basic_istreamIT_T0_ES7_RNSt7__cxx1112basic_stringIS4_S5_T1_EES4_@plt>
    4343:	48 89 c2             	mov    %rax,%rdx
    4346:	48 8b 00             	mov    (%rax),%rax
    4349:	31 db                	xor    %ebx,%ebx
    434b:	48 8b 40 e8          	mov    -0x18(%rax),%rax
    434f:	f6 44 02 20 02       	testb  $0x2,0x20(%rdx,%rax,1)
    4354:	74 7a                	je     43d0 <_ZN4util2io6DoReadERSt14basic_ifstreamIcSt11char_traitsIcEERSt6vectorINSt7__cxx1112basic_stringIcS3_SaIcEEESaISA_EE+0x100>
    4356:	48 8b 7c 24 60       	mov    0x60(%rsp),%rdi
    435b:	48 83 c5 10          	add    $0x10,%rbp
    435f:	48 39 ef             	cmp    %rbp,%rdi
    4362:	74 05                	je     4369 <_ZN4util2io6DoReadERSt14basic_ifstreamIcSt11char_traitsIcEERSt6vectorINSt7__cxx1112basic_stringIcS3_SaIcEEESaISA_EE+0x99>
    4364:	e8 57 ea ff ff       	callq  2dc0 <_ZdlPv@plt>
    4369:	48 8b b4 24 c8 00 00 	mov    0xc8(%rsp),%rsi
    4370:	00 
    4371:	64 48 33 34 25 28 00 	xor    %fs:0x28,%rsi
    4378:	00 00 
    437a:	89 d8                	mov    %ebx,%eax
    437c:	0f 85 c1 05 00 00    	jne    4943 <_ZN4util2io6DoReadERSt14basic_ifstreamIcSt11char_traitsIcEERSt6vectorINSt7__cxx1112basic_stringIcS3_SaIcEEESaISA_EE+0x673>
    4382:	48 81 c4 d8 00 00 00 	add    $0xd8,%rsp
    4389:	5b                   	pop    %rbx
    438a:	5d                   	pop    %rbp
    438b:	41 5c                	pop    %r12
    438d:	41 5d                	pop    %r13
    438f:	41 5e                	pop    %r14
    4391:	41 5f                	pop    %r15
    4393:	c3                   	retq   
    4394:	0f 1f 40 00          	nopl   0x0(%rax)
    4398:	48 89 df             	mov    %rbx,%rdi
    439b:	e8 90 ea ff ff       	callq  2e30 <_ZNKSt5ctypeIcE13_M_widen_initEv@plt>
    43a0:	48 8b 03             	mov    (%rbx),%rax
    43a3:	48 8d 0d 16 06 00 00 	lea    0x616(%rip),%rcx        # 49c0 <_ZNKSt5ctypeIcE8do_widenEc>
    43aa:	ba 0a 00 00 00       	mov    $0xa,%edx
    43af:	48 8b 40 30          	mov    0x30(%rax),%rax
    43b3:	48 39 c8             	cmp    %rcx,%rax
    43b6:	74 80                	je     4338 <_ZN4util2io6DoReadERSt14basic_ifstreamIcSt11char_traitsIcEERSt6vectorINSt7__cxx1112basic_stringIcS3_SaIcEEESaISA_EE+0x68>
    43b8:	be 0a 00 00 00       	mov    $0xa,%esi
    43bd:	48 89 df             	mov    %rbx,%rdi
    43c0:	ff d0                	callq  *%rax
    43c2:	0f be d0             	movsbl %al,%edx
    43c5:	e9 6e ff ff ff       	jmpq   4338 <_ZN4util2io6DoReadERSt14basic_ifstreamIcSt11char_traitsIcEERSt6vectorINSt7__cxx1112basic_stringIcS3_SaIcEEESaISA_EE+0x68>
    43ca:	66 0f 1f 44 00 00    	nopw   0x0(%rax,%rax,1)
    43d0:	31 d2                	xor    %edx,%edx
    43d2:	b9 02 00 00 00       	mov    $0x2,%ecx
    43d7:	48 8d 35 4c 84 00 00 	lea    0x844c(%rip),%rsi        # c82a <_IO_stdin_used+0x16a>
    43de:	48 89 ef             	mov    %rbp,%rdi
    43e1:	e8 aa eb ff ff       	callq  2f90 <_ZNKSt7__cxx1112basic_stringIcSt11char_traitsIcESaIcEE17find_first_not_ofEPKcmm@plt>
    43e6:	48 83 f8 ff          	cmp    $0xffffffffffffffff,%rax
    43ea:	0f 84 b0 04 00 00    	je     48a0 <_ZN4util2io6DoReadERSt14basic_ifstreamIcSt11char_traitsIcEERSt6vectorINSt7__cxx1112basic_stringIcS3_SaIcEEESaISA_EE+0x5d0>
    43f0:	48 8b 5c 24 68       	mov    0x68(%rsp),%rbx
    43f5:	48 85 c0             	test   %rax,%rax
    43f8:	74 19                	je     4413 <_ZN4util2io6DoReadERSt14basic_ifstreamIcSt11char_traitsIcEERSt6vectorINSt7__cxx1112basic_stringIcS3_SaIcEEESaISA_EE+0x143>
    43fa:	48 39 d8             	cmp    %rbx,%rax
    43fd:	48 89 da             	mov    %rbx,%rdx
    4400:	48 89 ef             	mov    %rbp,%rdi
    4403:	48 0f 46 d0          	cmovbe %rax,%rdx
    4407:	31 f6                	xor    %esi,%esi
    4409:	e8 32 ea ff ff       	callq  2e40 <_ZNSt7__cxx1112basic_stringIcSt11char_traitsIcESaIcEE8_M_eraseEmm@plt>
    440e:	48 8b 5c 24 68       	mov    0x68(%rsp),%rbx
    4413:	b9 02 00 00 00       	mov    $0x2,%ecx
    4418:	48 c7 c2 ff ff ff ff 	mov    $0xffffffffffffffff,%rdx
    441f:	48 89 ef             	mov    %rbp,%rdi
    4422:	48 83 eb 01          	sub    $0x1,%rbx
    4426:	48 8d 35 fd 83 00 00 	lea    0x83fd(%rip),%rsi        # c82a <_IO_stdin_used+0x16a>
    442d:	e8 1e eb ff ff       	callq  2f50 <_ZNKSt7__cxx1112basic_stringIcSt11char_traitsIcESaIcEE16find_last_not_ofEPKcmm@plt>
    4432:	48 c7 c2 ff ff ff ff 	mov    $0xffffffffffffffff,%rdx
    4439:	b9 02 00 00 00       	mov    $0x2,%ecx
    443e:	48 89 ef             	mov    %rbp,%rdi
    4441:	48 8d 35 e2 83 00 00 	lea    0x83e2(%rip),%rsi        # c82a <_IO_stdin_used+0x16a>
    4448:	48 29 c3             	sub    %rax,%rbx
    444b:	e8 00 eb ff ff       	callq  2f50 <_ZNKSt7__cxx1112basic_stringIcSt11char_traitsIcESaIcEE16find_last_not_ofEPKcmm@plt>
    4450:	48 8b 54 24 68       	mov    0x68(%rsp),%rdx
    4455:	48 8d 70 01          	lea    0x1(%rax),%rsi
    4459:	48 39 d6             	cmp    %rdx,%rsi
    445c:	0f 87 f2 04 00 00    	ja     4954 <_ZN4util2io6DoReadERSt14basic_ifstreamIcSt11char_traitsIcEERSt6vectorINSt7__cxx1112basic_stringIcS3_SaIcEEESaISA_EE+0x684>
    4462:	48 83 fb ff          	cmp    $0xffffffffffffffff,%rbx
    4466:	0f 84 1c 04 00 00    	je     4888 <_ZN4util2io6DoReadERSt14basic_ifstreamIcSt11char_traitsIcEERSt6vectorINSt7__cxx1112basic_stringIcS3_SaIcEEESaISA_EE+0x5b8>
    446c:	48 85 db             	test   %rbx,%rbx
    446f:	74 12                	je     4483 <_ZN4util2io6DoReadERSt14basic_ifstreamIcSt11char_traitsIcEERSt6vectorINSt7__cxx1112basic_stringIcS3_SaIcEEESaISA_EE+0x1b3>
    4471:	48 29 f2             	sub    %rsi,%rdx
    4474:	48 89 ef             	mov    %rbp,%rdi
    4477:	48 39 da             	cmp    %rbx,%rdx
    447a:	48 0f 47 d3          	cmova  %rbx,%rdx
    447e:	e8 bd e9 ff ff       	callq  2e40 <_ZNSt7__cxx1112basic_stringIcSt11char_traitsIcESaIcEE8_M_eraseEmm@plt>
    4483:	48 8d 84 24 80 00 00 	lea    0x80(%rsp),%rax
    448a:	00 
    448b:	c5 f9 ef c0          	vpxor  %xmm0,%xmm0,%xmm0
    448f:	48 8d b4 24 90 00 00 	lea    0x90(%rsp),%rsi
    4496:	00 
    4497:	48 c7 84 24 88 00 00 	movq   $0x1,0x88(%rsp)
    449e:	00 01 00 00 00 
    44a3:	48 89 44 24 08       	mov    %rax,0x8(%rsp)
    44a8:	b8 20 00 00 00       	mov    $0x20,%eax
    44ad:	45 31 ed             	xor    %r13d,%r13d
    44b0:	b9 01 00 00 00       	mov    $0x1,%ecx
    44b5:	66 89 84 24 90 00 00 	mov    %ax,0x90(%rsp)
    44bc:	00 
    44bd:	48 8d 44 24 30       	lea    0x30(%rsp),%rax
    44c2:	4c 8d a4 24 a0 00 00 	lea    0xa0(%rsp),%r12
    44c9:	00 
    44ca:	48 89 04 24          	mov    %rax,(%rsp)
    44ce:	48 8d 44 24 40       	lea    0x40(%rsp),%rax
    44d3:	48 89 44 24 18       	mov    %rax,0x18(%rsp)
    44d8:	48 8d 44 24 38       	lea    0x38(%rsp),%rax
    44dd:	48 89 b4 24 80 00 00 	mov    %rsi,0x80(%rsp)
    44e4:	00 
    44e5:	c5 f8 29 44 24 40    	vmovaps %xmm0,0x40(%rsp)
    44eb:	48 c7 44 24 50 00 00 	movq   $0x0,0x50(%rsp)
    44f2:	00 00 
    44f4:	48 89 44 24 20       	mov    %rax,0x20(%rsp)
    44f9:	eb 2c                	jmp    4527 <_ZN4util2io6DoReadERSt14basic_ifstreamIcSt11char_traitsIcEERSt6vectorINSt7__cxx1112basic_stringIcS3_SaIcEEESaISA_EE+0x257>
    44fb:	0f 1f 44 00 00       	nopl   0x0(%rax,%rax,1)
    4500:	e8 bb e8 ff ff       	callq  2dc0 <_ZdlPv@plt>
    4505:	4c 39 eb             	cmp    %r13,%rbx
    4508:	49 0f 42 dd          	cmovb  %r13,%rbx
    450c:	48 3b 5c 24 68       	cmp    0x68(%rsp),%rbx
    4511:	0f 83 e8 00 00 00    	jae    45ff <_ZN4util2io6DoReadERSt14basic_ifstreamIcSt11char_traitsIcEERSt6vectorINSt7__cxx1112basic_stringIcS3_SaIcEEESaISA_EE+0x32f>
    4517:	48 8b 8c 24 88 00 00 	mov    0x88(%rsp),%rcx
    451e:	00 
    451f:	48 8b b4 24 80 00 00 	mov    0x80(%rsp),%rsi
    4526:	00 
    4527:	4c 89 ea             	mov    %r13,%rdx
    452a:	48 89 ef             	mov    %rbp,%rdi
    452d:	e8 ae ea ff ff       	callq  2fe0 <_ZNKSt7__cxx1112basic_stringIcSt11char_traitsIcESaIcEE4findEPKcmm@plt>
    4532:	48 89 c3             	mov    %rax,%rbx
    4535:	48 83 f8 ff          	cmp    $0xffffffffffffffff,%rax
    4539:	0f 84 d1 01 00 00    	je     4710 <_ZN4util2io6DoReadERSt14basic_ifstreamIcSt11char_traitsIcEERSt6vectorINSt7__cxx1112basic_stringIcS3_SaIcEEESaISA_EE+0x440>
    453f:	48 8b 4c 24 68       	mov    0x68(%rsp),%rcx
    4544:	48 89 d8             	mov    %rbx,%rax
    4547:	4c 29 e8             	sub    %r13,%rax
    454a:	4c 39 e9             	cmp    %r13,%rcx
    454d:	0f 82 68 03 00 00    	jb     48bb <_ZN4util2io6DoReadERSt14basic_ifstreamIcSt11char_traitsIcEERSt6vectorINSt7__cxx1112basic_stringIcS3_SaIcEEESaISA_EE+0x5eb>
    4553:	4c 8b 74 24 60       	mov    0x60(%rsp),%r14
    4558:	4c 29 e9             	sub    %r13,%rcx
    455b:	49 8d 54 24 10       	lea    0x10(%r12),%rdx
    4560:	48 89 94 24 a0 00 00 	mov    %rdx,0xa0(%rsp)
    4567:	00 
    4568:	4d 01 ee             	add    %r13,%r14
    456b:	48 39 c1             	cmp    %rax,%rcx
    456e:	48 0f 46 c1          	cmovbe %rcx,%rax
    4572:	49 89 c5             	mov    %rax,%r13
    4575:	4c 89 f0             	mov    %r14,%rax
    4578:	4c 01 e8             	add    %r13,%rax
    457b:	74 09                	je     4586 <_ZN4util2io6DoReadERSt14basic_ifstreamIcSt11char_traitsIcEERSt6vectorINSt7__cxx1112basic_stringIcS3_SaIcEEESaISA_EE+0x2b6>
    457d:	4d 85 f6             	test   %r14,%r14
    4580:	0f 84 c2 03 00 00    	je     4948 <_ZN4util2io6DoReadERSt14basic_ifstreamIcSt11char_traitsIcEERSt6vectorINSt7__cxx1112basic_stringIcS3_SaIcEEESaISA_EE+0x678>
    4586:	4c 89 6c 24 30       	mov    %r13,0x30(%rsp)
    458b:	49 83 fd 0f          	cmp    $0xf,%r13
    458f:	0f 87 1b 02 00 00    	ja     47b0 <_ZN4util2io6DoReadERSt14basic_ifstreamIcSt11char_traitsIcEERSt6vectorINSt7__cxx1112basic_stringIcS3_SaIcEEESaISA_EE+0x4e0>
    4595:	49 83 fd 01          	cmp    $0x1,%r13
    4599:	0f 85 59 02 00 00    	jne    47f8 <_ZN4util2io6DoReadERSt14basic_ifstreamIcSt11char_traitsIcEERSt6vectorINSt7__cxx1112basic_stringIcS3_SaIcEEESaISA_EE+0x528>
    459f:	41 0f b6 06          	movzbl (%r14),%eax
    45a3:	88 84 24 b0 00 00 00 	mov    %al,0xb0(%rsp)
    45aa:	49 8d 44 24 10       	lea    0x10(%r12),%rax
    45af:	4c 89 ac 24 a8 00 00 	mov    %r13,0xa8(%rsp)
    45b6:	00 
    45b7:	42 c6 04 28 00       	movb   $0x0,(%rax,%r13,1)
    45bc:	48 83 bc 24 a8 00 00 	cmpq   $0x0,0xa8(%rsp)
    45c3:	00 00 
    45c5:	0f 85 55 01 00 00    	jne    4720 <_ZN4util2io6DoReadERSt14basic_ifstreamIcSt11char_traitsIcEERSt6vectorINSt7__cxx1112basic_stringIcS3_SaIcEEESaISA_EE+0x450>
    45cb:	48 8b 8c 24 88 00 00 	mov    0x88(%rsp),%rcx
    45d2:	00 
    45d3:	48 8b bc 24 a0 00 00 	mov    0xa0(%rsp),%rdi
    45da:	00 
    45db:	49 8d 44 24 10       	lea    0x10(%r12),%rax
    45e0:	4c 8d 2c 0b          	lea    (%rbx,%rcx,1),%r13
    45e4:	48 39 c7             	cmp    %rax,%rdi
    45e7:	0f 85 13 ff ff ff    	jne    4500 <_ZN4util2io6DoReadERSt14basic_ifstreamIcSt11char_traitsIcEERSt6vectorINSt7__cxx1112basic_stringIcS3_SaIcEEESaISA_EE+0x230>
    45ed:	4c 39 eb             	cmp    %r13,%rbx
    45f0:	49 0f 42 dd          	cmovb  %r13,%rbx
    45f4:	48 39 5c 24 68       	cmp    %rbx,0x68(%rsp)
    45f9:	0f 87 20 ff ff ff    	ja     451f <_ZN4util2io6DoReadERSt14basic_ifstreamIcSt11char_traitsIcEERSt6vectorINSt7__cxx1112basic_stringIcS3_SaIcEEESaISA_EE+0x24f>
    45ff:	48 8b 44 24 40       	mov    0x40(%rsp),%rax
    4604:	4d 8b 2f             	mov    (%r15),%r13
    4607:	c5 f9 ef c0          	vpxor  %xmm0,%xmm0,%xmm0
    460b:	4d 8b 67 08          	mov    0x8(%r15),%r12
    460f:	49 89 07             	mov    %rax,(%r15)
    4612:	48 8b 44 24 48       	mov    0x48(%rsp),%rax
    4617:	c5 f8 29 44 24 40    	vmovaps %xmm0,0x40(%rsp)
    461d:	49 89 47 08          	mov    %rax,0x8(%r15)
    4621:	48 8b 44 24 50       	mov    0x50(%rsp),%rax
    4626:	48 c7 44 24 50 00 00 	movq   $0x0,0x50(%rsp)
    462d:	00 00 
    462f:	49 89 47 10          	mov    %rax,0x10(%r15)
    4633:	4d 39 e5             	cmp    %r12,%r13
    4636:	74 26                	je     465e <_ZN4util2io6DoReadERSt14basic_ifstreamIcSt11char_traitsIcEERSt6vectorINSt7__cxx1112basic_stringIcS3_SaIcEEESaISA_EE+0x38e>
    4638:	4c 89 eb             	mov    %r13,%rbx
    463b:	0f 1f 44 00 00       	nopl   0x0(%rax,%rax,1)
    4640:	48 8b 3b             	mov    (%rbx),%rdi
    4643:	48 8d 43 10          	lea    0x10(%rbx),%rax
    4647:	48 39 c7             	cmp    %rax,%rdi
    464a:	0f 84 88 00 00 00    	je     46d8 <_ZN4util2io6DoReadERSt14basic_ifstreamIcSt11char_traitsIcEERSt6vectorINSt7__cxx1112basic_stringIcS3_SaIcEEESaISA_EE+0x408>
    4650:	e8 6b e7 ff ff       	callq  2dc0 <_ZdlPv@plt>
    4655:	48 83 c3 20          	add    $0x20,%rbx
    4659:	49 39 dc             	cmp    %rbx,%r12
    465c:	75 e2                	jne    4640 <_ZN4util2io6DoReadERSt14basic_ifstreamIcSt11char_traitsIcEERSt6vectorINSt7__cxx1112basic_stringIcS3_SaIcEEESaISA_EE+0x370>
    465e:	4d 85 ed             	test   %r13,%r13
    4661:	74 08                	je     466b <_ZN4util2io6DoReadERSt14basic_ifstreamIcSt11char_traitsIcEERSt6vectorINSt7__cxx1112basic_stringIcS3_SaIcEEESaISA_EE+0x39b>
    4663:	4c 89 ef             	mov    %r13,%rdi
    4666:	e8 55 e7 ff ff       	callq  2dc0 <_ZdlPv@plt>
    466b:	4c 8b 64 24 48       	mov    0x48(%rsp),%r12
    4670:	48 8b 5c 24 40       	mov    0x40(%rsp),%rbx
    4675:	49 39 dc             	cmp    %rbx,%r12
    4678:	74 25                	je     469f <_ZN4util2io6DoReadERSt14basic_ifstreamIcSt11char_traitsIcEERSt6vectorINSt7__cxx1112basic_stringIcS3_SaIcEEESaISA_EE+0x3cf>
    467a:	66 0f 1f 44 00 00    	nopw   0x0(%rax,%rax,1)
    4680:	48 8b 3b             	mov    (%rbx),%rdi
    4683:	48 8d 43 10          	lea    0x10(%rbx),%rax
    4687:	48 39 c7             	cmp    %rax,%rdi
    468a:	74 6c                	je     46f8 <_ZN4util2io6DoReadERSt14basic_ifstreamIcSt11char_traitsIcEERSt6vectorINSt7__cxx1112basic_stringIcS3_SaIcEEESaISA_EE+0x428>
    468c:	e8 2f e7 ff ff       	callq  2dc0 <_ZdlPv@plt>
    4691:	48 83 c3 20          	add    $0x20,%rbx
    4695:	49 39 dc             	cmp    %rbx,%r12
    4698:	75 e6                	jne    4680 <_ZN4util2io6DoReadERSt14basic_ifstreamIcSt11char_traitsIcEERSt6vectorINSt7__cxx1112basic_stringIcS3_SaIcEEESaISA_EE+0x3b0>
    469a:	48 8b 5c 24 40       	mov    0x40(%rsp),%rbx
    469f:	48 85 db             	test   %rbx,%rbx
    46a2:	74 08                	je     46ac <_ZN4util2io6DoReadERSt14basic_ifstreamIcSt11char_traitsIcEERSt6vectorINSt7__cxx1112basic_stringIcS3_SaIcEEESaISA_EE+0x3dc>
    46a4:	48 89 df             	mov    %rbx,%rdi
    46a7:	e8 14 e7 ff ff       	callq  2dc0 <_ZdlPv@plt>
    46ac:	48 8b 44 24 08       	mov    0x8(%rsp),%rax
    46b1:	48 8b bc 24 80 00 00 	mov    0x80(%rsp),%rdi
    46b8:	00 
    46b9:	48 83 c0 10          	add    $0x10,%rax
    46bd:	48 39 c7             	cmp    %rax,%rdi
    46c0:	74 05                	je     46c7 <_ZN4util2io6DoReadERSt14basic_ifstreamIcSt11char_traitsIcEERSt6vectorINSt7__cxx1112basic_stringIcS3_SaIcEEESaISA_EE+0x3f7>
    46c2:	e8 f9 e6 ff ff       	callq  2dc0 <_ZdlPv@plt>
    46c7:	bb 01 00 00 00       	mov    $0x1,%ebx
    46cc:	e9 85 fc ff ff       	jmpq   4356 <_ZN4util2io6DoReadERSt14basic_ifstreamIcSt11char_traitsIcEERSt6vectorINSt7__cxx1112basic_stringIcS3_SaIcEEESaISA_EE+0x86>
    46d1:	0f 1f 80 00 00 00 00 	nopl   0x0(%rax)
    46d8:	48 83 c3 20          	add    $0x20,%rbx
    46dc:	49 39 dc             	cmp    %rbx,%r12
    46df:	0f 85 5b ff ff ff    	jne    4640 <_ZN4util2io6DoReadERSt14basic_ifstreamIcSt11char_traitsIcEERSt6vectorINSt7__cxx1112basic_stringIcS3_SaIcEEESaISA_EE+0x370>
    46e5:	4d 85 ed             	test   %r13,%r13
    46e8:	0f 85 75 ff ff ff    	jne    4663 <_ZN4util2io6DoReadERSt14basic_ifstreamIcSt11char_traitsIcEERSt6vectorINSt7__cxx1112basic_stringIcS3_SaIcEEESaISA_EE+0x393>
    46ee:	e9 78 ff ff ff       	jmpq   466b <_ZN4util2io6DoReadERSt14basic_ifstreamIcSt11char_traitsIcEERSt6vectorINSt7__cxx1112basic_stringIcS3_SaIcEEESaISA_EE+0x39b>
    46f3:	0f 1f 44 00 00       	nopl   0x0(%rax,%rax,1)
    46f8:	48 83 c3 20          	add    $0x20,%rbx
    46fc:	49 39 dc             	cmp    %rbx,%r12
    46ff:	0f 85 7b ff ff ff    	jne    4680 <_ZN4util2io6DoReadERSt14basic_ifstreamIcSt11char_traitsIcEERSt6vectorINSt7__cxx1112basic_stringIcS3_SaIcEEESaISA_EE+0x3b0>
    4705:	eb 93                	jmp    469a <_ZN4util2io6DoReadERSt14basic_ifstreamIcSt11char_traitsIcEERSt6vectorINSt7__cxx1112basic_stringIcS3_SaIcEEESaISA_EE+0x3ca>
    4707:	66 0f 1f 84 00 00 00 	nopw   0x0(%rax,%rax,1)
    470e:	00 00 
    4710:	48 8b 5c 24 68       	mov    0x68(%rsp),%rbx
    4715:	48 89 d9             	mov    %rbx,%rcx
    4718:	e9 27 fe ff ff       	jmpq   4544 <_ZN4util2io6DoReadERSt14basic_ifstreamIcSt11char_traitsIcEERSt6vectorINSt7__cxx1112basic_stringIcS3_SaIcEEESaISA_EE+0x274>
    471d:	0f 1f 00             	nopl   (%rax)
    4720:	4c 8b 6c 24 48       	mov    0x48(%rsp),%r13
    4725:	4c 3b 6c 24 50       	cmp    0x50(%rsp),%r13
    472a:	0f 84 f0 00 00 00    	je     4820 <_ZN4util2io6DoReadERSt14basic_ifstreamIcSt11char_traitsIcEERSt6vectorINSt7__cxx1112basic_stringIcS3_SaIcEEESaISA_EE+0x550>
    4730:	4d 85 ed             	test   %r13,%r13
    4733:	74 6c                	je     47a1 <_ZN4util2io6DoReadERSt14basic_ifstreamIcSt11char_traitsIcEERSt6vectorINSt7__cxx1112basic_stringIcS3_SaIcEEESaISA_EE+0x4d1>
    4735:	49 8d 45 10          	lea    0x10(%r13),%rax
    4739:	49 89 45 00          	mov    %rax,0x0(%r13)
    473d:	48 8b 84 24 a0 00 00 	mov    0xa0(%rsp),%rax
    4744:	00 
    4745:	4c 8b b4 24 a8 00 00 	mov    0xa8(%rsp),%r14
    474c:	00 
    474d:	48 89 c6             	mov    %rax,%rsi
    4750:	48 89 44 24 10       	mov    %rax,0x10(%rsp)
    4755:	4c 01 f6             	add    %r14,%rsi
    4758:	74 09                	je     4763 <_ZN4util2io6DoReadERSt14basic_ifstreamIcSt11char_traitsIcEERSt6vectorINSt7__cxx1112basic_stringIcS3_SaIcEEESaISA_EE+0x493>
    475a:	48 85 c0             	test   %rax,%rax
    475d:	0f 84 35 02 00 00    	je     4998 <_ZN4util2io6DoReadERSt14basic_ifstreamIcSt11char_traitsIcEERSt6vectorINSt7__cxx1112basic_stringIcS3_SaIcEEESaISA_EE+0x6c8>
    4763:	4c 89 74 24 38       	mov    %r14,0x38(%rsp)
    4768:	49 83 fe 0f          	cmp    $0xf,%r14
    476c:	0f 87 ce 00 00 00    	ja     4840 <_ZN4util2io6DoReadERSt14basic_ifstreamIcSt11char_traitsIcEERSt6vectorINSt7__cxx1112basic_stringIcS3_SaIcEEESaISA_EE+0x570>
    4772:	49 8b 45 00          	mov    0x0(%r13),%rax
    4776:	49 83 fe 01          	cmp    $0x1,%r14
    477a:	0f 85 90 00 00 00    	jne    4810 <_ZN4util2io6DoReadERSt14basic_ifstreamIcSt11char_traitsIcEERSt6vectorINSt7__cxx1112basic_stringIcS3_SaIcEEESaISA_EE+0x540>
    4780:	48 8b 74 24 10       	mov    0x10(%rsp),%rsi
    4785:	0f b6 16             	movzbl (%rsi),%edx
    4788:	88 10                	mov    %dl,(%rax)
    478a:	4c 8b 74 24 38       	mov    0x38(%rsp),%r14
    478f:	49 8b 45 00          	mov    0x0(%r13),%rax
    4793:	4d 89 75 08          	mov    %r14,0x8(%r13)
    4797:	42 c6 04 30 00       	movb   $0x0,(%rax,%r14,1)
    479c:	4c 8b 6c 24 48       	mov    0x48(%rsp),%r13
    47a1:	49 83 c5 20          	add    $0x20,%r13
    47a5:	4c 89 6c 24 48       	mov    %r13,0x48(%rsp)
    47aa:	e9 1c fe ff ff       	jmpq   45cb <_ZN4util2io6DoReadERSt14basic_ifstreamIcSt11char_traitsIcEERSt6vectorINSt7__cxx1112basic_stringIcS3_SaIcEEESaISA_EE+0x2fb>
    47af:	90                   	nop
    47b0:	48 8b 34 24          	mov    (%rsp),%rsi
    47b4:	31 d2                	xor    %edx,%edx
    47b6:	4c 89 e7             	mov    %r12,%rdi
    47b9:	e8 52 e8 ff ff       	callq  3010 <_ZNSt7__cxx1112basic_stringIcSt11char_traitsIcESaIcEE9_M_createERmm@plt>
    47be:	48 8b 54 24 30       	mov    0x30(%rsp),%rdx
    47c3:	48 89 84 24 a0 00 00 	mov    %rax,0xa0(%rsp)
    47ca:	00 
    47cb:	48 89 94 24 b0 00 00 	mov    %rdx,0xb0(%rsp)
    47d2:	00 
    47d3:	4c 89 ea             	mov    %r13,%rdx
    47d6:	4c 89 f6             	mov    %r14,%rsi
    47d9:	48 89 c7             	mov    %rax,%rdi
    47dc:	e8 8f e5 ff ff       	callq  2d70 <memcpy@plt>
    47e1:	4c 8b 6c 24 30       	mov    0x30(%rsp),%r13
    47e6:	48 8b 84 24 a0 00 00 	mov    0xa0(%rsp),%rax
    47ed:	00 
    47ee:	e9 bc fd ff ff       	jmpq   45af <_ZN4util2io6DoReadERSt14basic_ifstreamIcSt11char_traitsIcEERSt6vectorINSt7__cxx1112basic_stringIcS3_SaIcEEESaISA_EE+0x2df>
    47f3:	0f 1f 44 00 00       	nopl   0x0(%rax,%rax,1)
    47f8:	49 8d 44 24 10       	lea    0x10(%r12),%rax
    47fd:	4d 85 ed             	test   %r13,%r13
    4800:	0f 84 a9 fd ff ff    	je     45af <_ZN4util2io6DoReadERSt14basic_ifstreamIcSt11char_traitsIcEERSt6vectorINSt7__cxx1112basic_stringIcS3_SaIcEEESaISA_EE+0x2df>
    4806:	eb cb                	jmp    47d3 <_ZN4util2io6DoReadERSt14basic_ifstreamIcSt11char_traitsIcEERSt6vectorINSt7__cxx1112basic_stringIcS3_SaIcEEESaISA_EE+0x503>
    4808:	0f 1f 84 00 00 00 00 	nopl   0x0(%rax,%rax,1)
    480f:	00 
    4810:	4d 85 f6             	test   %r14,%r14
    4813:	0f 84 7a ff ff ff    	je     4793 <_ZN4util2io6DoReadERSt14basic_ifstreamIcSt11char_traitsIcEERSt6vectorINSt7__cxx1112basic_stringIcS3_SaIcEEESaISA_EE+0x4c3>
    4819:	eb 4b                	jmp    4866 <_ZN4util2io6DoReadERSt14basic_ifstreamIcSt11char_traitsIcEERSt6vectorINSt7__cxx1112basic_stringIcS3_SaIcEEESaISA_EE+0x596>
    481b:	0f 1f 44 00 00       	nopl   0x0(%rax,%rax,1)
    4820:	48 8b 7c 24 18       	mov    0x18(%rsp),%rdi
    4825:	4c 89 e2             	mov    %r12,%rdx
    4828:	4c 89 ee             	mov    %r13,%rsi
    482b:	48 89 7c 24 28       	mov    %rdi,0x28(%rsp)
    4830:	e8 cb 0a 00 00       	callq  5300 <_ZNSt6vectorINSt7__cxx1112basic_stringIcSt11char_traitsIcESaIcEEESaIS5_EE17_M_realloc_insertIJRKS5_EEEvN9__gnu_cxx17__normal_iteratorIPS5_S7_EEDpOT_>
    4835:	e9 91 fd ff ff       	jmpq   45cb <_ZN4util2io6DoReadERSt14basic_ifstreamIcSt11char_traitsIcEERSt6vectorINSt7__cxx1112basic_stringIcS3_SaIcEEESaISA_EE+0x2fb>
    483a:	66 0f 1f 44 00 00    	nopw   0x0(%rax,%rax,1)
    4840:	48 8b 44 24 18       	mov    0x18(%rsp),%rax
    4845:	48 8b 74 24 20       	mov    0x20(%rsp),%rsi
    484a:	31 d2                	xor    %edx,%edx
    484c:	4c 89 ef             	mov    %r13,%rdi
    484f:	48 89 44 24 28       	mov    %rax,0x28(%rsp)
    4854:	e8 b7 e7 ff ff       	callq  3010 <_ZNSt7__cxx1112basic_stringIcSt11char_traitsIcESaIcEE9_M_createERmm@plt>
    4859:	48 8b 54 24 38       	mov    0x38(%rsp),%rdx
    485e:	49 89 45 00          	mov    %rax,0x0(%r13)
    4862:	49 89 55 10          	mov    %rdx,0x10(%r13)
    4866:	48 8b 74 24 10       	mov    0x10(%rsp),%rsi
    486b:	4c 89 f2             	mov    %r14,%rdx
    486e:	48 89 c7             	mov    %rax,%rdi
    4871:	e8 fa e4 ff ff       	callq  2d70 <memcpy@plt>
    4876:	4c 8b 74 24 38       	mov    0x38(%rsp),%r14
    487b:	49 8b 45 00          	mov    0x0(%r13),%rax
    487f:	e9 0f ff ff ff       	jmpq   4793 <_ZN4util2io6DoReadERSt14basic_ifstreamIcSt11char_traitsIcEERSt6vectorINSt7__cxx1112basic_stringIcS3_SaIcEEESaISA_EE+0x4c3>
    4884:	0f 1f 40 00          	nopl   0x0(%rax)
    4888:	48 8b 54 24 60       	mov    0x60(%rsp),%rdx
    488d:	48 89 74 24 68       	mov    %rsi,0x68(%rsp)
    4892:	c6 44 02 01 00       	movb   $0x0,0x1(%rdx,%rax,1)
    4897:	e9 e7 fb ff ff       	jmpq   4483 <_ZN4util2io6DoReadERSt14basic_ifstreamIcSt11char_traitsIcEERSt6vectorINSt7__cxx1112basic_stringIcS3_SaIcEEESaISA_EE+0x1b3>
    489c:	0f 1f 40 00          	nopl   0x0(%rax)
    48a0:	48 c7 44 24 68 00 00 	movq   $0x0,0x68(%rsp)
    48a7:	00 00 
    48a9:	48 8b 44 24 60       	mov    0x60(%rsp),%rax
    48ae:	c6 00 00             	movb   $0x0,(%rax)
    48b1:	48 8b 5c 24 68       	mov    0x68(%rsp),%rbx
    48b6:	e9 58 fb ff ff       	jmpq   4413 <_ZN4util2io6DoReadERSt14basic_ifstreamIcSt11char_traitsIcEERSt6vectorINSt7__cxx1112basic_stringIcS3_SaIcEEESaISA_EE+0x143>
    48bb:	4c 89 ea             	mov    %r13,%rdx
    48be:	48 8d 35 7c 7f 00 00 	lea    0x7f7c(%rip),%rsi        # c841 <_IO_stdin_used+0x181>
    48c5:	48 8d 3d 8c 7f 00 00 	lea    0x7f8c(%rip),%rdi        # c858 <_IO_stdin_used+0x198>
    48cc:	31 c0                	xor    %eax,%eax
    48ce:	e8 2d e6 ff ff       	callq  2f00 <_ZSt24__throw_out_of_range_fmtPKcz@plt>
    48d3:	48 89 c3             	mov    %rax,%rbx
    48d6:	48 8d 44 24 40       	lea    0x40(%rsp),%rax
    48db:	48 89 44 24 28       	mov    %rax,0x28(%rsp)
    48e0:	c5 f8 77             	vzeroupper 
    48e3:	48 8b 7c 24 28       	mov    0x28(%rsp),%rdi
    48e8:	e8 a3 09 00 00       	callq  5290 <_ZNSt6vectorINSt7__cxx1112basic_stringIcSt11char_traitsIcESaIcEEESaIS5_EED1Ev>
    48ed:	48 8b 44 24 08       	mov    0x8(%rsp),%rax
    48f2:	48 8b bc 24 80 00 00 	mov    0x80(%rsp),%rdi
    48f9:	00 
    48fa:	48 83 c0 10          	add    $0x10,%rax
    48fe:	48 39 c7             	cmp    %rax,%rdi
    4901:	74 05                	je     4908 <_ZN4util2io6DoReadERSt14basic_ifstreamIcSt11char_traitsIcEERSt6vectorINSt7__cxx1112basic_stringIcS3_SaIcEEESaISA_EE+0x638>
    4903:	e8 b8 e4 ff ff       	callq  2dc0 <_ZdlPv@plt>
    4908:	48 8b 7c 24 60       	mov    0x60(%rsp),%rdi
    490d:	48 83 c5 10          	add    $0x10,%rbp
    4911:	48 39 ef             	cmp    %rbp,%rdi
    4914:	74 05                	je     491b <_ZN4util2io6DoReadERSt14basic_ifstreamIcSt11char_traitsIcEERSt6vectorINSt7__cxx1112basic_stringIcS3_SaIcEEESaISA_EE+0x64b>
    4916:	e8 a5 e4 ff ff       	callq  2dc0 <_ZdlPv@plt>
    491b:	48 89 df             	mov    %rbx,%rdi
    491e:	e8 cd e6 ff ff       	callq  2ff0 <_Unwind_Resume@plt>
    4923:	e8 58 e5 ff ff       	callq  2e80 <_ZSt16__throw_bad_castv@plt>
    4928:	48 83 ea 01          	sub    $0x1,%rdx
    492c:	75 41                	jne    496f <_ZN4util2io6DoReadERSt14basic_ifstreamIcSt11char_traitsIcEERSt6vectorINSt7__cxx1112basic_stringIcS3_SaIcEEESaISA_EE+0x69f>
    492e:	48 89 c7             	mov    %rax,%rdi
    4931:	c5 f8 77             	vzeroupper 
    4934:	e8 47 e3 ff ff       	callq  2c80 <__cxa_begin_catch@plt>
    4939:	bf 01 00 00 00       	mov    $0x1,%edi
    493e:	e8 1d e5 ff ff       	callq  2e60 <exit@plt>
    4943:	e8 b8 e4 ff ff       	callq  2e00 <__stack_chk_fail@plt>
    4948:	48 8d 3d b1 7e 00 00 	lea    0x7eb1(%rip),%rdi        # c800 <_IO_stdin_used+0x140>
    494f:	e8 cc e3 ff ff       	callq  2d20 <_ZSt19__throw_logic_errorPKc@plt>
    4954:	48 89 d1             	mov    %rdx,%rcx
    4957:	48 8d 3d fa 7e 00 00 	lea    0x7efa(%rip),%rdi        # c858 <_IO_stdin_used+0x198>
    495e:	48 89 f2             	mov    %rsi,%rdx
    4961:	31 c0                	xor    %eax,%eax
    4963:	48 8d 35 c3 7e 00 00 	lea    0x7ec3(%rip),%rsi        # c82d <_IO_stdin_used+0x16d>
    496a:	e8 91 e5 ff ff       	callq  2f00 <_ZSt24__throw_out_of_range_fmtPKcz@plt>
    496f:	48 89 c3             	mov    %rax,%rbx
    4972:	c5 f8 77             	vzeroupper 
    4975:	eb 91                	jmp    4908 <_ZN4util2io6DoReadERSt14basic_ifstreamIcSt11char_traitsIcEERSt6vectorINSt7__cxx1112basic_stringIcS3_SaIcEEESaISA_EE+0x638>
    4977:	48 8b bc 24 a0 00 00 	mov    0xa0(%rsp),%rdi
    497e:	00 
    497f:	49 83 c4 10          	add    $0x10,%r12
    4983:	48 89 c3             	mov    %rax,%rbx
    4986:	4c 39 e7             	cmp    %r12,%rdi
    4989:	74 23                	je     49ae <_ZN4util2io6DoReadERSt14basic_ifstreamIcSt11char_traitsIcEERSt6vectorINSt7__cxx1112basic_stringIcS3_SaIcEEESaISA_EE+0x6de>
    498b:	c5 f8 77             	vzeroupper 
    498e:	e8 2d e4 ff ff       	callq  2dc0 <_ZdlPv@plt>
    4993:	e9 4b ff ff ff       	jmpq   48e3 <_ZN4util2io6DoReadERSt14basic_ifstreamIcSt11char_traitsIcEERSt6vectorINSt7__cxx1112basic_stringIcS3_SaIcEEESaISA_EE+0x613>
    4998:	48 8d 44 24 40       	lea    0x40(%rsp),%rax
    499d:	48 8d 3d 5c 7e 00 00 	lea    0x7e5c(%rip),%rdi        # c800 <_IO_stdin_used+0x140>
    49a4:	48 89 44 24 28       	mov    %rax,0x28(%rsp)
    49a9:	e8 72 e3 ff ff       	callq  2d20 <_ZSt19__throw_logic_errorPKc@plt>
    49ae:	c5 f8 77             	vzeroupper 
    49b1:	e9 2d ff ff ff       	jmpq   48e3 <_ZN4util2io6DoReadERSt14basic_ifstreamIcSt11char_traitsIcEERSt6vectorINSt7__cxx1112basic_stringIcS3_SaIcEEESaISA_EE+0x613>
    49b6:	66 2e 0f 1f 84 00 00 	nopw   %cs:0x0(%rax,%rax,1)
    49bd:	00 00 00 

00000000000049c0 <_ZNKSt5ctypeIcE8do_widenEc>:
    49c0:	89 f0                	mov    %esi,%eax
    49c2:	c3                   	retq   
    49c3:	66 2e 0f 1f 84 00 00 	nopw   %cs:0x0(%rax,%rax,1)
    49ca:	00 00 00 
    49cd:	0f 1f 00             	nopl   (%rax)

00000000000049d0 <_ZN4util2io3MMFIifED1Ev>:
    49d0:	41 55                	push   %r13
    49d2:	41 54                	push   %r12
    49d4:	55                   	push   %rbp
    49d5:	48 8d af 88 00 00 00 	lea    0x88(%rdi),%rbp
    49dc:	53                   	push   %rbx
    49dd:	48 89 fb             	mov    %rdi,%rbx
    49e0:	48 89 ef             	mov    %rbp,%rdi
    49e3:	4c 8d 63 20          	lea    0x20(%rbx),%r12
    49e7:	48 83 ec 08          	sub    $0x8,%rsp
    49eb:	e8 10 e2 ff ff       	callq  2c00 <_ZNKSt12__basic_fileIcE7is_openEv@plt>
    49f0:	84 c0                	test   %al,%al
    49f2:	0f 85 a0 00 00 00    	jne    4a98 <_ZN4util2io3MMFIifED1Ev+0xc8>
    49f8:	48 8b bb 20 02 00 00 	mov    0x220(%rbx),%rdi
    49ff:	48 85 ff             	test   %rdi,%rdi
    4a02:	74 05                	je     4a09 <_ZN4util2io3MMFIifED1Ev+0x39>
    4a04:	e8 b7 e3 ff ff       	callq  2dc0 <_ZdlPv@plt>
    4a09:	48 8d 05 c0 be 20 00 	lea    0x20bec0(%rip),%rax        # 2108d0 <_ZTVSt14basic_ifstreamIcSt11char_traitsIcEE@@GLIBCXX_3.4+0x18>
    4a10:	4c 89 e7             	mov    %r12,%rdi
    4a13:	48 89 43 10          	mov    %rax,0x10(%rbx)
    4a17:	48 83 c0 28          	add    $0x28,%rax
    4a1b:	48 89 83 10 01 00 00 	mov    %rax,0x110(%rbx)
    4a22:	48 8d 05 ef be 20 00 	lea    0x20beef(%rip),%rax        # 210918 <_ZTVSt13basic_filebufIcSt11char_traitsIcEE@@GLIBCXX_3.4+0x10>
    4a29:	48 89 43 20          	mov    %rax,0x20(%rbx)
    4a2d:	e8 be e1 ff ff       	callq  2bf0 <_ZNSt13basic_filebufIcSt11char_traitsIcEE5closeEv@plt>
    4a32:	48 89 ef             	mov    %rbp,%rdi
    4a35:	e8 06 e6 ff ff       	callq  3040 <_ZNSt12__basic_fileIcED1Ev@plt>
    4a3a:	48 8d 05 07 be 20 00 	lea    0x20be07(%rip),%rax        # 210848 <_ZTVSt15basic_streambufIcSt11char_traitsIcEE@@GLIBCXX_3.4+0x10>
    4a41:	48 8d 7b 58          	lea    0x58(%rbx),%rdi
    4a45:	48 89 43 20          	mov    %rax,0x20(%rbx)
    4a49:	e8 72 e4 ff ff       	callq  2ec0 <_ZNSt6localeD1Ev@plt>
    4a4e:	48 8b 05 3b bf 20 00 	mov    0x20bf3b(%rip),%rax        # 210990 <_ZTTSt14basic_ifstreamIcSt11char_traitsIcEE@@GLIBCXX_3.4+0x8>
    4a55:	48 8b 15 3c bf 20 00 	mov    0x20bf3c(%rip),%rdx        # 210998 <_ZTTSt14basic_ifstreamIcSt11char_traitsIcEE@@GLIBCXX_3.4+0x10>
    4a5c:	48 8d bb 10 01 00 00 	lea    0x110(%rbx),%rdi
    4a63:	48 89 43 10          	mov    %rax,0x10(%rbx)
    4a67:	48 8b 40 e8          	mov    -0x18(%rax),%rax
    4a6b:	48 89 54 03 10       	mov    %rdx,0x10(%rbx,%rax,1)
    4a70:	48 8d 05 b1 bd 20 00 	lea    0x20bdb1(%rip),%rax        # 210828 <_ZTVSt9basic_iosIcSt11char_traitsIcEE@@GLIBCXX_3.4+0x10>
    4a77:	48 c7 43 18 00 00 00 	movq   $0x0,0x18(%rbx)
    4a7e:	00 
    4a7f:	48 89 83 10 01 00 00 	mov    %rax,0x110(%rbx)
    4a86:	48 83 c4 08          	add    $0x8,%rsp
    4a8a:	5b                   	pop    %rbx
    4a8b:	5d                   	pop    %rbp
    4a8c:	41 5c                	pop    %r12
    4a8e:	41 5d                	pop    %r13
    4a90:	e9 ab e1 ff ff       	jmpq   2c40 <_ZNSt8ios_baseD2Ev@plt>
    4a95:	0f 1f 00             	nopl   (%rax)
    4a98:	4c 89 e7             	mov    %r12,%rdi
    4a9b:	e8 50 e1 ff ff       	callq  2bf0 <_ZNSt13basic_filebufIcSt11char_traitsIcEE5closeEv@plt>
    4aa0:	48 85 c0             	test   %rax,%rax
    4aa3:	0f 85 4f ff ff ff    	jne    49f8 <_ZN4util2io3MMFIifED1Ev+0x28>
    4aa9:	48 8b 43 10          	mov    0x10(%rbx),%rax
    4aad:	4c 8d 6b 10          	lea    0x10(%rbx),%r13
    4ab1:	48 8b 78 e8          	mov    -0x18(%rax),%rdi
    4ab5:	4c 01 ef             	add    %r13,%rdi
    4ab8:	8b 77 20             	mov    0x20(%rdi),%esi
    4abb:	83 ce 04             	or     $0x4,%esi
    4abe:	e8 ed e4 ff ff       	callq  2fb0 <_ZNSt9basic_iosIcSt11char_traitsIcEE5clearESt12_Ios_Iostate@plt>
    4ac3:	e9 30 ff ff ff       	jmpq   49f8 <_ZN4util2io3MMFIifED1Ev+0x28>
    4ac8:	0f 1f 84 00 00 00 00 	nopl   0x0(%rax,%rax,1)
    4acf:	00 

0000000000004ad0 <_ZNK4util2io3MMFIifE9GetNrRowsEv>:
    4ad0:	8b 07                	mov    (%rdi),%eax
    4ad2:	c3                   	retq   
    4ad3:	66 2e 0f 1f 84 00 00 	nopw   %cs:0x0(%rax,%rax,1)
    4ada:	00 00 00 
    4add:	0f 1f 00             	nopl   (%rax)

0000000000004ae0 <_ZNK4util2io3MMFIifE9GetNrColsEv>:
    4ae0:	8b 47 04             	mov    0x4(%rdi),%eax
    4ae3:	c3                   	retq   
    4ae4:	66 2e 0f 1f 84 00 00 	nopw   %cs:0x0(%rax,%rax,1)
    4aeb:	00 00 00 
    4aee:	66 90                	xchg   %ax,%ax

0000000000004af0 <_ZNK4util2io3MMFIifE13GetNrNonzerosEv>:
    4af0:	80 bf 18 02 00 00 00 	cmpb   $0x0,0x218(%rdi)
    4af7:	75 17                	jne    4b10 <_ZNK4util2io3MMFIifE13GetNrNonzerosEv+0x20>
    4af9:	80 bf 19 02 00 00 00 	cmpb   $0x0,0x219(%rdi)
    4b00:	75 0e                	jne    4b10 <_ZNK4util2io3MMFIifE13GetNrNonzerosEv+0x20>
    4b02:	8b 47 08             	mov    0x8(%rdi),%eax
    4b05:	c3                   	retq   
    4b06:	66 2e 0f 1f 84 00 00 	nopw   %cs:0x0(%rax,%rax,1)
    4b0d:	00 00 00 
    4b10:	48 8b 87 28 02 00 00 	mov    0x228(%rdi),%rax
    4b17:	48 2b 87 20 02 00 00 	sub    0x220(%rdi),%rax
    4b1e:	48 c1 f8 02          	sar    $0x2,%rax
    4b22:	69 c0 ab aa aa aa    	imul   $0xaaaaaaab,%eax,%eax
    4b28:	c3                   	retq   
    4b29:	0f 1f 80 00 00 00 00 	nopl   0x0(%rax)

0000000000004b30 <_ZNK4util2io3MMFIifE11IsSymmetricEv>:
    4b30:	0f b6 87 18 02 00 00 	movzbl 0x218(%rdi),%eax
    4b37:	c3                   	retq   
    4b38:	0f 1f 84 00 00 00 00 	nopl   0x0(%rax,%rax,1)
    4b3f:	00 

0000000000004b40 <_ZNK4util2io3MMFIifE9IsColWiseEv>:
    4b40:	0f b6 87 19 02 00 00 	movzbl 0x219(%rdi),%eax
    4b47:	c3                   	retq   
    4b48:	0f 1f 84 00 00 00 00 	nopl   0x0(%rax,%rax,1)
    4b4f:	00 

0000000000004b50 <_ZNK4util2io3MMFIifE11IsZeroBasedEv>:
    4b50:	0f b6 87 1a 02 00 00 	movzbl 0x21a(%rdi),%eax
    4b57:	c3                   	retq   
    4b58:	0f 1f 84 00 00 00 00 	nopl   0x0(%rax,%rax,1)
    4b5f:	00 

0000000000004b60 <_ZN4util2io3MMFIifE18ParseMmfHeaderLineERSt6vectorINSt7__cxx1112basic_stringIcSt11char_traitsIcESaIcEEESaIS9_EE>:
    4b60:	41 57                	push   %r15
    4b62:	41 56                	push   %r14
    4b64:	49 89 fe             	mov    %rdi,%r14
    4b67:	41 55                	push   %r13
    4b69:	41 54                	push   %r12
    4b6b:	55                   	push   %rbp
    4b6c:	53                   	push   %rbx
    4b6d:	48 89 f3             	mov    %rsi,%rbx
    4b70:	48 8d 35 4d 7b 00 00 	lea    0x7b4d(%rip),%rsi        # c6c4 <_IO_stdin_used+0x4>
    4b77:	48 83 ec 08          	sub    $0x8,%rsp
    4b7b:	48 8b 3b             	mov    (%rbx),%rdi
    4b7e:	e8 9d e0 ff ff       	callq  2c20 <_ZNKSt7__cxx1112basic_stringIcSt11char_traitsIcESaIcEE7compareEPKc@plt>
    4b83:	85 c0                	test   %eax,%eax
    4b85:	74 39                	je     4bc0 <_ZN4util2io3MMFIifE18ParseMmfHeaderLineERSt6vectorINSt7__cxx1112basic_stringIcSt11char_traitsIcESaIcEEESaIS9_EE+0x60>
    4b87:	48 8b 03             	mov    (%rbx),%rax
    4b8a:	48 83 78 08 02       	cmpq   $0x2,0x8(%rax)
    4b8f:	76 0c                	jbe    4b9d <_ZN4util2io3MMFIifE18ParseMmfHeaderLineERSt6vectorINSt7__cxx1112basic_stringIcSt11char_traitsIcESaIcEEESaIS9_EE+0x3d>
    4b91:	48 8b 00             	mov    (%rax),%rax
    4b94:	80 38 25             	cmpb   $0x25,(%rax)
    4b97:	0f 84 e3 00 00 00    	je     4c80 <_ZN4util2io3MMFIifE18ParseMmfHeaderLineERSt6vectorINSt7__cxx1112basic_stringIcSt11char_traitsIcESaIcEEESaIS9_EE+0x120>
    4b9d:	41 c7 86 1c 02 00 00 	movl   $0x1,0x21c(%r14)
    4ba4:	01 00 00 00 
    4ba8:	48 83 c4 08          	add    $0x8,%rsp
    4bac:	5b                   	pop    %rbx
    4bad:	5d                   	pop    %rbp
    4bae:	41 5c                	pop    %r12
    4bb0:	41 5d                	pop    %r13
    4bb2:	41 5e                	pop    %r14
    4bb4:	41 5f                	pop    %r15
    4bb6:	c3                   	retq   
    4bb7:	66 0f 1f 84 00 00 00 	nopw   0x0(%rax,%rax,1)
    4bbe:	00 00 
    4bc0:	48 8b 3b             	mov    (%rbx),%rdi
    4bc3:	4c 8b 63 08          	mov    0x8(%rbx),%r12
    4bc7:	49 29 fc             	sub    %rdi,%r12
    4bca:	49 c1 fc 05          	sar    $0x5,%r12
    4bce:	49 83 fc 04          	cmp    $0x4,%r12
    4bd2:	0f 86 4f 01 00 00    	jbe    4d27 <_ZN4util2io3MMFIifE18ParseMmfHeaderLineERSt6vectorINSt7__cxx1112basic_stringIcSt11char_traitsIcESaIcEEESaIS9_EE+0x1c7>
    4bd8:	48 83 c7 40          	add    $0x40,%rdi
    4bdc:	48 8d 35 f0 7a 00 00 	lea    0x7af0(%rip),%rsi        # c6d3 <_IO_stdin_used+0x13>
    4be3:	e8 38 e0 ff ff       	callq  2c20 <_ZNKSt7__cxx1112basic_stringIcSt11char_traitsIcESaIcEE7compareEPKc@plt>
    4be8:	85 c0                	test   %eax,%eax
    4bea:	0f 85 54 01 00 00    	jne    4d44 <_ZN4util2io3MMFIifE18ParseMmfHeaderLineERSt6vectorINSt7__cxx1112basic_stringIcSt11char_traitsIcESaIcEEESaIS9_EE+0x1e4>
    4bf0:	48 8b 03             	mov    (%rbx),%rax
    4bf3:	48 8d 35 e4 7a 00 00 	lea    0x7ae4(%rip),%rsi        # c6de <_IO_stdin_used+0x1e>
    4bfa:	48 8d b8 80 00 00 00 	lea    0x80(%rax),%rdi
    4c01:	e8 1a e0 ff ff       	callq  2c20 <_ZNKSt7__cxx1112basic_stringIcSt11char_traitsIcESaIcEE7compareEPKc@plt>
    4c06:	85 c0                	test   %eax,%eax
    4c08:	0f 85 ca 00 00 00    	jne    4cd8 <_ZN4util2io3MMFIifE18ParseMmfHeaderLineERSt6vectorINSt7__cxx1112basic_stringIcSt11char_traitsIcESaIcEEESaIS9_EE+0x178>
    4c0e:	41 c6 86 18 02 00 00 	movb   $0x0,0x218(%r14)
    4c15:	00 
    4c16:	49 83 fc 05          	cmp    $0x5,%r12
    4c1a:	74 8c                	je     4ba8 <_ZN4util2io3MMFIifE18ParseMmfHeaderLineERSt6vectorINSt7__cxx1112basic_stringIcSt11char_traitsIcESaIcEEESaIS9_EE+0x48>
    4c1c:	bd 05 00 00 00       	mov    $0x5,%ebp
    4c21:	4c 8d 3d c8 7a 00 00 	lea    0x7ac8(%rip),%r15        # c6f0 <_IO_stdin_used+0x30>
    4c28:	eb 1b                	jmp    4c45 <_ZN4util2io3MMFIifE18ParseMmfHeaderLineERSt6vectorINSt7__cxx1112basic_stringIcSt11char_traitsIcESaIcEEESaIS9_EE+0xe5>
    4c2a:	66 0f 1f 44 00 00    	nopw   0x0(%rax,%rax,1)
    4c30:	41 c6 86 1a 02 00 00 	movb   $0x1,0x21a(%r14)
    4c37:	01 
    4c38:	48 83 c5 01          	add    $0x1,%rbp
    4c3c:	4c 39 e5             	cmp    %r12,%rbp
    4c3f:	0f 83 63 ff ff ff    	jae    4ba8 <_ZN4util2io3MMFIifE18ParseMmfHeaderLineERSt6vectorINSt7__cxx1112basic_stringIcSt11char_traitsIcESaIcEEESaIS9_EE+0x48>
    4c45:	49 89 ed             	mov    %rbp,%r13
    4c48:	48 8b 3b             	mov    (%rbx),%rdi
    4c4b:	4c 89 fe             	mov    %r15,%rsi
    4c4e:	49 c1 e5 05          	shl    $0x5,%r13
    4c52:	4c 01 ef             	add    %r13,%rdi
    4c55:	e8 c6 df ff ff       	callq  2c20 <_ZNKSt7__cxx1112basic_stringIcSt11char_traitsIcESaIcEE7compareEPKc@plt>
    4c5a:	85 c0                	test   %eax,%eax
    4c5c:	74 d2                	je     4c30 <_ZN4util2io3MMFIifE18ParseMmfHeaderLineERSt6vectorINSt7__cxx1112basic_stringIcSt11char_traitsIcESaIcEEESaIS9_EE+0xd0>
    4c5e:	48 8b 3b             	mov    (%rbx),%rdi
    4c61:	48 8d 35 8f 7a 00 00 	lea    0x7a8f(%rip),%rsi        # c6f7 <_IO_stdin_used+0x37>
    4c68:	4c 01 ef             	add    %r13,%rdi
    4c6b:	e8 b0 df ff ff       	callq  2c20 <_ZNKSt7__cxx1112basic_stringIcSt11char_traitsIcESaIcEE7compareEPKc@plt>
    4c70:	85 c0                	test   %eax,%eax
    4c72:	75 3c                	jne    4cb0 <_ZN4util2io3MMFIifE18ParseMmfHeaderLineERSt6vectorINSt7__cxx1112basic_stringIcSt11char_traitsIcESaIcEEESaIS9_EE+0x150>
    4c74:	41 c6 86 1a 02 00 00 	movb   $0x0,0x21a(%r14)
    4c7b:	00 
    4c7c:	eb ba                	jmp    4c38 <_ZN4util2io3MMFIifE18ParseMmfHeaderLineERSt6vectorINSt7__cxx1112basic_stringIcSt11char_traitsIcESaIcEEESaIS9_EE+0xd8>
    4c7e:	66 90                	xchg   %ax,%ax
    4c80:	80 78 01 25          	cmpb   $0x25,0x1(%rax)
    4c84:	0f 85 13 ff ff ff    	jne    4b9d <_ZN4util2io3MMFIifE18ParseMmfHeaderLineERSt6vectorINSt7__cxx1112basic_stringIcSt11char_traitsIcESaIcEEESaIS9_EE+0x3d>
    4c8a:	48 8d 3d 8f c3 20 00 	lea    0x20c38f(%rip),%rdi        # 211020 <_ZSt4cout@@GLIBCXX_3.4>
    4c91:	48 8d 35 78 7a 00 00 	lea    0x7a78(%rip),%rsi        # c710 <_IO_stdin_used+0x50>
    4c98:	e8 33 e1 ff ff       	callq  2dd0 <_ZStlsISt11char_traitsIcEERSt13basic_ostreamIcT_ES5_PKc@plt>
    4c9d:	bf 01 00 00 00       	mov    $0x1,%edi
    4ca2:	e8 b9 e1 ff ff       	callq  2e60 <exit@plt>
    4ca7:	66 0f 1f 84 00 00 00 	nopw   0x0(%rax,%rax,1)
    4cae:	00 00 
    4cb0:	48 8b 3b             	mov    (%rbx),%rdi
    4cb3:	48 8d 35 44 7a 00 00 	lea    0x7a44(%rip),%rsi        # c6fe <_IO_stdin_used+0x3e>
    4cba:	4c 01 ef             	add    %r13,%rdi
    4cbd:	e8 5e df ff ff       	callq  2c20 <_ZNKSt7__cxx1112basic_stringIcSt11char_traitsIcESaIcEE7compareEPKc@plt>
    4cc2:	85 c0                	test   %eax,%eax
    4cc4:	75 3a                	jne    4d00 <_ZN4util2io3MMFIifE18ParseMmfHeaderLineERSt6vectorINSt7__cxx1112basic_stringIcSt11char_traitsIcESaIcEEESaIS9_EE+0x1a0>
    4cc6:	41 c6 86 19 02 00 00 	movb   $0x1,0x219(%r14)
    4ccd:	01 
    4cce:	e9 65 ff ff ff       	jmpq   4c38 <_ZN4util2io3MMFIifE18ParseMmfHeaderLineERSt6vectorINSt7__cxx1112basic_stringIcSt11char_traitsIcESaIcEEESaIS9_EE+0xd8>
    4cd3:	0f 1f 44 00 00       	nopl   0x0(%rax,%rax,1)
    4cd8:	48 8b 03             	mov    (%rbx),%rax
    4cdb:	48 8d 35 04 7a 00 00 	lea    0x7a04(%rip),%rsi        # c6e6 <_IO_stdin_used+0x26>
    4ce2:	48 8d b8 80 00 00 00 	lea    0x80(%rax),%rdi
    4ce9:	e8 32 df ff ff       	callq  2c20 <_ZNKSt7__cxx1112basic_stringIcSt11char_traitsIcESaIcEE7compareEPKc@plt>
    4cee:	85 c0                	test   %eax,%eax
    4cf0:	75 6f                	jne    4d61 <_ZN4util2io3MMFIifE18ParseMmfHeaderLineERSt6vectorINSt7__cxx1112basic_stringIcSt11char_traitsIcESaIcEEESaIS9_EE+0x201>
    4cf2:	41 c6 86 18 02 00 00 	movb   $0x1,0x218(%r14)
    4cf9:	01 
    4cfa:	e9 17 ff ff ff       	jmpq   4c16 <_ZN4util2io3MMFIifE18ParseMmfHeaderLineERSt6vectorINSt7__cxx1112basic_stringIcSt11char_traitsIcESaIcEEESaIS9_EE+0xb6>
    4cff:	90                   	nop
    4d00:	48 8b 3b             	mov    (%rbx),%rdi
    4d03:	48 8d 35 fb 79 00 00 	lea    0x79fb(%rip),%rsi        # c705 <_IO_stdin_used+0x45>
    4d0a:	4c 01 ef             	add    %r13,%rdi
    4d0d:	e8 0e df ff ff       	callq  2c20 <_ZNKSt7__cxx1112basic_stringIcSt11char_traitsIcESaIcEE7compareEPKc@plt>
    4d12:	85 c0                	test   %eax,%eax
    4d14:	0f 85 1e ff ff ff    	jne    4c38 <_ZN4util2io3MMFIifE18ParseMmfHeaderLineERSt6vectorINSt7__cxx1112basic_stringIcSt11char_traitsIcESaIcEEESaIS9_EE+0xd8>
    4d1a:	41 c6 86 19 02 00 00 	movb   $0x0,0x219(%r14)
    4d21:	00 
    4d22:	e9 11 ff ff ff       	jmpq   4c38 <_ZN4util2io3MMFIifE18ParseMmfHeaderLineERSt6vectorINSt7__cxx1112basic_stringIcSt11char_traitsIcESaIcEEESaIS9_EE+0xd8>
    4d27:	48 8d 3d f2 c2 20 00 	lea    0x20c2f2(%rip),%rdi        # 211020 <_ZSt4cout@@GLIBCXX_3.4>
    4d2e:	48 8d 35 03 7a 00 00 	lea    0x7a03(%rip),%rsi        # c738 <_IO_stdin_used+0x78>
    4d35:	e8 96 e0 ff ff       	callq  2dd0 <_ZStlsISt11char_traitsIcEERSt13basic_ostreamIcT_ES5_PKc@plt>
    4d3a:	bf 01 00 00 00       	mov    $0x1,%edi
    4d3f:	e8 1c e1 ff ff       	callq  2e60 <exit@plt>
    4d44:	48 8d 3d d5 c2 20 00 	lea    0x20c2d5(%rip),%rdi        # 211020 <_ZSt4cout@@GLIBCXX_3.4>
    4d4b:	48 8d 35 16 7a 00 00 	lea    0x7a16(%rip),%rsi        # c768 <_IO_stdin_used+0xa8>
    4d52:	e8 79 e0 ff ff       	callq  2dd0 <_ZStlsISt11char_traitsIcEERSt13basic_ostreamIcT_ES5_PKc@plt>
    4d57:	bf 01 00 00 00       	mov    $0x1,%edi
    4d5c:	e8 ff e0 ff ff       	callq  2e60 <exit@plt>
    4d61:	48 8d 3d b8 c2 20 00 	lea    0x20c2b8(%rip),%rdi        # 211020 <_ZSt4cout@@GLIBCXX_3.4>
    4d68:	48 8d 35 31 7a 00 00 	lea    0x7a31(%rip),%rsi        # c7a0 <_IO_stdin_used+0xe0>
    4d6f:	e8 5c e0 ff ff       	callq  2dd0 <_ZStlsISt11char_traitsIcEERSt13basic_ostreamIcT_ES5_PKc@plt>
    4d74:	bf 01 00 00 00       	mov    $0x1,%edi
    4d79:	e8 e2 e0 ff ff       	callq  2e60 <exit@plt>
    4d7e:	66 90                	xchg   %ax,%ax

0000000000004d80 <_ZN4util2io3MMFIifE8iteratorC1Ev>:
    4d80:	c3                   	retq   
    4d81:	66 2e 0f 1f 84 00 00 	nopw   %cs:0x0(%rax,%rax,1)
    4d88:	00 00 00 
    4d8b:	0f 1f 44 00 00       	nopl   0x0(%rax,%rax,1)

0000000000004d90 <_ZN4util2io3MMFIifE8iteratoreqERKS3_>:
    4d90:	31 c0                	xor    %eax,%eax
    4d92:	48 8b 16             	mov    (%rsi),%rdx
    4d95:	48 39 17             	cmp    %rdx,(%rdi)
    4d98:	74 06                	je     4da0 <_ZN4util2io3MMFIifE8iteratoreqERKS3_+0x10>
    4d9a:	c3                   	retq   
    4d9b:	0f 1f 44 00 00       	nopl   0x0(%rax,%rax,1)
    4da0:	48 8b 46 08          	mov    0x8(%rsi),%rax
    4da4:	48 39 47 08          	cmp    %rax,0x8(%rdi)
    4da8:	0f 94 c0             	sete   %al
    4dab:	c3                   	retq   
    4dac:	0f 1f 40 00          	nopl   0x0(%rax)

0000000000004db0 <_ZN4util2io3MMFIifE8iteratorneERKS3_>:
    4db0:	b8 01 00 00 00       	mov    $0x1,%eax
    4db5:	48 8b 16             	mov    (%rsi),%rdx
    4db8:	48 39 17             	cmp    %rdx,(%rdi)
    4dbb:	74 03                	je     4dc0 <_ZN4util2io3MMFIifE8iteratorneERKS3_+0x10>
    4dbd:	c3                   	retq   
    4dbe:	66 90                	xchg   %ax,%ax
    4dc0:	48 8b 46 08          	mov    0x8(%rsi),%rax
    4dc4:	48 39 47 08          	cmp    %rax,0x8(%rdi)
    4dc8:	0f 95 c0             	setne  %al
    4dcb:	c3                   	retq   
    4dcc:	0f 1f 40 00          	nopl   0x0(%rax)

0000000000004dd0 <_ZN4util2io3MMFIifE8iteratordeEv>:
    4dd0:	48 8b 07             	mov    (%rdi),%rax
    4dd3:	80 b8 18 02 00 00 00 	cmpb   $0x0,0x218(%rax)
    4dda:	75 14                	jne    4df0 <_ZN4util2io3MMFIifE8iteratordeEv+0x20>
    4ddc:	80 b8 19 02 00 00 00 	cmpb   $0x0,0x219(%rax)
    4de3:	75 0b                	jne    4df0 <_ZN4util2io3MMFIifE8iteratordeEv+0x20>
    4de5:	80 7f 1c 00          	cmpb   $0x0,0x1c(%rdi)
    4de9:	74 19                	je     4e04 <_ZN4util2io3MMFIifE8iteratordeEv+0x34>
    4deb:	48 8d 47 10          	lea    0x10(%rdi),%rax
    4def:	c3                   	retq   
    4df0:	48 8b 57 08          	mov    0x8(%rdi),%rdx
    4df4:	48 8b 80 20 02 00 00 	mov    0x220(%rax),%rax
    4dfb:	48 8d 14 52          	lea    (%rdx,%rdx,2),%rdx
    4dff:	48 8d 04 90          	lea    (%rax,%rdx,4),%rax
    4e03:	c3                   	retq   
    4e04:	48 8d 3d 15 c2 20 00 	lea    0x20c215(%rip),%rdi        # 211020 <_ZSt4cout@@GLIBCXX_3.4>
    4e0b:	48 83 ec 08          	sub    $0x8,%rsp
    4e0f:	48 8d 35 c2 79 00 00 	lea    0x79c2(%rip),%rsi        # c7d8 <_IO_stdin_used+0x118>
    4e16:	e8 b5 df ff ff       	callq  2dd0 <_ZStlsISt11char_traitsIcEERSt13basic_ostreamIcT_ES5_PKc@plt>
    4e1b:	bf 01 00 00 00       	mov    $0x1,%edi
    4e20:	e8 3b e0 ff ff       	callq  2e60 <exit@plt>
    4e25:	66 2e 0f 1f 84 00 00 	nopw   %cs:0x0(%rax,%rax,1)
    4e2c:	00 00 00 
    4e2f:	90                   	nop

0000000000004e30 <_ZN4util2io3MMFIidED1Ev>:
    4e30:	41 55                	push   %r13
    4e32:	41 54                	push   %r12
    4e34:	55                   	push   %rbp
    4e35:	48 8d af 88 00 00 00 	lea    0x88(%rdi),%rbp
    4e3c:	53                   	push   %rbx
    4e3d:	48 89 fb             	mov    %rdi,%rbx
    4e40:	48 89 ef             	mov    %rbp,%rdi
    4e43:	4c 8d 63 20          	lea    0x20(%rbx),%r12
    4e47:	48 83 ec 08          	sub    $0x8,%rsp
    4e4b:	e8 b0 dd ff ff       	callq  2c00 <_ZNKSt12__basic_fileIcE7is_openEv@plt>
    4e50:	84 c0                	test   %al,%al
    4e52:	0f 85 a0 00 00 00    	jne    4ef8 <_ZN4util2io3MMFIidED1Ev+0xc8>
    4e58:	48 8b bb 20 02 00 00 	mov    0x220(%rbx),%rdi
    4e5f:	48 85 ff             	test   %rdi,%rdi
    4e62:	74 05                	je     4e69 <_ZN4util2io3MMFIidED1Ev+0x39>
    4e64:	e8 57 df ff ff       	callq  2dc0 <_ZdlPv@plt>
    4e69:	48 8d 05 60 ba 20 00 	lea    0x20ba60(%rip),%rax        # 2108d0 <_ZTVSt14basic_ifstreamIcSt11char_traitsIcEE@@GLIBCXX_3.4+0x18>
    4e70:	4c 89 e7             	mov    %r12,%rdi
    4e73:	48 89 43 10          	mov    %rax,0x10(%rbx)
    4e77:	48 83 c0 28          	add    $0x28,%rax
    4e7b:	48 89 83 10 01 00 00 	mov    %rax,0x110(%rbx)
    4e82:	48 8d 05 8f ba 20 00 	lea    0x20ba8f(%rip),%rax        # 210918 <_ZTVSt13basic_filebufIcSt11char_traitsIcEE@@GLIBCXX_3.4+0x10>
    4e89:	48 89 43 20          	mov    %rax,0x20(%rbx)
    4e8d:	e8 5e dd ff ff       	callq  2bf0 <_ZNSt13basic_filebufIcSt11char_traitsIcEE5closeEv@plt>
    4e92:	48 89 ef             	mov    %rbp,%rdi
    4e95:	e8 a6 e1 ff ff       	callq  3040 <_ZNSt12__basic_fileIcED1Ev@plt>
    4e9a:	48 8d 05 a7 b9 20 00 	lea    0x20b9a7(%rip),%rax        # 210848 <_ZTVSt15basic_streambufIcSt11char_traitsIcEE@@GLIBCXX_3.4+0x10>
    4ea1:	48 8d 7b 58          	lea    0x58(%rbx),%rdi
    4ea5:	48 89 43 20          	mov    %rax,0x20(%rbx)
    4ea9:	e8 12 e0 ff ff       	callq  2ec0 <_ZNSt6localeD1Ev@plt>
    4eae:	48 8b 05 db ba 20 00 	mov    0x20badb(%rip),%rax        # 210990 <_ZTTSt14basic_ifstreamIcSt11char_traitsIcEE@@GLIBCXX_3.4+0x8>
    4eb5:	48 8b 15 dc ba 20 00 	mov    0x20badc(%rip),%rdx        # 210998 <_ZTTSt14basic_ifstreamIcSt11char_traitsIcEE@@GLIBCXX_3.4+0x10>
    4ebc:	48 8d bb 10 01 00 00 	lea    0x110(%rbx),%rdi
    4ec3:	48 89 43 10          	mov    %rax,0x10(%rbx)
    4ec7:	48 8b 40 e8          	mov    -0x18(%rax),%rax
    4ecb:	48 89 54 03 10       	mov    %rdx,0x10(%rbx,%rax,1)
    4ed0:	48 8d 05 51 b9 20 00 	lea    0x20b951(%rip),%rax        # 210828 <_ZTVSt9basic_iosIcSt11char_traitsIcEE@@GLIBCXX_3.4+0x10>
    4ed7:	48 c7 43 18 00 00 00 	movq   $0x0,0x18(%rbx)
    4ede:	00 
    4edf:	48 89 83 10 01 00 00 	mov    %rax,0x110(%rbx)
    4ee6:	48 83 c4 08          	add    $0x8,%rsp
    4eea:	5b                   	pop    %rbx
    4eeb:	5d                   	pop    %rbp
    4eec:	41 5c                	pop    %r12
    4eee:	41 5d                	pop    %r13
    4ef0:	e9 4b dd ff ff       	jmpq   2c40 <_ZNSt8ios_baseD2Ev@plt>
    4ef5:	0f 1f 00             	nopl   (%rax)
    4ef8:	4c 89 e7             	mov    %r12,%rdi
    4efb:	e8 f0 dc ff ff       	callq  2bf0 <_ZNSt13basic_filebufIcSt11char_traitsIcEE5closeEv@plt>
    4f00:	48 85 c0             	test   %rax,%rax
    4f03:	0f 85 4f ff ff ff    	jne    4e58 <_ZN4util2io3MMFIidED1Ev+0x28>
    4f09:	48 8b 43 10          	mov    0x10(%rbx),%rax
    4f0d:	4c 8d 6b 10          	lea    0x10(%rbx),%r13
    4f11:	48 8b 78 e8          	mov    -0x18(%rax),%rdi
    4f15:	4c 01 ef             	add    %r13,%rdi
    4f18:	8b 77 20             	mov    0x20(%rdi),%esi
    4f1b:	83 ce 04             	or     $0x4,%esi
    4f1e:	e8 8d e0 ff ff       	callq  2fb0 <_ZNSt9basic_iosIcSt11char_traitsIcEE5clearESt12_Ios_Iostate@plt>
    4f23:	e9 30 ff ff ff       	jmpq   4e58 <_ZN4util2io3MMFIidED1Ev+0x28>
    4f28:	0f 1f 84 00 00 00 00 	nopl   0x0(%rax,%rax,1)
    4f2f:	00 

0000000000004f30 <_ZNK4util2io3MMFIidE9GetNrRowsEv>:
    4f30:	8b 07                	mov    (%rdi),%eax
    4f32:	c3                   	retq   
    4f33:	66 2e 0f 1f 84 00 00 	nopw   %cs:0x0(%rax,%rax,1)
    4f3a:	00 00 00 
    4f3d:	0f 1f 00             	nopl   (%rax)

0000000000004f40 <_ZNK4util2io3MMFIidE9GetNrColsEv>:
    4f40:	8b 47 04             	mov    0x4(%rdi),%eax
    4f43:	c3                   	retq   
    4f44:	66 2e 0f 1f 84 00 00 	nopw   %cs:0x0(%rax,%rax,1)
    4f4b:	00 00 00 
    4f4e:	66 90                	xchg   %ax,%ax

0000000000004f50 <_ZNK4util2io3MMFIidE13GetNrNonzerosEv>:
    4f50:	80 bf 18 02 00 00 00 	cmpb   $0x0,0x218(%rdi)
    4f57:	75 17                	jne    4f70 <_ZNK4util2io3MMFIidE13GetNrNonzerosEv+0x20>
    4f59:	80 bf 19 02 00 00 00 	cmpb   $0x0,0x219(%rdi)
    4f60:	75 0e                	jne    4f70 <_ZNK4util2io3MMFIidE13GetNrNonzerosEv+0x20>
    4f62:	8b 47 08             	mov    0x8(%rdi),%eax
    4f65:	c3                   	retq   
    4f66:	66 2e 0f 1f 84 00 00 	nopw   %cs:0x0(%rax,%rax,1)
    4f6d:	00 00 00 
    4f70:	48 8b 87 28 02 00 00 	mov    0x228(%rdi),%rax
    4f77:	48 2b 87 20 02 00 00 	sub    0x220(%rdi),%rax
    4f7e:	48 c1 f8 04          	sar    $0x4,%rax
    4f82:	c3                   	retq   
    4f83:	66 2e 0f 1f 84 00 00 	nopw   %cs:0x0(%rax,%rax,1)
    4f8a:	00 00 00 
    4f8d:	0f 1f 00             	nopl   (%rax)

0000000000004f90 <_ZNK4util2io3MMFIidE11IsSymmetricEv>:
    4f90:	0f b6 87 18 02 00 00 	movzbl 0x218(%rdi),%eax
    4f97:	c3                   	retq   
    4f98:	0f 1f 84 00 00 00 00 	nopl   0x0(%rax,%rax,1)
    4f9f:	00 

0000000000004fa0 <_ZNK4util2io3MMFIidE9IsColWiseEv>:
    4fa0:	0f b6 87 19 02 00 00 	movzbl 0x219(%rdi),%eax
    4fa7:	c3                   	retq   
    4fa8:	0f 1f 84 00 00 00 00 	nopl   0x0(%rax,%rax,1)
    4faf:	00 

0000000000004fb0 <_ZNK4util2io3MMFIidE11IsZeroBasedEv>:
    4fb0:	0f b6 87 1a 02 00 00 	movzbl 0x21a(%rdi),%eax
    4fb7:	c3                   	retq   
    4fb8:	0f 1f 84 00 00 00 00 	nopl   0x0(%rax,%rax,1)
    4fbf:	00 

0000000000004fc0 <_ZN4util2io3MMFIidE18ParseMmfHeaderLineERSt6vectorINSt7__cxx1112basic_stringIcSt11char_traitsIcESaIcEEESaIS9_EE>:
    4fc0:	41 57                	push   %r15
    4fc2:	41 56                	push   %r14
    4fc4:	49 89 fe             	mov    %rdi,%r14
    4fc7:	41 55                	push   %r13
    4fc9:	41 54                	push   %r12
    4fcb:	55                   	push   %rbp
    4fcc:	53                   	push   %rbx
    4fcd:	48 89 f3             	mov    %rsi,%rbx
    4fd0:	48 8d 35 ed 76 00 00 	lea    0x76ed(%rip),%rsi        # c6c4 <_IO_stdin_used+0x4>
    4fd7:	48 83 ec 08          	sub    $0x8,%rsp
    4fdb:	48 8b 3b             	mov    (%rbx),%rdi
    4fde:	e8 3d dc ff ff       	callq  2c20 <_ZNKSt7__cxx1112basic_stringIcSt11char_traitsIcESaIcEE7compareEPKc@plt>
    4fe3:	85 c0                	test   %eax,%eax
    4fe5:	74 39                	je     5020 <_ZN4util2io3MMFIidE18ParseMmfHeaderLineERSt6vectorINSt7__cxx1112basic_stringIcSt11char_traitsIcESaIcEEESaIS9_EE+0x60>
    4fe7:	48 8b 03             	mov    (%rbx),%rax
    4fea:	48 83 78 08 02       	cmpq   $0x2,0x8(%rax)
    4fef:	76 0c                	jbe    4ffd <_ZN4util2io3MMFIidE18ParseMmfHeaderLineERSt6vectorINSt7__cxx1112basic_stringIcSt11char_traitsIcESaIcEEESaIS9_EE+0x3d>
    4ff1:	48 8b 00             	mov    (%rax),%rax
    4ff4:	80 38 25             	cmpb   $0x25,(%rax)
    4ff7:	0f 84 e3 00 00 00    	je     50e0 <_ZN4util2io3MMFIidE18ParseMmfHeaderLineERSt6vectorINSt7__cxx1112basic_stringIcSt11char_traitsIcESaIcEEESaIS9_EE+0x120>
    4ffd:	41 c7 86 1c 02 00 00 	movl   $0x1,0x21c(%r14)
    5004:	01 00 00 00 
    5008:	48 83 c4 08          	add    $0x8,%rsp
    500c:	5b                   	pop    %rbx
    500d:	5d                   	pop    %rbp
    500e:	41 5c                	pop    %r12
    5010:	41 5d                	pop    %r13
    5012:	41 5e                	pop    %r14
    5014:	41 5f                	pop    %r15
    5016:	c3                   	retq   
    5017:	66 0f 1f 84 00 00 00 	nopw   0x0(%rax,%rax,1)
    501e:	00 00 
    5020:	48 8b 3b             	mov    (%rbx),%rdi
    5023:	4c 8b 63 08          	mov    0x8(%rbx),%r12
    5027:	49 29 fc             	sub    %rdi,%r12
    502a:	49 c1 fc 05          	sar    $0x5,%r12
    502e:	49 83 fc 04          	cmp    $0x4,%r12
    5032:	0f 86 4f 01 00 00    	jbe    5187 <_ZN4util2io3MMFIidE18ParseMmfHeaderLineERSt6vectorINSt7__cxx1112basic_stringIcSt11char_traitsIcESaIcEEESaIS9_EE+0x1c7>
    5038:	48 83 c7 40          	add    $0x40,%rdi
    503c:	48 8d 35 90 76 00 00 	lea    0x7690(%rip),%rsi        # c6d3 <_IO_stdin_used+0x13>
    5043:	e8 d8 db ff ff       	callq  2c20 <_ZNKSt7__cxx1112basic_stringIcSt11char_traitsIcESaIcEE7compareEPKc@plt>
    5048:	85 c0                	test   %eax,%eax
    504a:	0f 85 54 01 00 00    	jne    51a4 <_ZN4util2io3MMFIidE18ParseMmfHeaderLineERSt6vectorINSt7__cxx1112basic_stringIcSt11char_traitsIcESaIcEEESaIS9_EE+0x1e4>
    5050:	48 8b 03             	mov    (%rbx),%rax
    5053:	48 8d 35 84 76 00 00 	lea    0x7684(%rip),%rsi        # c6de <_IO_stdin_used+0x1e>
    505a:	48 8d b8 80 00 00 00 	lea    0x80(%rax),%rdi
    5061:	e8 ba db ff ff       	callq  2c20 <_ZNKSt7__cxx1112basic_stringIcSt11char_traitsIcESaIcEE7compareEPKc@plt>
    5066:	85 c0                	test   %eax,%eax
    5068:	0f 85 ca 00 00 00    	jne    5138 <_ZN4util2io3MMFIidE18ParseMmfHeaderLineERSt6vectorINSt7__cxx1112basic_stringIcSt11char_traitsIcESaIcEEESaIS9_EE+0x178>
    506e:	41 c6 86 18 02 00 00 	movb   $0x0,0x218(%r14)
    5075:	00 
    5076:	49 83 fc 05          	cmp    $0x5,%r12
    507a:	74 8c                	je     5008 <_ZN4util2io3MMFIidE18ParseMmfHeaderLineERSt6vectorINSt7__cxx1112basic_stringIcSt11char_traitsIcESaIcEEESaIS9_EE+0x48>
    507c:	bd 05 00 00 00       	mov    $0x5,%ebp
    5081:	4c 8d 3d 68 76 00 00 	lea    0x7668(%rip),%r15        # c6f0 <_IO_stdin_used+0x30>
    5088:	eb 1b                	jmp    50a5 <_ZN4util2io3MMFIidE18ParseMmfHeaderLineERSt6vectorINSt7__cxx1112basic_stringIcSt11char_traitsIcESaIcEEESaIS9_EE+0xe5>
    508a:	66 0f 1f 44 00 00    	nopw   0x0(%rax,%rax,1)
    5090:	41 c6 86 1a 02 00 00 	movb   $0x1,0x21a(%r14)
    5097:	01 
    5098:	48 83 c5 01          	add    $0x1,%rbp
    509c:	4c 39 e5             	cmp    %r12,%rbp
    509f:	0f 83 63 ff ff ff    	jae    5008 <_ZN4util2io3MMFIidE18ParseMmfHeaderLineERSt6vectorINSt7__cxx1112basic_stringIcSt11char_traitsIcESaIcEEESaIS9_EE+0x48>
    50a5:	49 89 ed             	mov    %rbp,%r13
    50a8:	48 8b 3b             	mov    (%rbx),%rdi
    50ab:	4c 89 fe             	mov    %r15,%rsi
    50ae:	49 c1 e5 05          	shl    $0x5,%r13
    50b2:	4c 01 ef             	add    %r13,%rdi
    50b5:	e8 66 db ff ff       	callq  2c20 <_ZNKSt7__cxx1112basic_stringIcSt11char_traitsIcESaIcEE7compareEPKc@plt>
    50ba:	85 c0                	test   %eax,%eax
    50bc:	74 d2                	je     5090 <_ZN4util2io3MMFIidE18ParseMmfHeaderLineERSt6vectorINSt7__cxx1112basic_stringIcSt11char_traitsIcESaIcEEESaIS9_EE+0xd0>
    50be:	48 8b 3b             	mov    (%rbx),%rdi
    50c1:	48 8d 35 2f 76 00 00 	lea    0x762f(%rip),%rsi        # c6f7 <_IO_stdin_used+0x37>
    50c8:	4c 01 ef             	add    %r13,%rdi
    50cb:	e8 50 db ff ff       	callq  2c20 <_ZNKSt7__cxx1112basic_stringIcSt11char_traitsIcESaIcEE7compareEPKc@plt>
    50d0:	85 c0                	test   %eax,%eax
    50d2:	75 3c                	jne    5110 <_ZN4util2io3MMFIidE18ParseMmfHeaderLineERSt6vectorINSt7__cxx1112basic_stringIcSt11char_traitsIcESaIcEEESaIS9_EE+0x150>
    50d4:	41 c6 86 1a 02 00 00 	movb   $0x0,0x21a(%r14)
    50db:	00 
    50dc:	eb ba                	jmp    5098 <_ZN4util2io3MMFIidE18ParseMmfHeaderLineERSt6vectorINSt7__cxx1112basic_stringIcSt11char_traitsIcESaIcEEESaIS9_EE+0xd8>
    50de:	66 90                	xchg   %ax,%ax
    50e0:	80 78 01 25          	cmpb   $0x25,0x1(%rax)
    50e4:	0f 85 13 ff ff ff    	jne    4ffd <_ZN4util2io3MMFIidE18ParseMmfHeaderLineERSt6vectorINSt7__cxx1112basic_stringIcSt11char_traitsIcESaIcEEESaIS9_EE+0x3d>
    50ea:	48 8d 3d 2f bf 20 00 	lea    0x20bf2f(%rip),%rdi        # 211020 <_ZSt4cout@@GLIBCXX_3.4>
    50f1:	48 8d 35 18 76 00 00 	lea    0x7618(%rip),%rsi        # c710 <_IO_stdin_used+0x50>
    50f8:	e8 d3 dc ff ff       	callq  2dd0 <_ZStlsISt11char_traitsIcEERSt13basic_ostreamIcT_ES5_PKc@plt>
    50fd:	bf 01 00 00 00       	mov    $0x1,%edi
    5102:	e8 59 dd ff ff       	callq  2e60 <exit@plt>
    5107:	66 0f 1f 84 00 00 00 	nopw   0x0(%rax,%rax,1)
    510e:	00 00 
    5110:	48 8b 3b             	mov    (%rbx),%rdi
    5113:	48 8d 35 e4 75 00 00 	lea    0x75e4(%rip),%rsi        # c6fe <_IO_stdin_used+0x3e>
    511a:	4c 01 ef             	add    %r13,%rdi
    511d:	e8 fe da ff ff       	callq  2c20 <_ZNKSt7__cxx1112basic_stringIcSt11char_traitsIcESaIcEE7compareEPKc@plt>
    5122:	85 c0                	test   %eax,%eax
    5124:	75 3a                	jne    5160 <_ZN4util2io3MMFIidE18ParseMmfHeaderLineERSt6vectorINSt7__cxx1112basic_stringIcSt11char_traitsIcESaIcEEESaIS9_EE+0x1a0>
    5126:	41 c6 86 19 02 00 00 	movb   $0x1,0x219(%r14)
    512d:	01 
    512e:	e9 65 ff ff ff       	jmpq   5098 <_ZN4util2io3MMFIidE18ParseMmfHeaderLineERSt6vectorINSt7__cxx1112basic_stringIcSt11char_traitsIcESaIcEEESaIS9_EE+0xd8>
    5133:	0f 1f 44 00 00       	nopl   0x0(%rax,%rax,1)
    5138:	48 8b 03             	mov    (%rbx),%rax
    513b:	48 8d 35 a4 75 00 00 	lea    0x75a4(%rip),%rsi        # c6e6 <_IO_stdin_used+0x26>
    5142:	48 8d b8 80 00 00 00 	lea    0x80(%rax),%rdi
    5149:	e8 d2 da ff ff       	callq  2c20 <_ZNKSt7__cxx1112basic_stringIcSt11char_traitsIcESaIcEE7compareEPKc@plt>
    514e:	85 c0                	test   %eax,%eax
    5150:	75 6f                	jne    51c1 <_ZN4util2io3MMFIidE18ParseMmfHeaderLineERSt6vectorINSt7__cxx1112basic_stringIcSt11char_traitsIcESaIcEEESaIS9_EE+0x201>
    5152:	41 c6 86 18 02 00 00 	movb   $0x1,0x218(%r14)
    5159:	01 
    515a:	e9 17 ff ff ff       	jmpq   5076 <_ZN4util2io3MMFIidE18ParseMmfHeaderLineERSt6vectorINSt7__cxx1112basic_stringIcSt11char_traitsIcESaIcEEESaIS9_EE+0xb6>
    515f:	90                   	nop
    5160:	48 8b 3b             	mov    (%rbx),%rdi
    5163:	48 8d 35 9b 75 00 00 	lea    0x759b(%rip),%rsi        # c705 <_IO_stdin_used+0x45>
    516a:	4c 01 ef             	add    %r13,%rdi
    516d:	e8 ae da ff ff       	callq  2c20 <_ZNKSt7__cxx1112basic_stringIcSt11char_traitsIcESaIcEE7compareEPKc@plt>
    5172:	85 c0                	test   %eax,%eax
    5174:	0f 85 1e ff ff ff    	jne    5098 <_ZN4util2io3MMFIidE18ParseMmfHeaderLineERSt6vectorINSt7__cxx1112basic_stringIcSt11char_traitsIcESaIcEEESaIS9_EE+0xd8>
    517a:	41 c6 86 19 02 00 00 	movb   $0x0,0x219(%r14)
    5181:	00 
    5182:	e9 11 ff ff ff       	jmpq   5098 <_ZN4util2io3MMFIidE18ParseMmfHeaderLineERSt6vectorINSt7__cxx1112basic_stringIcSt11char_traitsIcESaIcEEESaIS9_EE+0xd8>
    5187:	48 8d 3d 92 be 20 00 	lea    0x20be92(%rip),%rdi        # 211020 <_ZSt4cout@@GLIBCXX_3.4>
    518e:	48 8d 35 a3 75 00 00 	lea    0x75a3(%rip),%rsi        # c738 <_IO_stdin_used+0x78>
    5195:	e8 36 dc ff ff       	callq  2dd0 <_ZStlsISt11char_traitsIcEERSt13basic_ostreamIcT_ES5_PKc@plt>
    519a:	bf 01 00 00 00       	mov    $0x1,%edi
    519f:	e8 bc dc ff ff       	callq  2e60 <exit@plt>
    51a4:	48 8d 3d 75 be 20 00 	lea    0x20be75(%rip),%rdi        # 211020 <_ZSt4cout@@GLIBCXX_3.4>
    51ab:	48 8d 35 b6 75 00 00 	lea    0x75b6(%rip),%rsi        # c768 <_IO_stdin_used+0xa8>
    51b2:	e8 19 dc ff ff       	callq  2dd0 <_ZStlsISt11char_traitsIcEERSt13basic_ostreamIcT_ES5_PKc@plt>
    51b7:	bf 01 00 00 00       	mov    $0x1,%edi
    51bc:	e8 9f dc ff ff       	callq  2e60 <exit@plt>
    51c1:	48 8d 3d 58 be 20 00 	lea    0x20be58(%rip),%rdi        # 211020 <_ZSt4cout@@GLIBCXX_3.4>
    51c8:	48 8d 35 d1 75 00 00 	lea    0x75d1(%rip),%rsi        # c7a0 <_IO_stdin_used+0xe0>
    51cf:	e8 fc db ff ff       	callq  2dd0 <_ZStlsISt11char_traitsIcEERSt13basic_ostreamIcT_ES5_PKc@plt>
    51d4:	bf 01 00 00 00       	mov    $0x1,%edi
    51d9:	e8 82 dc ff ff       	callq  2e60 <exit@plt>
    51de:	66 90                	xchg   %ax,%ax

00000000000051e0 <_ZN4util2io3MMFIidE8iteratorC1Ev>:
    51e0:	c3                   	retq   
    51e1:	66 2e 0f 1f 84 00 00 	nopw   %cs:0x0(%rax,%rax,1)
    51e8:	00 00 00 
    51eb:	0f 1f 44 00 00       	nopl   0x0(%rax,%rax,1)

00000000000051f0 <_ZN4util2io3MMFIidE8iteratoreqERKS3_>:
    51f0:	31 c0                	xor    %eax,%eax
    51f2:	48 8b 16             	mov    (%rsi),%rdx
    51f5:	48 39 17             	cmp    %rdx,(%rdi)
    51f8:	74 06                	je     5200 <_ZN4util2io3MMFIidE8iteratoreqERKS3_+0x10>
    51fa:	c3                   	retq   
    51fb:	0f 1f 44 00 00       	nopl   0x0(%rax,%rax,1)
    5200:	48 8b 46 08          	mov    0x8(%rsi),%rax
    5204:	48 39 47 08          	cmp    %rax,0x8(%rdi)
    5208:	0f 94 c0             	sete   %al
    520b:	c3                   	retq   
    520c:	0f 1f 40 00          	nopl   0x0(%rax)

0000000000005210 <_ZN4util2io3MMFIidE8iteratorneERKS3_>:
    5210:	b8 01 00 00 00       	mov    $0x1,%eax
    5215:	48 8b 16             	mov    (%rsi),%rdx
    5218:	48 39 17             	cmp    %rdx,(%rdi)
    521b:	74 03                	je     5220 <_ZN4util2io3MMFIidE8iteratorneERKS3_+0x10>
    521d:	c3                   	retq   
    521e:	66 90                	xchg   %ax,%ax
    5220:	48 8b 46 08          	mov    0x8(%rsi),%rax
    5224:	48 39 47 08          	cmp    %rax,0x8(%rdi)
    5228:	0f 95 c0             	setne  %al
    522b:	c3                   	retq   
    522c:	0f 1f 40 00          	nopl   0x0(%rax)

0000000000005230 <_ZN4util2io3MMFIidE8iteratordeEv>:
    5230:	48 8b 07             	mov    (%rdi),%rax
    5233:	80 b8 18 02 00 00 00 	cmpb   $0x0,0x218(%rax)
    523a:	75 14                	jne    5250 <_ZN4util2io3MMFIidE8iteratordeEv+0x20>
    523c:	80 b8 19 02 00 00 00 	cmpb   $0x0,0x219(%rax)
    5243:	75 0b                	jne    5250 <_ZN4util2io3MMFIidE8iteratordeEv+0x20>
    5245:	80 7f 20 00          	cmpb   $0x0,0x20(%rdi)
    5249:	74 18                	je     5263 <_ZN4util2io3MMFIidE8iteratordeEv+0x33>
    524b:	48 8d 47 10          	lea    0x10(%rdi),%rax
    524f:	c3                   	retq   
    5250:	48 8b 7f 08          	mov    0x8(%rdi),%rdi
    5254:	48 c1 e7 04          	shl    $0x4,%rdi
    5258:	48 03 b8 20 02 00 00 	add    0x220(%rax),%rdi
    525f:	48 89 f8             	mov    %rdi,%rax
    5262:	c3                   	retq   
    5263:	48 8d 3d b6 bd 20 00 	lea    0x20bdb6(%rip),%rdi        # 211020 <_ZSt4cout@@GLIBCXX_3.4>
    526a:	48 83 ec 08          	sub    $0x8,%rsp
    526e:	48 8d 35 63 75 00 00 	lea    0x7563(%rip),%rsi        # c7d8 <_IO_stdin_used+0x118>
    5275:	e8 56 db ff ff       	callq  2dd0 <_ZStlsISt11char_traitsIcEERSt13basic_ostreamIcT_ES5_PKc@plt>
    527a:	bf 01 00 00 00       	mov    $0x1,%edi
    527f:	e8 dc db ff ff       	callq  2e60 <exit@plt>
    5284:	66 2e 0f 1f 84 00 00 	nopw   %cs:0x0(%rax,%rax,1)
    528b:	00 00 00 
    528e:	66 90                	xchg   %ax,%ax

0000000000005290 <_ZNSt6vectorINSt7__cxx1112basic_stringIcSt11char_traitsIcESaIcEEESaIS5_EED1Ev>:
    5290:	41 54                	push   %r12
    5292:	49 89 fc             	mov    %rdi,%r12
    5295:	55                   	push   %rbp
    5296:	53                   	push   %rbx
    5297:	48 8b 6f 08          	mov    0x8(%rdi),%rbp
    529b:	48 8b 1f             	mov    (%rdi),%rbx
    529e:	48 39 dd             	cmp    %rbx,%rbp
    52a1:	74 23                	je     52c6 <_ZNSt6vectorINSt7__cxx1112basic_stringIcSt11char_traitsIcESaIcEEESaIS5_EED1Ev+0x36>
    52a3:	0f 1f 44 00 00       	nopl   0x0(%rax,%rax,1)
    52a8:	48 8b 3b             	mov    (%rbx),%rdi
    52ab:	48 8d 43 10          	lea    0x10(%rbx),%rax
    52af:	48 39 c7             	cmp    %rax,%rdi
    52b2:	74 2c                	je     52e0 <_ZNSt6vectorINSt7__cxx1112basic_stringIcSt11char_traitsIcESaIcEEESaIS5_EED1Ev+0x50>
    52b4:	e8 07 db ff ff       	callq  2dc0 <_ZdlPv@plt>
    52b9:	48 83 c3 20          	add    $0x20,%rbx
    52bd:	48 39 dd             	cmp    %rbx,%rbp
    52c0:	75 e6                	jne    52a8 <_ZNSt6vectorINSt7__cxx1112basic_stringIcSt11char_traitsIcESaIcEEESaIS5_EED1Ev+0x18>
    52c2:	49 8b 1c 24          	mov    (%r12),%rbx
    52c6:	48 85 db             	test   %rbx,%rbx
    52c9:	74 25                	je     52f0 <_ZNSt6vectorINSt7__cxx1112basic_stringIcSt11char_traitsIcESaIcEEESaIS5_EED1Ev+0x60>
    52cb:	48 89 df             	mov    %rbx,%rdi
    52ce:	5b                   	pop    %rbx
    52cf:	5d                   	pop    %rbp
    52d0:	41 5c                	pop    %r12
    52d2:	e9 e9 da ff ff       	jmpq   2dc0 <_ZdlPv@plt>
    52d7:	66 0f 1f 84 00 00 00 	nopw   0x0(%rax,%rax,1)
    52de:	00 00 
    52e0:	48 83 c3 20          	add    $0x20,%rbx
    52e4:	48 39 dd             	cmp    %rbx,%rbp
    52e7:	75 bf                	jne    52a8 <_ZNSt6vectorINSt7__cxx1112basic_stringIcSt11char_traitsIcESaIcEEESaIS5_EED1Ev+0x18>
    52e9:	eb d7                	jmp    52c2 <_ZNSt6vectorINSt7__cxx1112basic_stringIcSt11char_traitsIcESaIcEEESaIS5_EED1Ev+0x32>
    52eb:	0f 1f 44 00 00       	nopl   0x0(%rax,%rax,1)
    52f0:	5b                   	pop    %rbx
    52f1:	5d                   	pop    %rbp
    52f2:	41 5c                	pop    %r12
    52f4:	c3                   	retq   
    52f5:	66 2e 0f 1f 84 00 00 	nopw   %cs:0x0(%rax,%rax,1)
    52fc:	00 00 00 
    52ff:	90                   	nop

0000000000005300 <_ZNSt6vectorINSt7__cxx1112basic_stringIcSt11char_traitsIcESaIcEEESaIS5_EE17_M_realloc_insertIJRKS5_EEEvN9__gnu_cxx17__normal_iteratorIPS5_S7_EEDpOT_>:
    5300:	41 57                	push   %r15
    5302:	49 89 f7             	mov    %rsi,%r15
    5305:	41 56                	push   %r14
    5307:	41 55                	push   %r13
    5309:	41 54                	push   %r12
    530b:	49 89 f4             	mov    %rsi,%r12
    530e:	55                   	push   %rbp
    530f:	48 89 fd             	mov    %rdi,%rbp
    5312:	53                   	push   %rbx
    5313:	48 89 f3             	mov    %rsi,%rbx
    5316:	48 83 ec 38          	sub    $0x38,%rsp
    531a:	48 8b 0f             	mov    (%rdi),%rcx
    531d:	64 48 8b 04 25 28 00 	mov    %fs:0x28,%rax
    5324:	00 00 
    5326:	48 89 44 24 28       	mov    %rax,0x28(%rsp)
    532b:	31 c0                	xor    %eax,%eax
    532d:	48 8b 47 08          	mov    0x8(%rdi),%rax
    5331:	49 29 cf             	sub    %rcx,%r15
    5334:	48 29 c8             	sub    %rcx,%rax
    5337:	48 c1 f8 05          	sar    $0x5,%rax
    533b:	0f 84 1f 01 00 00    	je     5460 <_ZNSt6vectorINSt7__cxx1112basic_stringIcSt11char_traitsIcESaIcEEESaIS5_EE17_M_realloc_insertIJRKS5_EEEvN9__gnu_cxx17__normal_iteratorIPS5_S7_EEDpOT_+0x160>
    5341:	4c 8d 2c 00          	lea    (%rax,%rax,1),%r13
    5345:	4c 39 e8             	cmp    %r13,%rax
    5348:	0f 86 92 02 00 00    	jbe    55e0 <_ZNSt6vectorINSt7__cxx1112basic_stringIcSt11char_traitsIcESaIcEEESaIS5_EE17_M_realloc_insertIJRKS5_EEEvN9__gnu_cxx17__normal_iteratorIPS5_S7_EEDpOT_+0x2e0>
    534e:	49 c7 c5 e0 ff ff ff 	mov    $0xffffffffffffffe0,%r13
    5355:	4c 89 ef             	mov    %r13,%rdi
    5358:	48 89 54 24 08       	mov    %rdx,0x8(%rsp)
    535d:	e8 7e da ff ff       	callq  2de0 <_Znwm@plt>
    5362:	48 8b 54 24 08       	mov    0x8(%rsp),%rdx
    5367:	49 89 c6             	mov    %rax,%r14
    536a:	4d 01 f7             	add    %r14,%r15
    536d:	4c 89 7c 24 08       	mov    %r15,0x8(%rsp)
    5372:	74 65                	je     53d9 <_ZNSt6vectorINSt7__cxx1112basic_stringIcSt11char_traitsIcESaIcEEESaIS5_EE17_M_realloc_insertIJRKS5_EEEvN9__gnu_cxx17__normal_iteratorIPS5_S7_EEDpOT_+0xd9>
    5374:	49 8d 77 10          	lea    0x10(%r15),%rsi
    5378:	48 8b 02             	mov    (%rdx),%rax
    537b:	49 89 37             	mov    %rsi,(%r15)
    537e:	4c 8b 7a 08          	mov    0x8(%rdx),%r15
    5382:	48 89 74 24 10       	mov    %rsi,0x10(%rsp)
    5387:	48 89 c6             	mov    %rax,%rsi
    538a:	4c 01 fe             	add    %r15,%rsi
    538d:	48 89 44 24 18       	mov    %rax,0x18(%rsp)
    5392:	74 09                	je     539d <_ZNSt6vectorINSt7__cxx1112basic_stringIcSt11char_traitsIcESaIcEEESaIS5_EE17_M_realloc_insertIJRKS5_EEEvN9__gnu_cxx17__normal_iteratorIPS5_S7_EEDpOT_+0x9d>
    5394:	48 85 c0             	test   %rax,%rax
    5397:	0f 84 a5 02 00 00    	je     5642 <_ZNSt6vectorINSt7__cxx1112basic_stringIcSt11char_traitsIcESaIcEEESaIS5_EE17_M_realloc_insertIJRKS5_EEEvN9__gnu_cxx17__normal_iteratorIPS5_S7_EEDpOT_+0x342>
    539d:	4c 89 7c 24 20       	mov    %r15,0x20(%rsp)
    53a2:	49 83 ff 0f          	cmp    $0xf,%r15
    53a6:	0f 87 e4 01 00 00    	ja     5590 <_ZNSt6vectorINSt7__cxx1112basic_stringIcSt11char_traitsIcESaIcEEESaIS5_EE17_M_realloc_insertIJRKS5_EEEvN9__gnu_cxx17__normal_iteratorIPS5_S7_EEDpOT_+0x290>
    53ac:	49 83 ff 01          	cmp    $0x1,%r15
    53b0:	0f 85 5a 02 00 00    	jne    5610 <_ZNSt6vectorINSt7__cxx1112basic_stringIcSt11char_traitsIcESaIcEEESaIS5_EE17_M_realloc_insertIJRKS5_EEEvN9__gnu_cxx17__normal_iteratorIPS5_S7_EEDpOT_+0x310>
    53b6:	48 8b 44 24 18       	mov    0x18(%rsp),%rax
    53bb:	48 8b 7c 24 08       	mov    0x8(%rsp),%rdi
    53c0:	0f b6 00             	movzbl (%rax),%eax
    53c3:	88 47 10             	mov    %al,0x10(%rdi)
    53c6:	48 8b 44 24 08       	mov    0x8(%rsp),%rax
    53cb:	4c 89 78 08          	mov    %r15,0x8(%rax)
    53cf:	48 8b 44 24 10       	mov    0x10(%rsp),%rax
    53d4:	42 c6 04 38 00       	movb   $0x0,(%rax,%r15,1)
    53d9:	48 8b 55 00          	mov    0x0(%rbp),%rdx
    53dd:	4c 39 e2             	cmp    %r12,%rdx
    53e0:	0f 84 22 02 00 00    	je     5608 <_ZNSt6vectorINSt7__cxx1112basic_stringIcSt11char_traitsIcESaIcEEESaIS5_EE17_M_realloc_insertIJRKS5_EEEvN9__gnu_cxx17__normal_iteratorIPS5_S7_EEDpOT_+0x308>
    53e6:	48 8d 4a 20          	lea    0x20(%rdx),%rcx
    53ea:	4c 89 e6             	mov    %r12,%rsi
    53ed:	48 8d 42 10          	lea    0x10(%rdx),%rax
    53f1:	48 29 ce             	sub    %rcx,%rsi
    53f4:	49 89 f7             	mov    %rsi,%r15
    53f7:	48 8d 74 32 30       	lea    0x30(%rdx,%rsi,1),%rsi
    53fc:	4c 89 f2             	mov    %r14,%rdx
    53ff:	49 c1 ef 05          	shr    $0x5,%r15
    5403:	eb 31                	jmp    5436 <_ZNSt6vectorINSt7__cxx1112basic_stringIcSt11char_traitsIcESaIcEEESaIS5_EE17_M_realloc_insertIJRKS5_EEEvN9__gnu_cxx17__normal_iteratorIPS5_S7_EEDpOT_+0x136>
    5405:	0f 1f 00             	nopl   (%rax)
    5408:	48 89 0a             	mov    %rcx,(%rdx)
    540b:	48 8b 08             	mov    (%rax),%rcx
    540e:	48 89 4a 10          	mov    %rcx,0x10(%rdx)
    5412:	48 8b 48 f8          	mov    -0x8(%rax),%rcx
    5416:	48 89 4a 08          	mov    %rcx,0x8(%rdx)
    541a:	48 89 40 f0          	mov    %rax,-0x10(%rax)
    541e:	48 c7 40 f8 00 00 00 	movq   $0x0,-0x8(%rax)
    5425:	00 
    5426:	c6 00 00             	movb   $0x0,(%rax)
    5429:	48 83 c0 20          	add    $0x20,%rax
    542d:	48 83 c2 20          	add    $0x20,%rdx
    5431:	48 39 c6             	cmp    %rax,%rsi
    5434:	74 3a                	je     5470 <_ZNSt6vectorINSt7__cxx1112basic_stringIcSt11char_traitsIcESaIcEEESaIS5_EE17_M_realloc_insertIJRKS5_EEEvN9__gnu_cxx17__normal_iteratorIPS5_S7_EEDpOT_+0x170>
    5436:	48 85 d2             	test   %rdx,%rdx
    5439:	74 ee                	je     5429 <_ZNSt6vectorINSt7__cxx1112basic_stringIcSt11char_traitsIcESaIcEEESaIS5_EE17_M_realloc_insertIJRKS5_EEEvN9__gnu_cxx17__normal_iteratorIPS5_S7_EEDpOT_+0x129>
    543b:	48 8d 4a 10          	lea    0x10(%rdx),%rcx
    543f:	48 89 0a             	mov    %rcx,(%rdx)
    5442:	48 8b 48 f0          	mov    -0x10(%rax),%rcx
    5446:	48 39 c8             	cmp    %rcx,%rax
    5449:	75 bd                	jne    5408 <_ZNSt6vectorINSt7__cxx1112basic_stringIcSt11char_traitsIcESaIcEEESaIS5_EE17_M_realloc_insertIJRKS5_EEEvN9__gnu_cxx17__normal_iteratorIPS5_S7_EEDpOT_+0x108>
    544b:	c5 fa 6f 00          	vmovdqu (%rax),%xmm0
    544f:	c5 f8 11 42 10       	vmovups %xmm0,0x10(%rdx)
    5454:	eb bc                	jmp    5412 <_ZNSt6vectorINSt7__cxx1112basic_stringIcSt11char_traitsIcESaIcEEESaIS5_EE17_M_realloc_insertIJRKS5_EEEvN9__gnu_cxx17__normal_iteratorIPS5_S7_EEDpOT_+0x112>
    5456:	66 2e 0f 1f 84 00 00 	nopw   %cs:0x0(%rax,%rax,1)
    545d:	00 00 00 
    5460:	41 bd 01 00 00 00    	mov    $0x1,%r13d
    5466:	49 c1 e5 05          	shl    $0x5,%r13
    546a:	e9 e6 fe ff ff       	jmpq   5355 <_ZNSt6vectorINSt7__cxx1112basic_stringIcSt11char_traitsIcESaIcEEESaIS5_EE17_M_realloc_insertIJRKS5_EEEvN9__gnu_cxx17__normal_iteratorIPS5_S7_EEDpOT_+0x55>
    546f:	90                   	nop
    5470:	49 83 c7 01          	add    $0x1,%r15
    5474:	49 c1 e7 05          	shl    $0x5,%r15
    5478:	4d 01 f7             	add    %r14,%r15
    547b:	48 8b 55 08          	mov    0x8(%rbp),%rdx
    547f:	49 83 c7 20          	add    $0x20,%r15
    5483:	4c 39 e2             	cmp    %r12,%rdx
    5486:	0f 84 83 00 00 00    	je     550f <_ZNSt6vectorINSt7__cxx1112basic_stringIcSt11char_traitsIcESaIcEEESaIS5_EE17_M_realloc_insertIJRKS5_EEEvN9__gnu_cxx17__normal_iteratorIPS5_S7_EEDpOT_+0x20f>
    548c:	49 8d 4c 24 20       	lea    0x20(%r12),%rcx
    5491:	49 8d 44 24 10       	lea    0x10(%r12),%rax
    5496:	48 29 ca             	sub    %rcx,%rdx
    5499:	48 89 d7             	mov    %rdx,%rdi
    549c:	4a 8d 74 22 30       	lea    0x30(%rdx,%r12,1),%rsi
    54a1:	4c 89 fa             	mov    %r15,%rdx
    54a4:	48 c1 ef 05          	shr    $0x5,%rdi
    54a8:	eb 34                	jmp    54de <_ZNSt6vectorINSt7__cxx1112basic_stringIcSt11char_traitsIcESaIcEEESaIS5_EE17_M_realloc_insertIJRKS5_EEEvN9__gnu_cxx17__normal_iteratorIPS5_S7_EEDpOT_+0x1de>
    54aa:	66 0f 1f 44 00 00    	nopw   0x0(%rax,%rax,1)
    54b0:	48 89 0a             	mov    %rcx,(%rdx)
    54b3:	48 8b 08             	mov    (%rax),%rcx
    54b6:	48 89 4a 10          	mov    %rcx,0x10(%rdx)
    54ba:	48 8b 48 f8          	mov    -0x8(%rax),%rcx
    54be:	48 89 40 f0          	mov    %rax,-0x10(%rax)
    54c2:	48 c7 40 f8 00 00 00 	movq   $0x0,-0x8(%rax)
    54c9:	00 
    54ca:	48 89 4a 08          	mov    %rcx,0x8(%rdx)
    54ce:	c6 00 00             	movb   $0x0,(%rax)
    54d1:	48 83 c0 20          	add    $0x20,%rax
    54d5:	48 83 c2 20          	add    $0x20,%rdx
    54d9:	48 39 c6             	cmp    %rax,%rsi
    54dc:	74 22                	je     5500 <_ZNSt6vectorINSt7__cxx1112basic_stringIcSt11char_traitsIcESaIcEEESaIS5_EE17_M_realloc_insertIJRKS5_EEEvN9__gnu_cxx17__normal_iteratorIPS5_S7_EEDpOT_+0x200>
    54de:	48 85 d2             	test   %rdx,%rdx
    54e1:	74 ee                	je     54d1 <_ZNSt6vectorINSt7__cxx1112basic_stringIcSt11char_traitsIcESaIcEEESaIS5_EE17_M_realloc_insertIJRKS5_EEEvN9__gnu_cxx17__normal_iteratorIPS5_S7_EEDpOT_+0x1d1>
    54e3:	48 8d 4a 10          	lea    0x10(%rdx),%rcx
    54e7:	48 89 0a             	mov    %rcx,(%rdx)
    54ea:	48 8b 48 f0          	mov    -0x10(%rax),%rcx
    54ee:	48 39 c1             	cmp    %rax,%rcx
    54f1:	75 bd                	jne    54b0 <_ZNSt6vectorINSt7__cxx1112basic_stringIcSt11char_traitsIcESaIcEEESaIS5_EE17_M_realloc_insertIJRKS5_EEEvN9__gnu_cxx17__normal_iteratorIPS5_S7_EEDpOT_+0x1b0>
    54f3:	c5 fa 6f 00          	vmovdqu (%rax),%xmm0
    54f7:	c5 f8 11 42 10       	vmovups %xmm0,0x10(%rdx)
    54fc:	eb bc                	jmp    54ba <_ZNSt6vectorINSt7__cxx1112basic_stringIcSt11char_traitsIcESaIcEEESaIS5_EE17_M_realloc_insertIJRKS5_EEEvN9__gnu_cxx17__normal_iteratorIPS5_S7_EEDpOT_+0x1ba>
    54fe:	66 90                	xchg   %ax,%ax
    5500:	48 8d 47 01          	lea    0x1(%rdi),%rax
    5504:	48 8b 5d 08          	mov    0x8(%rbp),%rbx
    5508:	48 c1 e0 05          	shl    $0x5,%rax
    550c:	49 01 c7             	add    %rax,%r15
    550f:	4c 8b 65 00          	mov    0x0(%rbp),%r12
    5513:	49 39 dc             	cmp    %rbx,%r12
    5516:	74 28                	je     5540 <_ZNSt6vectorINSt7__cxx1112basic_stringIcSt11char_traitsIcESaIcEEESaIS5_EE17_M_realloc_insertIJRKS5_EEEvN9__gnu_cxx17__normal_iteratorIPS5_S7_EEDpOT_+0x240>
    5518:	0f 1f 84 00 00 00 00 	nopl   0x0(%rax,%rax,1)
    551f:	00 
    5520:	49 8b 3c 24          	mov    (%r12),%rdi
    5524:	49 8d 44 24 10       	lea    0x10(%r12),%rax
    5529:	48 39 c7             	cmp    %rax,%rdi
    552c:	74 52                	je     5580 <_ZNSt6vectorINSt7__cxx1112basic_stringIcSt11char_traitsIcESaIcEEESaIS5_EE17_M_realloc_insertIJRKS5_EEEvN9__gnu_cxx17__normal_iteratorIPS5_S7_EEDpOT_+0x280>
    552e:	e8 8d d8 ff ff       	callq  2dc0 <_ZdlPv@plt>
    5533:	49 83 c4 20          	add    $0x20,%r12
    5537:	4c 39 e3             	cmp    %r12,%rbx
    553a:	75 e4                	jne    5520 <_ZNSt6vectorINSt7__cxx1112basic_stringIcSt11char_traitsIcESaIcEEESaIS5_EE17_M_realloc_insertIJRKS5_EEEvN9__gnu_cxx17__normal_iteratorIPS5_S7_EEDpOT_+0x220>
    553c:	48 8b 5d 00          	mov    0x0(%rbp),%rbx
    5540:	48 85 db             	test   %rbx,%rbx
    5543:	74 08                	je     554d <_ZNSt6vectorINSt7__cxx1112basic_stringIcSt11char_traitsIcESaIcEEESaIS5_EE17_M_realloc_insertIJRKS5_EEEvN9__gnu_cxx17__normal_iteratorIPS5_S7_EEDpOT_+0x24d>
    5545:	48 89 df             	mov    %rbx,%rdi
    5548:	e8 73 d8 ff ff       	callq  2dc0 <_ZdlPv@plt>
    554d:	4d 01 f5             	add    %r14,%r13
    5550:	4c 89 75 00          	mov    %r14,0x0(%rbp)
    5554:	48 8b 44 24 28       	mov    0x28(%rsp),%rax
    5559:	64 48 33 04 25 28 00 	xor    %fs:0x28,%rax
    5560:	00 00 
    5562:	4c 89 7d 08          	mov    %r15,0x8(%rbp)
    5566:	4c 89 6d 10          	mov    %r13,0x10(%rbp)
    556a:	0f 85 b0 00 00 00    	jne    5620 <_ZNSt6vectorINSt7__cxx1112basic_stringIcSt11char_traitsIcESaIcEEESaIS5_EE17_M_realloc_insertIJRKS5_EEEvN9__gnu_cxx17__normal_iteratorIPS5_S7_EEDpOT_+0x320>
    5570:	48 83 c4 38          	add    $0x38,%rsp
    5574:	5b                   	pop    %rbx
    5575:	5d                   	pop    %rbp
    5576:	41 5c                	pop    %r12
    5578:	41 5d                	pop    %r13
    557a:	41 5e                	pop    %r14
    557c:	41 5f                	pop    %r15
    557e:	c3                   	retq   
    557f:	90                   	nop
    5580:	49 83 c4 20          	add    $0x20,%r12
    5584:	49 39 dc             	cmp    %rbx,%r12
    5587:	75 97                	jne    5520 <_ZNSt6vectorINSt7__cxx1112basic_stringIcSt11char_traitsIcESaIcEEESaIS5_EE17_M_realloc_insertIJRKS5_EEEvN9__gnu_cxx17__normal_iteratorIPS5_S7_EEDpOT_+0x220>
    5589:	eb b1                	jmp    553c <_ZNSt6vectorINSt7__cxx1112basic_stringIcSt11char_traitsIcESaIcEEESaIS5_EE17_M_realloc_insertIJRKS5_EEEvN9__gnu_cxx17__normal_iteratorIPS5_S7_EEDpOT_+0x23c>
    558b:	0f 1f 44 00 00       	nopl   0x0(%rax,%rax,1)
    5590:	48 8b 7c 24 08       	mov    0x8(%rsp),%rdi
    5595:	48 8d 74 24 20       	lea    0x20(%rsp),%rsi
    559a:	31 d2                	xor    %edx,%edx
    559c:	e8 6f da ff ff       	callq  3010 <_ZNSt7__cxx1112basic_stringIcSt11char_traitsIcESaIcEE9_M_createERmm@plt>
    55a1:	48 8b 74 24 08       	mov    0x8(%rsp),%rsi
    55a6:	48 8b 54 24 20       	mov    0x20(%rsp),%rdx
    55ab:	48 89 06             	mov    %rax,(%rsi)
    55ae:	48 89 56 10          	mov    %rdx,0x10(%rsi)
    55b2:	48 8b 74 24 18       	mov    0x18(%rsp),%rsi
    55b7:	4c 89 fa             	mov    %r15,%rdx
    55ba:	48 89 c7             	mov    %rax,%rdi
    55bd:	e8 ae d7 ff ff       	callq  2d70 <memcpy@plt>
    55c2:	48 8b 44 24 08       	mov    0x8(%rsp),%rax
    55c7:	4c 8b 7c 24 20       	mov    0x20(%rsp),%r15
    55cc:	48 8b 00             	mov    (%rax),%rax
    55cf:	48 89 44 24 10       	mov    %rax,0x10(%rsp)
    55d4:	e9 ed fd ff ff       	jmpq   53c6 <_ZNSt6vectorINSt7__cxx1112basic_stringIcSt11char_traitsIcESaIcEEESaIS5_EE17_M_realloc_insertIJRKS5_EEEvN9__gnu_cxx17__normal_iteratorIPS5_S7_EEDpOT_+0xc6>
    55d9:	0f 1f 80 00 00 00 00 	nopl   0x0(%rax)
    55e0:	48 b8 ff ff ff ff ff 	movabs $0x7ffffffffffffff,%rax
    55e7:	ff ff 07 
    55ea:	49 39 c5             	cmp    %rax,%r13
    55ed:	0f 87 5b fd ff ff    	ja     534e <_ZNSt6vectorINSt7__cxx1112basic_stringIcSt11char_traitsIcESaIcEEESaIS5_EE17_M_realloc_insertIJRKS5_EEEvN9__gnu_cxx17__normal_iteratorIPS5_S7_EEDpOT_+0x4e>
    55f3:	4d 85 ed             	test   %r13,%r13
    55f6:	0f 85 6a fe ff ff    	jne    5466 <_ZNSt6vectorINSt7__cxx1112basic_stringIcSt11char_traitsIcESaIcEEESaIS5_EE17_M_realloc_insertIJRKS5_EEEvN9__gnu_cxx17__normal_iteratorIPS5_S7_EEDpOT_+0x166>
    55fc:	45 31 f6             	xor    %r14d,%r14d
    55ff:	e9 66 fd ff ff       	jmpq   536a <_ZNSt6vectorINSt7__cxx1112basic_stringIcSt11char_traitsIcESaIcEEESaIS5_EE17_M_realloc_insertIJRKS5_EEEvN9__gnu_cxx17__normal_iteratorIPS5_S7_EEDpOT_+0x6a>
    5604:	0f 1f 40 00          	nopl   0x0(%rax)
    5608:	4d 89 f7             	mov    %r14,%r15
    560b:	e9 6b fe ff ff       	jmpq   547b <_ZNSt6vectorINSt7__cxx1112basic_stringIcSt11char_traitsIcESaIcEEESaIS5_EE17_M_realloc_insertIJRKS5_EEEvN9__gnu_cxx17__normal_iteratorIPS5_S7_EEDpOT_+0x17b>
    5610:	4d 85 ff             	test   %r15,%r15
    5613:	0f 84 ad fd ff ff    	je     53c6 <_ZNSt6vectorINSt7__cxx1112basic_stringIcSt11char_traitsIcESaIcEEESaIS5_EE17_M_realloc_insertIJRKS5_EEEvN9__gnu_cxx17__normal_iteratorIPS5_S7_EEDpOT_+0xc6>
    5619:	48 8b 44 24 10       	mov    0x10(%rsp),%rax
    561e:	eb 92                	jmp    55b2 <_ZNSt6vectorINSt7__cxx1112basic_stringIcSt11char_traitsIcESaIcEEESaIS5_EE17_M_realloc_insertIJRKS5_EEEvN9__gnu_cxx17__normal_iteratorIPS5_S7_EEDpOT_+0x2b2>
    5620:	e8 db d7 ff ff       	callq  2e00 <__stack_chk_fail@plt>
    5625:	48 89 c7             	mov    %rax,%rdi
    5628:	c5 f8 77             	vzeroupper 
    562b:	e8 50 d6 ff ff       	callq  2c80 <__cxa_begin_catch@plt>
    5630:	4d 85 f6             	test   %r14,%r14
    5633:	74 2c                	je     5661 <_ZNSt6vectorINSt7__cxx1112basic_stringIcSt11char_traitsIcESaIcEEESaIS5_EE17_M_realloc_insertIJRKS5_EEEvN9__gnu_cxx17__normal_iteratorIPS5_S7_EEDpOT_+0x361>
    5635:	4c 89 f7             	mov    %r14,%rdi
    5638:	e8 83 d7 ff ff       	callq  2dc0 <_ZdlPv@plt>
    563d:	e8 8e d8 ff ff       	callq  2ed0 <__cxa_rethrow@plt>
    5642:	48 8d 3d b7 71 00 00 	lea    0x71b7(%rip),%rdi        # c800 <_IO_stdin_used+0x140>
    5649:	e8 d2 d6 ff ff       	callq  2d20 <_ZSt19__throw_logic_errorPKc@plt>
    564e:	48 89 c3             	mov    %rax,%rbx
    5651:	c5 f8 77             	vzeroupper 
    5654:	e8 17 d9 ff ff       	callq  2f70 <__cxa_end_catch@plt>
    5659:	48 89 df             	mov    %rbx,%rdi
    565c:	e8 8f d9 ff ff       	callq  2ff0 <_Unwind_Resume@plt>
    5661:	48 8b 44 24 08       	mov    0x8(%rsp),%rax
    5666:	48 8b 38             	mov    (%rax),%rdi
    5669:	48 3b 7c 24 10       	cmp    0x10(%rsp),%rdi
    566e:	74 cd                	je     563d <_ZNSt6vectorINSt7__cxx1112basic_stringIcSt11char_traitsIcESaIcEEESaIS5_EE17_M_realloc_insertIJRKS5_EEEvN9__gnu_cxx17__normal_iteratorIPS5_S7_EEDpOT_+0x33d>
    5670:	e8 4b d7 ff ff       	callq  2dc0 <_ZdlPv@plt>
    5675:	eb c6                	jmp    563d <_ZNSt6vectorINSt7__cxx1112basic_stringIcSt11char_traitsIcESaIcEEESaIS5_EE17_M_realloc_insertIJRKS5_EEEvN9__gnu_cxx17__normal_iteratorIPS5_S7_EEDpOT_+0x33d>
    5677:	66 0f 1f 84 00 00 00 	nopw   0x0(%rax,%rax,1)
    567e:	00 00 

0000000000005680 <_ZN4util2io3MMFIifE16ParseMmfSizeLineERSt6vectorINSt7__cxx1112basic_stringIcSt11char_traitsIcESaIcEEESaIS9_EE>:
    5680:	41 55                	push   %r13
    5682:	41 54                	push   %r12
    5684:	49 89 f4             	mov    %rsi,%r12
    5687:	55                   	push   %rbp
    5688:	48 89 fd             	mov    %rdi,%rbp
    568b:	53                   	push   %rbx
    568c:	48 83 ec 08          	sub    $0x8,%rsp
    5690:	8b 87 1c 02 00 00    	mov    0x21c(%rdi),%eax
    5696:	85 c0                	test   %eax,%eax
    5698:	74 66                	je     5700 <_ZN4util2io3MMFIifE16ParseMmfSizeLineERSt6vectorINSt7__cxx1112basic_stringIcSt11char_traitsIcESaIcEEESaIS9_EE+0x80>
    569a:	48 8b 16             	mov    (%rsi),%rdx
    569d:	48 8b 3a             	mov    (%rdx),%rdi
    56a0:	80 3f 25             	cmpb   $0x25,(%rdi)
    56a3:	74 5b                	je     5700 <_ZN4util2io3MMFIifE16ParseMmfSizeLineERSt6vectorINSt7__cxx1112basic_stringIcSt11char_traitsIcESaIcEEESaIS9_EE+0x80>
    56a5:	49 8b 44 24 08       	mov    0x8(%r12),%rax
    56aa:	48 29 d0             	sub    %rdx,%rax
    56ad:	48 83 f8 5f          	cmp    $0x5f,%rax
    56b1:	0f 87 9e 00 00 00    	ja     5755 <_ZN4util2io3MMFIifE16ParseMmfSizeLineERSt6vectorINSt7__cxx1112basic_stringIcSt11char_traitsIcESaIcEEESaIS9_EE+0xd5>
    56b7:	48 83 f8 40          	cmp    $0x40,%rax
    56bb:	0f 85 f8 00 00 00    	jne    57b9 <_ZN4util2io3MMFIifE16ParseMmfSizeLineERSt6vectorINSt7__cxx1112basic_stringIcSt11char_traitsIcESaIcEEESaIS9_EE+0x139>
    56c1:	ba 0a 00 00 00       	mov    $0xa,%edx
    56c6:	31 f6                	xor    %esi,%esi
    56c8:	e8 e3 d7 ff ff       	callq  2eb0 <strtol@plt>
    56cd:	ba 0a 00 00 00       	mov    $0xa,%edx
    56d2:	31 f6                	xor    %esi,%esi
    56d4:	89 45 00             	mov    %eax,0x0(%rbp)
    56d7:	49 8b 04 24          	mov    (%r12),%rax
    56db:	48 8b 78 20          	mov    0x20(%rax),%rdi
    56df:	e8 cc d7 ff ff       	callq  2eb0 <strtol@plt>
    56e4:	c7 45 08 00 00 00 00 	movl   $0x0,0x8(%rbp)
    56eb:	89 45 04             	mov    %eax,0x4(%rbp)
    56ee:	48 83 c4 08          	add    $0x8,%rsp
    56f2:	5b                   	pop    %rbx
    56f3:	5d                   	pop    %rbp
    56f4:	41 5c                	pop    %r12
    56f6:	41 5d                	pop    %r13
    56f8:	c3                   	retq   
    56f9:	0f 1f 80 00 00 00 00 	nopl   0x0(%rax)
    5700:	49 bd ff ff ff ff ff 	movabs $0x7fffffffffffffff,%r13
    5707:	ff ff 7f 
    570a:	48 8d 5d 10          	lea    0x10(%rbp),%rbx
    570e:	eb 10                	jmp    5720 <_ZN4util2io3MMFIifE16ParseMmfSizeLineERSt6vectorINSt7__cxx1112basic_stringIcSt11char_traitsIcESaIcEEESaIS9_EE+0xa0>
    5710:	ba 0a 00 00 00       	mov    $0xa,%edx
    5715:	4c 89 ee             	mov    %r13,%rsi
    5718:	48 89 df             	mov    %rbx,%rdi
    571b:	e8 d0 d5 ff ff       	callq  2cf0 <_ZNSi6ignoreEli@plt>
    5720:	48 89 df             	mov    %rbx,%rdi
    5723:	e8 48 d5 ff ff       	callq  2c70 <_ZNSi4peekEv@plt>
    5728:	83 f8 25             	cmp    $0x25,%eax
    572b:	74 e3                	je     5710 <_ZN4util2io3MMFIifE16ParseMmfSizeLineERSt6vectorINSt7__cxx1112basic_stringIcSt11char_traitsIcESaIcEEESaIS9_EE+0x90>
    572d:	4c 89 e6             	mov    %r12,%rsi
    5730:	48 89 df             	mov    %rbx,%rdi
    5733:	e8 98 eb ff ff       	callq  42d0 <_ZN4util2io6DoReadERSt14basic_ifstreamIcSt11char_traitsIcEERSt6vectorINSt7__cxx1112basic_stringIcS3_SaIcEEESaISA_EE>
    5738:	84 c0                	test   %al,%al
    573a:	74 60                	je     579c <_ZN4util2io3MMFIifE16ParseMmfSizeLineERSt6vectorINSt7__cxx1112basic_stringIcSt11char_traitsIcESaIcEEESaIS9_EE+0x11c>
    573c:	49 8b 14 24          	mov    (%r12),%rdx
    5740:	49 8b 44 24 08       	mov    0x8(%r12),%rax
    5745:	48 29 d0             	sub    %rdx,%rax
    5748:	48 8b 3a             	mov    (%rdx),%rdi
    574b:	48 83 f8 5f          	cmp    $0x5f,%rax
    574f:	0f 86 62 ff ff ff    	jbe    56b7 <_ZN4util2io3MMFIifE16ParseMmfSizeLineERSt6vectorINSt7__cxx1112basic_stringIcSt11char_traitsIcESaIcEEESaIS9_EE+0x37>
    5755:	ba 0a 00 00 00       	mov    $0xa,%edx
    575a:	31 f6                	xor    %esi,%esi
    575c:	e8 4f d7 ff ff       	callq  2eb0 <strtol@plt>
    5761:	ba 0a 00 00 00       	mov    $0xa,%edx
    5766:	31 f6                	xor    %esi,%esi
    5768:	89 45 00             	mov    %eax,0x0(%rbp)
    576b:	49 8b 04 24          	mov    (%r12),%rax
    576f:	48 8b 78 20          	mov    0x20(%rax),%rdi
    5773:	e8 38 d7 ff ff       	callq  2eb0 <strtol@plt>
    5778:	31 f6                	xor    %esi,%esi
    577a:	89 45 04             	mov    %eax,0x4(%rbp)
    577d:	49 8b 04 24          	mov    (%r12),%rax
    5781:	48 8b 78 40          	mov    0x40(%rax),%rdi
    5785:	e8 c6 d5 ff ff       	callq  2d50 <strtod@plt>
    578a:	c5 fb 2c c0          	vcvttsd2si %xmm0,%eax
    578e:	89 45 08             	mov    %eax,0x8(%rbp)
    5791:	48 83 c4 08          	add    $0x8,%rsp
    5795:	5b                   	pop    %rbx
    5796:	5d                   	pop    %rbp
    5797:	41 5c                	pop    %r12
    5799:	41 5d                	pop    %r13
    579b:	c3                   	retq   
    579c:	48 8d 3d 7d b8 20 00 	lea    0x20b87d(%rip),%rdi        # 211020 <_ZSt4cout@@GLIBCXX_3.4>
    57a3:	48 8d 35 e5 70 00 00 	lea    0x70e5(%rip),%rsi        # c88f <_IO_stdin_used+0x1cf>
    57aa:	e8 21 d6 ff ff       	callq  2dd0 <_ZStlsISt11char_traitsIcEERSt13basic_ostreamIcT_ES5_PKc@plt>
    57af:	bf 01 00 00 00       	mov    $0x1,%edi
    57b4:	e8 a7 d6 ff ff       	callq  2e60 <exit@plt>
    57b9:	48 8b 52 08          	mov    0x8(%rdx),%rdx
    57bd:	48 89 fe             	mov    %rdi,%rsi
    57c0:	48 8d 3d 59 b8 20 00 	lea    0x20b859(%rip),%rdi        # 211020 <_ZSt4cout@@GLIBCXX_3.4>
    57c7:	e8 54 d6 ff ff       	callq  2e20 <_ZSt16__ostream_insertIcSt11char_traitsIcEERSt13basic_ostreamIT_T0_ES6_PKS3_l@plt>
    57cc:	48 89 c7             	mov    %rax,%rdi
    57cf:	e8 cc d4 ff ff       	callq  2ca0 <_ZSt4endlIcSt11char_traitsIcEERSt13basic_ostreamIT_T0_ES6_@plt>
    57d4:	48 8d 3d 45 b8 20 00 	lea    0x20b845(%rip),%rdi        # 211020 <_ZSt4cout@@GLIBCXX_3.4>
    57db:	48 8d 35 ce 70 00 00 	lea    0x70ce(%rip),%rsi        # c8b0 <_IO_stdin_used+0x1f0>
    57e2:	e8 e9 d5 ff ff       	callq  2dd0 <_ZStlsISt11char_traitsIcEERSt13basic_ostreamIcT_ES5_PKc@plt>
    57e7:	bf 01 00 00 00       	mov    $0x1,%edi
    57ec:	e8 6f d6 ff ff       	callq  2e60 <exit@plt>
    57f1:	66 2e 0f 1f 84 00 00 	nopw   %cs:0x0(%rax,%rax,1)
    57f8:	00 00 00 
    57fb:	0f 1f 44 00 00       	nopl   0x0(%rax,%rax,1)

0000000000005800 <_ZN4util2io3MMFIifE7GetNextERiS3_Rf>:
    5800:	41 57                	push   %r15
    5802:	c5 f9 ef c0          	vpxor  %xmm0,%xmm0,%xmm0
    5806:	41 56                	push   %r14
    5808:	41 55                	push   %r13
    580a:	49 89 f5             	mov    %rsi,%r13
    580d:	41 54                	push   %r12
    580f:	49 89 d4             	mov    %rdx,%r12
    5812:	55                   	push   %rbp
    5813:	48 89 fd             	mov    %rdi,%rbp
    5816:	48 8d 7f 10          	lea    0x10(%rdi),%rdi
    581a:	53                   	push   %rbx
    581b:	48 83 ec 38          	sub    $0x38,%rsp
    581f:	64 48 8b 04 25 28 00 	mov    %fs:0x28,%rax
    5826:	00 00 
    5828:	48 89 44 24 28       	mov    %rax,0x28(%rsp)
    582d:	31 c0                	xor    %eax,%eax
    582f:	48 8d 74 24 10       	lea    0x10(%rsp),%rsi
    5834:	48 89 0c 24          	mov    %rcx,(%rsp)
    5838:	c5 f8 29 44 24 10    	vmovaps %xmm0,0x10(%rsp)
    583e:	48 c7 44 24 20 00 00 	movq   $0x0,0x20(%rsp)
    5845:	00 00 
    5847:	48 89 74 24 08       	mov    %rsi,0x8(%rsp)
    584c:	e8 7f ea ff ff       	callq  42d0 <_ZN4util2io6DoReadERSt14basic_ifstreamIcSt11char_traitsIcEERSt6vectorINSt7__cxx1112basic_stringIcS3_SaIcEEESaISA_EE>
    5851:	89 c3                	mov    %eax,%ebx
    5853:	4c 8b 74 24 10       	mov    0x10(%rsp),%r14
    5858:	4c 8b 7c 24 18       	mov    0x18(%rsp),%r15
    585d:	84 c0                	test   %al,%al
    585f:	74 71                	je     58d2 <_ZN4util2io3MMFIifE7GetNextERiS3_Rf+0xd2>
    5861:	4c 89 fa             	mov    %r15,%rdx
    5864:	49 8b 3e             	mov    (%r14),%rdi
    5867:	4c 29 f2             	sub    %r14,%rdx
    586a:	48 83 fa 5f          	cmp    $0x5f,%rdx
    586e:	0f 87 cc 00 00 00    	ja     5940 <_ZN4util2io3MMFIifE7GetNextERiS3_Rf+0x140>
    5874:	48 83 fa 40          	cmp    $0x40,%rdx
    5878:	0f 85 2d 01 00 00    	jne    59ab <_ZN4util2io3MMFIifE7GetNextERiS3_Rf+0x1ab>
    587e:	ba 0a 00 00 00       	mov    $0xa,%edx
    5883:	31 f6                	xor    %esi,%esi
    5885:	e8 26 d6 ff ff       	callq  2eb0 <strtol@plt>
    588a:	ba 0a 00 00 00       	mov    $0xa,%edx
    588f:	31 f6                	xor    %esi,%esi
    5891:	41 89 45 00          	mov    %eax,0x0(%r13)
    5895:	48 8b 44 24 10       	mov    0x10(%rsp),%rax
    589a:	48 8b 78 20          	mov    0x20(%rax),%rdi
    589e:	e8 0d d6 ff ff       	callq  2eb0 <strtol@plt>
    58a3:	41 89 04 24          	mov    %eax,(%r12)
    58a7:	48 8b 04 24          	mov    (%rsp),%rax
    58ab:	c7 00 3d 0a d7 3e    	movl   $0x3ed70a3d,(%rax)
    58b1:	0f b6 8d 1a 02 00 00 	movzbl 0x21a(%rbp),%ecx
    58b8:	4c 8b 7c 24 18       	mov    0x18(%rsp),%r15
    58bd:	4c 8b 74 24 10       	mov    0x10(%rsp),%r14
    58c2:	84 c9                	test   %cl,%cl
    58c4:	74 0c                	je     58d2 <_ZN4util2io3MMFIifE7GetNextERiS3_Rf+0xd2>
    58c6:	41 83 45 00 01       	addl   $0x1,0x0(%r13)
    58cb:	89 cb                	mov    %ecx,%ebx
    58cd:	41 83 04 24 01       	addl   $0x1,(%r12)
    58d2:	4d 39 fe             	cmp    %r15,%r14
    58d5:	74 28                	je     58ff <_ZN4util2io3MMFIifE7GetNextERiS3_Rf+0xff>
    58d7:	66 0f 1f 84 00 00 00 	nopw   0x0(%rax,%rax,1)
    58de:	00 00 
    58e0:	49 8b 3e             	mov    (%r14),%rdi
    58e3:	49 8d 4e 10          	lea    0x10(%r14),%rcx
    58e7:	48 39 cf             	cmp    %rcx,%rdi
    58ea:	74 44                	je     5930 <_ZN4util2io3MMFIifE7GetNextERiS3_Rf+0x130>
    58ec:	e8 cf d4 ff ff       	callq  2dc0 <_ZdlPv@plt>
    58f1:	49 83 c6 20          	add    $0x20,%r14
    58f5:	4d 39 fe             	cmp    %r15,%r14
    58f8:	75 e6                	jne    58e0 <_ZN4util2io3MMFIifE7GetNextERiS3_Rf+0xe0>
    58fa:	4c 8b 7c 24 10       	mov    0x10(%rsp),%r15
    58ff:	4d 85 ff             	test   %r15,%r15
    5902:	74 08                	je     590c <_ZN4util2io3MMFIifE7GetNextERiS3_Rf+0x10c>
    5904:	4c 89 ff             	mov    %r15,%rdi
    5907:	e8 b4 d4 ff ff       	callq  2dc0 <_ZdlPv@plt>
    590c:	89 d8                	mov    %ebx,%eax
    590e:	48 8b 5c 24 28       	mov    0x28(%rsp),%rbx
    5913:	64 48 33 1c 25 28 00 	xor    %fs:0x28,%rbx
    591a:	00 00 
    591c:	75 70                	jne    598e <_ZN4util2io3MMFIifE7GetNextERiS3_Rf+0x18e>
    591e:	48 83 c4 38          	add    $0x38,%rsp
    5922:	5b                   	pop    %rbx
    5923:	5d                   	pop    %rbp
    5924:	41 5c                	pop    %r12
    5926:	41 5d                	pop    %r13
    5928:	41 5e                	pop    %r14
    592a:	41 5f                	pop    %r15
    592c:	c3                   	retq   
    592d:	0f 1f 00             	nopl   (%rax)
    5930:	49 83 c6 20          	add    $0x20,%r14
    5934:	4d 39 fe             	cmp    %r15,%r14
    5937:	75 a7                	jne    58e0 <_ZN4util2io3MMFIifE7GetNextERiS3_Rf+0xe0>
    5939:	eb bf                	jmp    58fa <_ZN4util2io3MMFIifE7GetNextERiS3_Rf+0xfa>
    593b:	0f 1f 44 00 00       	nopl   0x0(%rax,%rax,1)
    5940:	ba 0a 00 00 00       	mov    $0xa,%edx
    5945:	31 f6                	xor    %esi,%esi
    5947:	e8 64 d5 ff ff       	callq  2eb0 <strtol@plt>
    594c:	ba 0a 00 00 00       	mov    $0xa,%edx
    5951:	31 f6                	xor    %esi,%esi
    5953:	41 89 45 00          	mov    %eax,0x0(%r13)
    5957:	48 8b 44 24 10       	mov    0x10(%rsp),%rax
    595c:	48 8b 78 20          	mov    0x20(%rax),%rdi
    5960:	e8 4b d5 ff ff       	callq  2eb0 <strtol@plt>
    5965:	31 f6                	xor    %esi,%esi
    5967:	41 89 04 24          	mov    %eax,(%r12)
    596b:	48 8b 44 24 10       	mov    0x10(%rsp),%rax
    5970:	48 8b 78 40          	mov    0x40(%rax),%rdi
    5974:	e8 d7 d3 ff ff       	callq  2d50 <strtod@plt>
    5979:	48 8b 04 24          	mov    (%rsp),%rax
    597d:	c5 f0 57 c9          	vxorps %xmm1,%xmm1,%xmm1
    5981:	c5 f3 5a c8          	vcvtsd2ss %xmm0,%xmm1,%xmm1
    5985:	c5 fa 11 08          	vmovss %xmm1,(%rax)
    5989:	e9 23 ff ff ff       	jmpq   58b1 <_ZN4util2io3MMFIifE7GetNextERiS3_Rf+0xb1>
    598e:	e8 6d d4 ff ff       	callq  2e00 <__stack_chk_fail@plt>
    5993:	48 8b 7c 24 08       	mov    0x8(%rsp),%rdi
    5998:	48 89 c3             	mov    %rax,%rbx
    599b:	c5 f8 77             	vzeroupper 
    599e:	e8 ed f8 ff ff       	callq  5290 <_ZNSt6vectorINSt7__cxx1112basic_stringIcSt11char_traitsIcESaIcEEESaIS5_EED1Ev>
    59a3:	48 89 df             	mov    %rbx,%rdi
    59a6:	e8 45 d6 ff ff       	callq  2ff0 <_Unwind_Resume@plt>
    59ab:	49 8b 56 08          	mov    0x8(%r14),%rdx
    59af:	48 89 fe             	mov    %rdi,%rsi
    59b2:	48 8d 3d 67 b6 20 00 	lea    0x20b667(%rip),%rdi        # 211020 <_ZSt4cout@@GLIBCXX_3.4>
    59b9:	e8 62 d4 ff ff       	callq  2e20 <_ZSt16__ostream_insertIcSt11char_traitsIcEERSt13basic_ostreamIT_T0_ES6_PKS3_l@plt>
    59be:	48 89 c7             	mov    %rax,%rdi
    59c1:	e8 da d2 ff ff       	callq  2ca0 <_ZSt4endlIcSt11char_traitsIcEERSt13basic_ostreamIT_T0_ES6_@plt>
    59c6:	48 8d 35 e3 6e 00 00 	lea    0x6ee3(%rip),%rsi        # c8b0 <_IO_stdin_used+0x1f0>
    59cd:	48 8d 3d 4c b6 20 00 	lea    0x20b64c(%rip),%rdi        # 211020 <_ZSt4cout@@GLIBCXX_3.4>
    59d4:	e8 f7 d3 ff ff       	callq  2dd0 <_ZStlsISt11char_traitsIcEERSt13basic_ostreamIcT_ES5_PKc@plt>
    59d9:	bf 01 00 00 00       	mov    $0x1,%edi
    59de:	e8 7d d4 ff ff       	callq  2e60 <exit@plt>
    59e3:	66 2e 0f 1f 84 00 00 	nopw   %cs:0x0(%rax,%rax,1)
    59ea:	00 00 00 
    59ed:	0f 1f 00             	nopl   (%rax)

00000000000059f0 <_ZN4util2io3MMFIifE8iterator5DoSetEv>:
    59f0:	53                   	push   %rbx
    59f1:	48 8d 4f 18          	lea    0x18(%rdi),%rcx
    59f5:	48 89 fb             	mov    %rdi,%rbx
    59f8:	48 8d 57 14          	lea    0x14(%rdi),%rdx
    59fc:	48 8d 77 10          	lea    0x10(%rdi),%rsi
    5a00:	48 8b 3f             	mov    (%rdi),%rdi
    5a03:	e8 f8 fd ff ff       	callq  5800 <_ZN4util2io3MMFIifE7GetNextERiS3_Rf>
    5a08:	88 43 1c             	mov    %al,0x1c(%rbx)
    5a0b:	5b                   	pop    %rbx
    5a0c:	c3                   	retq   
    5a0d:	0f 1f 00             	nopl   (%rax)

0000000000005a10 <_ZN4util2io3MMFIifE8iteratorC1EPS2_m>:
    5a10:	80 be 18 02 00 00 00 	cmpb   $0x0,0x218(%rsi)
    5a17:	48 89 37             	mov    %rsi,(%rdi)
    5a1a:	48 89 57 08          	mov    %rdx,0x8(%rdi)
    5a1e:	75 0e                	jne    5a2e <_ZN4util2io3MMFIifE8iteratorC1EPS2_m+0x1e>
    5a20:	80 be 19 02 00 00 01 	cmpb   $0x1,0x219(%rsi)
    5a27:	74 05                	je     5a2e <_ZN4util2io3MMFIifE8iteratorC1EPS2_m+0x1e>
    5a29:	48 85 d2             	test   %rdx,%rdx
    5a2c:	74 02                	je     5a30 <_ZN4util2io3MMFIifE8iteratorC1EPS2_m+0x20>
    5a2e:	c3                   	retq   
    5a2f:	90                   	nop
    5a30:	53                   	push   %rbx
    5a31:	48 89 f0             	mov    %rsi,%rax
    5a34:	48 89 fb             	mov    %rdi,%rbx
    5a37:	48 8d 4f 18          	lea    0x18(%rdi),%rcx
    5a3b:	48 8d 57 14          	lea    0x14(%rdi),%rdx
    5a3f:	48 8d 77 10          	lea    0x10(%rdi),%rsi
    5a43:	48 89 c7             	mov    %rax,%rdi
    5a46:	e8 b5 fd ff ff       	callq  5800 <_ZN4util2io3MMFIifE7GetNextERiS3_Rf>
    5a4b:	88 43 1c             	mov    %al,0x1c(%rbx)
    5a4e:	5b                   	pop    %rbx
    5a4f:	c3                   	retq   

0000000000005a50 <_ZN4util2io3MMFIifE5beginEv>:
    5a50:	53                   	push   %rbx
    5a51:	31 d2                	xor    %edx,%edx
    5a53:	48 89 fb             	mov    %rdi,%rbx
    5a56:	e8 b5 ff ff ff       	callq  5a10 <_ZN4util2io3MMFIifE8iteratorC1EPS2_m>
    5a5b:	48 89 d8             	mov    %rbx,%rax
    5a5e:	5b                   	pop    %rbx
    5a5f:	c3                   	retq   

0000000000005a60 <_ZN4util2io3MMFIifE3endEv>:
    5a60:	80 be 18 02 00 00 00 	cmpb   $0x0,0x218(%rsi)
    5a67:	53                   	push   %rbx
    5a68:	48 89 fb             	mov    %rdi,%rbx
    5a6b:	75 09                	jne    5a76 <_ZN4util2io3MMFIifE3endEv+0x16>
    5a6d:	80 be 19 02 00 00 00 	cmpb   $0x0,0x219(%rsi)
    5a74:	74 32                	je     5aa8 <_ZN4util2io3MMFIifE3endEv+0x48>
    5a76:	48 8b 96 28 02 00 00 	mov    0x228(%rsi),%rdx
    5a7d:	48 2b 96 20 02 00 00 	sub    0x220(%rsi),%rdx
    5a84:	48 89 df             	mov    %rbx,%rdi
    5a87:	48 b8 ab aa aa aa aa 	movabs $0xaaaaaaaaaaaaaaab,%rax
    5a8e:	aa aa aa 
    5a91:	48 c1 fa 02          	sar    $0x2,%rdx
    5a95:	48 0f af d0          	imul   %rax,%rdx
    5a99:	e8 72 ff ff ff       	callq  5a10 <_ZN4util2io3MMFIifE8iteratorC1EPS2_m>
    5a9e:	48 89 d8             	mov    %rbx,%rax
    5aa1:	5b                   	pop    %rbx
    5aa2:	c3                   	retq   
    5aa3:	0f 1f 44 00 00       	nopl   0x0(%rax,%rax,1)
    5aa8:	48 63 56 08          	movslq 0x8(%rsi),%rdx
    5aac:	e8 5f ff ff ff       	callq  5a10 <_ZN4util2io3MMFIifE8iteratorC1EPS2_m>
    5ab1:	48 89 d8             	mov    %rbx,%rax
    5ab4:	5b                   	pop    %rbx
    5ab5:	c3                   	retq   
    5ab6:	66 2e 0f 1f 84 00 00 	nopw   %cs:0x0(%rax,%rax,1)
    5abd:	00 00 00 

0000000000005ac0 <_ZN4util2io3MMFIifE8iteratorppEv>:
    5ac0:	48 8b 07             	mov    (%rdi),%rax
    5ac3:	48 83 47 08 01       	addq   $0x1,0x8(%rdi)
    5ac8:	80 b8 18 02 00 00 00 	cmpb   $0x0,0x218(%rax)
    5acf:	75 09                	jne    5ada <_ZN4util2io3MMFIifE8iteratorppEv+0x1a>
    5ad1:	80 b8 19 02 00 00 00 	cmpb   $0x0,0x219(%rax)
    5ad8:	74 06                	je     5ae0 <_ZN4util2io3MMFIifE8iteratorppEv+0x20>
    5ada:	c3                   	retq   
    5adb:	0f 1f 44 00 00       	nopl   0x0(%rax,%rax,1)
    5ae0:	53                   	push   %rbx
    5ae1:	48 8d 4f 18          	lea    0x18(%rdi),%rcx
    5ae5:	48 89 fb             	mov    %rdi,%rbx
    5ae8:	48 8d 57 14          	lea    0x14(%rdi),%rdx
    5aec:	48 8d 77 10          	lea    0x10(%rdi),%rsi
    5af0:	48 89 c7             	mov    %rax,%rdi
    5af3:	e8 08 fd ff ff       	callq  5800 <_ZN4util2io3MMFIifE7GetNextERiS3_Rf>
    5af8:	88 43 1c             	mov    %al,0x1c(%rbx)
    5afb:	5b                   	pop    %rbx
    5afc:	c3                   	retq   
    5afd:	0f 1f 00             	nopl   (%rax)

0000000000005b00 <_ZN4util2io3MMFIidE16ParseMmfSizeLineERSt6vectorINSt7__cxx1112basic_stringIcSt11char_traitsIcESaIcEEESaIS9_EE>:
    5b00:	41 55                	push   %r13
    5b02:	41 54                	push   %r12
    5b04:	49 89 f4             	mov    %rsi,%r12
    5b07:	55                   	push   %rbp
    5b08:	48 89 fd             	mov    %rdi,%rbp
    5b0b:	53                   	push   %rbx
    5b0c:	48 83 ec 08          	sub    $0x8,%rsp
    5b10:	8b 87 1c 02 00 00    	mov    0x21c(%rdi),%eax
    5b16:	85 c0                	test   %eax,%eax
    5b18:	74 66                	je     5b80 <_ZN4util2io3MMFIidE16ParseMmfSizeLineERSt6vectorINSt7__cxx1112basic_stringIcSt11char_traitsIcESaIcEEESaIS9_EE+0x80>
    5b1a:	48 8b 16             	mov    (%rsi),%rdx
    5b1d:	48 8b 3a             	mov    (%rdx),%rdi
    5b20:	80 3f 25             	cmpb   $0x25,(%rdi)
    5b23:	74 5b                	je     5b80 <_ZN4util2io3MMFIidE16ParseMmfSizeLineERSt6vectorINSt7__cxx1112basic_stringIcSt11char_traitsIcESaIcEEESaIS9_EE+0x80>
    5b25:	49 8b 44 24 08       	mov    0x8(%r12),%rax
    5b2a:	48 29 d0             	sub    %rdx,%rax
    5b2d:	48 83 f8 5f          	cmp    $0x5f,%rax
    5b31:	0f 87 9e 00 00 00    	ja     5bd5 <_ZN4util2io3MMFIidE16ParseMmfSizeLineERSt6vectorINSt7__cxx1112basic_stringIcSt11char_traitsIcESaIcEEESaIS9_EE+0xd5>
    5b37:	48 83 f8 40          	cmp    $0x40,%rax
    5b3b:	0f 85 f8 00 00 00    	jne    5c39 <_ZN4util2io3MMFIidE16ParseMmfSizeLineERSt6vectorINSt7__cxx1112basic_stringIcSt11char_traitsIcESaIcEEESaIS9_EE+0x139>
    5b41:	ba 0a 00 00 00       	mov    $0xa,%edx
    5b46:	31 f6                	xor    %esi,%esi
    5b48:	e8 63 d3 ff ff       	callq  2eb0 <strtol@plt>
    5b4d:	ba 0a 00 00 00       	mov    $0xa,%edx
    5b52:	31 f6                	xor    %esi,%esi
    5b54:	89 45 00             	mov    %eax,0x0(%rbp)
    5b57:	49 8b 04 24          	mov    (%r12),%rax
    5b5b:	48 8b 78 20          	mov    0x20(%rax),%rdi
    5b5f:	e8 4c d3 ff ff       	callq  2eb0 <strtol@plt>
    5b64:	c7 45 08 00 00 00 00 	movl   $0x0,0x8(%rbp)
    5b6b:	89 45 04             	mov    %eax,0x4(%rbp)
    5b6e:	48 83 c4 08          	add    $0x8,%rsp
    5b72:	5b                   	pop    %rbx
    5b73:	5d                   	pop    %rbp
    5b74:	41 5c                	pop    %r12
    5b76:	41 5d                	pop    %r13
    5b78:	c3                   	retq   
    5b79:	0f 1f 80 00 00 00 00 	nopl   0x0(%rax)
    5b80:	49 bd ff ff ff ff ff 	movabs $0x7fffffffffffffff,%r13
    5b87:	ff ff 7f 
    5b8a:	48 8d 5d 10          	lea    0x10(%rbp),%rbx
    5b8e:	eb 10                	jmp    5ba0 <_ZN4util2io3MMFIidE16ParseMmfSizeLineERSt6vectorINSt7__cxx1112basic_stringIcSt11char_traitsIcESaIcEEESaIS9_EE+0xa0>
    5b90:	ba 0a 00 00 00       	mov    $0xa,%edx
    5b95:	4c 89 ee             	mov    %r13,%rsi
    5b98:	48 89 df             	mov    %rbx,%rdi
    5b9b:	e8 50 d1 ff ff       	callq  2cf0 <_ZNSi6ignoreEli@plt>
    5ba0:	48 89 df             	mov    %rbx,%rdi
    5ba3:	e8 c8 d0 ff ff       	callq  2c70 <_ZNSi4peekEv@plt>
    5ba8:	83 f8 25             	cmp    $0x25,%eax
    5bab:	74 e3                	je     5b90 <_ZN4util2io3MMFIidE16ParseMmfSizeLineERSt6vectorINSt7__cxx1112basic_stringIcSt11char_traitsIcESaIcEEESaIS9_EE+0x90>
    5bad:	4c 89 e6             	mov    %r12,%rsi
    5bb0:	48 89 df             	mov    %rbx,%rdi
    5bb3:	e8 18 e7 ff ff       	callq  42d0 <_ZN4util2io6DoReadERSt14basic_ifstreamIcSt11char_traitsIcEERSt6vectorINSt7__cxx1112basic_stringIcS3_SaIcEEESaISA_EE>
    5bb8:	84 c0                	test   %al,%al
    5bba:	74 60                	je     5c1c <_ZN4util2io3MMFIidE16ParseMmfSizeLineERSt6vectorINSt7__cxx1112basic_stringIcSt11char_traitsIcESaIcEEESaIS9_EE+0x11c>
    5bbc:	49 8b 14 24          	mov    (%r12),%rdx
    5bc0:	49 8b 44 24 08       	mov    0x8(%r12),%rax
    5bc5:	48 29 d0             	sub    %rdx,%rax
    5bc8:	48 8b 3a             	mov    (%rdx),%rdi
    5bcb:	48 83 f8 5f          	cmp    $0x5f,%rax
    5bcf:	0f 86 62 ff ff ff    	jbe    5b37 <_ZN4util2io3MMFIidE16ParseMmfSizeLineERSt6vectorINSt7__cxx1112basic_stringIcSt11char_traitsIcESaIcEEESaIS9_EE+0x37>
    5bd5:	ba 0a 00 00 00       	mov    $0xa,%edx
    5bda:	31 f6                	xor    %esi,%esi
    5bdc:	e8 cf d2 ff ff       	callq  2eb0 <strtol@plt>
    5be1:	ba 0a 00 00 00       	mov    $0xa,%edx
    5be6:	31 f6                	xor    %esi,%esi
    5be8:	89 45 00             	mov    %eax,0x0(%rbp)
    5beb:	49 8b 04 24          	mov    (%r12),%rax
    5bef:	48 8b 78 20          	mov    0x20(%rax),%rdi
    5bf3:	e8 b8 d2 ff ff       	callq  2eb0 <strtol@plt>
    5bf8:	31 f6                	xor    %esi,%esi
    5bfa:	89 45 04             	mov    %eax,0x4(%rbp)
    5bfd:	49 8b 04 24          	mov    (%r12),%rax
    5c01:	48 8b 78 40          	mov    0x40(%rax),%rdi
    5c05:	e8 46 d1 ff ff       	callq  2d50 <strtod@plt>
    5c0a:	c5 fb 2c c0          	vcvttsd2si %xmm0,%eax
    5c0e:	89 45 08             	mov    %eax,0x8(%rbp)
    5c11:	48 83 c4 08          	add    $0x8,%rsp
    5c15:	5b                   	pop    %rbx
    5c16:	5d                   	pop    %rbp
    5c17:	41 5c                	pop    %r12
    5c19:	41 5d                	pop    %r13
    5c1b:	c3                   	retq   
    5c1c:	48 8d 3d fd b3 20 00 	lea    0x20b3fd(%rip),%rdi        # 211020 <_ZSt4cout@@GLIBCXX_3.4>
    5c23:	48 8d 35 65 6c 00 00 	lea    0x6c65(%rip),%rsi        # c88f <_IO_stdin_used+0x1cf>
    5c2a:	e8 a1 d1 ff ff       	callq  2dd0 <_ZStlsISt11char_traitsIcEERSt13basic_ostreamIcT_ES5_PKc@plt>
    5c2f:	bf 01 00 00 00       	mov    $0x1,%edi
    5c34:	e8 27 d2 ff ff       	callq  2e60 <exit@plt>
    5c39:	48 8b 52 08          	mov    0x8(%rdx),%rdx
    5c3d:	48 89 fe             	mov    %rdi,%rsi
    5c40:	48 8d 3d d9 b3 20 00 	lea    0x20b3d9(%rip),%rdi        # 211020 <_ZSt4cout@@GLIBCXX_3.4>
    5c47:	e8 d4 d1 ff ff       	callq  2e20 <_ZSt16__ostream_insertIcSt11char_traitsIcEERSt13basic_ostreamIT_T0_ES6_PKS3_l@plt>
    5c4c:	48 89 c7             	mov    %rax,%rdi
    5c4f:	e8 4c d0 ff ff       	callq  2ca0 <_ZSt4endlIcSt11char_traitsIcEERSt13basic_ostreamIT_T0_ES6_@plt>
    5c54:	48 8d 3d c5 b3 20 00 	lea    0x20b3c5(%rip),%rdi        # 211020 <_ZSt4cout@@GLIBCXX_3.4>
    5c5b:	48 8d 35 4e 6c 00 00 	lea    0x6c4e(%rip),%rsi        # c8b0 <_IO_stdin_used+0x1f0>
    5c62:	e8 69 d1 ff ff       	callq  2dd0 <_ZStlsISt11char_traitsIcEERSt13basic_ostreamIcT_ES5_PKc@plt>
    5c67:	bf 01 00 00 00       	mov    $0x1,%edi
    5c6c:	e8 ef d1 ff ff       	callq  2e60 <exit@plt>
    5c71:	66 2e 0f 1f 84 00 00 	nopw   %cs:0x0(%rax,%rax,1)
    5c78:	00 00 00 
    5c7b:	0f 1f 44 00 00       	nopl   0x0(%rax,%rax,1)

0000000000005c80 <_ZN4util2io3MMFIidE7GetNextERiS3_Rd>:
    5c80:	41 57                	push   %r15
    5c82:	c5 f9 ef c0          	vpxor  %xmm0,%xmm0,%xmm0
    5c86:	41 56                	push   %r14
    5c88:	41 55                	push   %r13
    5c8a:	49 89 f5             	mov    %rsi,%r13
    5c8d:	41 54                	push   %r12
    5c8f:	49 89 d4             	mov    %rdx,%r12
    5c92:	55                   	push   %rbp
    5c93:	48 89 fd             	mov    %rdi,%rbp
    5c96:	48 8d 7f 10          	lea    0x10(%rdi),%rdi
    5c9a:	53                   	push   %rbx
    5c9b:	48 83 ec 38          	sub    $0x38,%rsp
    5c9f:	64 48 8b 04 25 28 00 	mov    %fs:0x28,%rax
    5ca6:	00 00 
    5ca8:	48 89 44 24 28       	mov    %rax,0x28(%rsp)
    5cad:	31 c0                	xor    %eax,%eax
    5caf:	48 8d 74 24 10       	lea    0x10(%rsp),%rsi
    5cb4:	48 89 0c 24          	mov    %rcx,(%rsp)
    5cb8:	c5 f8 29 44 24 10    	vmovaps %xmm0,0x10(%rsp)
    5cbe:	48 c7 44 24 20 00 00 	movq   $0x0,0x20(%rsp)
    5cc5:	00 00 
    5cc7:	48 89 74 24 08       	mov    %rsi,0x8(%rsp)
    5ccc:	e8 ff e5 ff ff       	callq  42d0 <_ZN4util2io6DoReadERSt14basic_ifstreamIcSt11char_traitsIcEERSt6vectorINSt7__cxx1112basic_stringIcS3_SaIcEEESaISA_EE>
    5cd1:	89 c3                	mov    %eax,%ebx
    5cd3:	4c 8b 74 24 10       	mov    0x10(%rsp),%r14
    5cd8:	4c 8b 7c 24 18       	mov    0x18(%rsp),%r15
    5cdd:	84 c0                	test   %al,%al
    5cdf:	74 75                	je     5d56 <_ZN4util2io3MMFIidE7GetNextERiS3_Rd+0xd6>
    5ce1:	4c 89 fa             	mov    %r15,%rdx
    5ce4:	49 8b 3e             	mov    (%r14),%rdi
    5ce7:	4c 29 f2             	sub    %r14,%rdx
    5cea:	48 83 fa 5f          	cmp    $0x5f,%rdx
    5cee:	0f 87 cc 00 00 00    	ja     5dc0 <_ZN4util2io3MMFIidE7GetNextERiS3_Rd+0x140>
    5cf4:	48 83 fa 40          	cmp    $0x40,%rdx
    5cf8:	0f 85 25 01 00 00    	jne    5e23 <_ZN4util2io3MMFIidE7GetNextERiS3_Rd+0x1a3>
    5cfe:	ba 0a 00 00 00       	mov    $0xa,%edx
    5d03:	31 f6                	xor    %esi,%esi
    5d05:	e8 a6 d1 ff ff       	callq  2eb0 <strtol@plt>
    5d0a:	ba 0a 00 00 00       	mov    $0xa,%edx
    5d0f:	31 f6                	xor    %esi,%esi
    5d11:	41 89 45 00          	mov    %eax,0x0(%r13)
    5d15:	48 8b 44 24 10       	mov    0x10(%rsp),%rax
    5d1a:	48 8b 78 20          	mov    0x20(%rax),%rdi
    5d1e:	e8 8d d1 ff ff       	callq  2eb0 <strtol@plt>
    5d23:	48 8b 15 06 6c 00 00 	mov    0x6c06(%rip),%rdx        # c930 <_IO_stdin_used+0x270>
    5d2a:	41 89 04 24          	mov    %eax,(%r12)
    5d2e:	48 8b 04 24          	mov    (%rsp),%rax
    5d32:	48 89 10             	mov    %rdx,(%rax)
    5d35:	0f b6 8d 1a 02 00 00 	movzbl 0x21a(%rbp),%ecx
    5d3c:	4c 8b 7c 24 18       	mov    0x18(%rsp),%r15
    5d41:	4c 8b 74 24 10       	mov    0x10(%rsp),%r14
    5d46:	84 c9                	test   %cl,%cl
    5d48:	74 0c                	je     5d56 <_ZN4util2io3MMFIidE7GetNextERiS3_Rd+0xd6>
    5d4a:	41 83 45 00 01       	addl   $0x1,0x0(%r13)
    5d4f:	89 cb                	mov    %ecx,%ebx
    5d51:	41 83 04 24 01       	addl   $0x1,(%r12)
    5d56:	4d 39 fe             	cmp    %r15,%r14
    5d59:	74 24                	je     5d7f <_ZN4util2io3MMFIidE7GetNextERiS3_Rd+0xff>
    5d5b:	0f 1f 44 00 00       	nopl   0x0(%rax,%rax,1)
    5d60:	49 8b 3e             	mov    (%r14),%rdi
    5d63:	49 8d 4e 10          	lea    0x10(%r14),%rcx
    5d67:	48 39 cf             	cmp    %rcx,%rdi
    5d6a:	74 44                	je     5db0 <_ZN4util2io3MMFIidE7GetNextERiS3_Rd+0x130>
    5d6c:	e8 4f d0 ff ff       	callq  2dc0 <_ZdlPv@plt>
    5d71:	49 83 c6 20          	add    $0x20,%r14
    5d75:	4d 39 fe             	cmp    %r15,%r14
    5d78:	75 e6                	jne    5d60 <_ZN4util2io3MMFIidE7GetNextERiS3_Rd+0xe0>
    5d7a:	4c 8b 7c 24 10       	mov    0x10(%rsp),%r15
    5d7f:	4d 85 ff             	test   %r15,%r15
    5d82:	74 08                	je     5d8c <_ZN4util2io3MMFIidE7GetNextERiS3_Rd+0x10c>
    5d84:	4c 89 ff             	mov    %r15,%rdi
    5d87:	e8 34 d0 ff ff       	callq  2dc0 <_ZdlPv@plt>
    5d8c:	89 d8                	mov    %ebx,%eax
    5d8e:	48 8b 5c 24 28       	mov    0x28(%rsp),%rbx
    5d93:	64 48 33 1c 25 28 00 	xor    %fs:0x28,%rbx
    5d9a:	00 00 
    5d9c:	75 68                	jne    5e06 <_ZN4util2io3MMFIidE7GetNextERiS3_Rd+0x186>
    5d9e:	48 83 c4 38          	add    $0x38,%rsp
    5da2:	5b                   	pop    %rbx
    5da3:	5d                   	pop    %rbp
    5da4:	41 5c                	pop    %r12
    5da6:	41 5d                	pop    %r13
    5da8:	41 5e                	pop    %r14
    5daa:	41 5f                	pop    %r15
    5dac:	c3                   	retq   
    5dad:	0f 1f 00             	nopl   (%rax)
    5db0:	49 83 c6 20          	add    $0x20,%r14
    5db4:	4d 39 fe             	cmp    %r15,%r14
    5db7:	75 a7                	jne    5d60 <_ZN4util2io3MMFIidE7GetNextERiS3_Rd+0xe0>
    5db9:	eb bf                	jmp    5d7a <_ZN4util2io3MMFIidE7GetNextERiS3_Rd+0xfa>
    5dbb:	0f 1f 44 00 00       	nopl   0x0(%rax,%rax,1)
    5dc0:	ba 0a 00 00 00       	mov    $0xa,%edx
    5dc5:	31 f6                	xor    %esi,%esi
    5dc7:	e8 e4 d0 ff ff       	callq  2eb0 <strtol@plt>
    5dcc:	ba 0a 00 00 00       	mov    $0xa,%edx
    5dd1:	31 f6                	xor    %esi,%esi
    5dd3:	41 89 45 00          	mov    %eax,0x0(%r13)
    5dd7:	48 8b 44 24 10       	mov    0x10(%rsp),%rax
    5ddc:	48 8b 78 20          	mov    0x20(%rax),%rdi
    5de0:	e8 cb d0 ff ff       	callq  2eb0 <strtol@plt>
    5de5:	31 f6                	xor    %esi,%esi
    5de7:	41 89 04 24          	mov    %eax,(%r12)
    5deb:	48 8b 44 24 10       	mov    0x10(%rsp),%rax
    5df0:	48 8b 78 40          	mov    0x40(%rax),%rdi
    5df4:	e8 57 cf ff ff       	callq  2d50 <strtod@plt>
    5df9:	48 8b 04 24          	mov    (%rsp),%rax
    5dfd:	c5 fb 11 00          	vmovsd %xmm0,(%rax)
    5e01:	e9 2f ff ff ff       	jmpq   5d35 <_ZN4util2io3MMFIidE7GetNextERiS3_Rd+0xb5>
    5e06:	e8 f5 cf ff ff       	callq  2e00 <__stack_chk_fail@plt>
    5e0b:	48 8b 7c 24 08       	mov    0x8(%rsp),%rdi
    5e10:	48 89 c3             	mov    %rax,%rbx
    5e13:	c5 f8 77             	vzeroupper 
    5e16:	e8 75 f4 ff ff       	callq  5290 <_ZNSt6vectorINSt7__cxx1112basic_stringIcSt11char_traitsIcESaIcEEESaIS5_EED1Ev>
    5e1b:	48 89 df             	mov    %rbx,%rdi
    5e1e:	e8 cd d1 ff ff       	callq  2ff0 <_Unwind_Resume@plt>
    5e23:	49 8b 56 08          	mov    0x8(%r14),%rdx
    5e27:	48 89 fe             	mov    %rdi,%rsi
    5e2a:	48 8d 3d ef b1 20 00 	lea    0x20b1ef(%rip),%rdi        # 211020 <_ZSt4cout@@GLIBCXX_3.4>
    5e31:	e8 ea cf ff ff       	callq  2e20 <_ZSt16__ostream_insertIcSt11char_traitsIcEERSt13basic_ostreamIT_T0_ES6_PKS3_l@plt>
    5e36:	48 89 c7             	mov    %rax,%rdi
    5e39:	e8 62 ce ff ff       	callq  2ca0 <_ZSt4endlIcSt11char_traitsIcEERSt13basic_ostreamIT_T0_ES6_@plt>
    5e3e:	48 8d 35 6b 6a 00 00 	lea    0x6a6b(%rip),%rsi        # c8b0 <_IO_stdin_used+0x1f0>
    5e45:	48 8d 3d d4 b1 20 00 	lea    0x20b1d4(%rip),%rdi        # 211020 <_ZSt4cout@@GLIBCXX_3.4>
    5e4c:	e8 7f cf ff ff       	callq  2dd0 <_ZStlsISt11char_traitsIcEERSt13basic_ostreamIcT_ES5_PKc@plt>
    5e51:	bf 01 00 00 00       	mov    $0x1,%edi
    5e56:	e8 05 d0 ff ff       	callq  2e60 <exit@plt>
    5e5b:	0f 1f 44 00 00       	nopl   0x0(%rax,%rax,1)

0000000000005e60 <_ZN4util2io3MMFIidE8iterator5DoSetEv>:
    5e60:	53                   	push   %rbx
    5e61:	48 8d 4f 18          	lea    0x18(%rdi),%rcx
    5e65:	48 89 fb             	mov    %rdi,%rbx
    5e68:	48 8d 57 14          	lea    0x14(%rdi),%rdx
    5e6c:	48 8d 77 10          	lea    0x10(%rdi),%rsi
    5e70:	48 8b 3f             	mov    (%rdi),%rdi
    5e73:	e8 08 fe ff ff       	callq  5c80 <_ZN4util2io3MMFIidE7GetNextERiS3_Rd>
    5e78:	88 43 20             	mov    %al,0x20(%rbx)
    5e7b:	5b                   	pop    %rbx
    5e7c:	c3                   	retq   
    5e7d:	0f 1f 00             	nopl   (%rax)

0000000000005e80 <_ZN4util2io3MMFIidE8iteratorC1EPS2_m>:
    5e80:	80 be 18 02 00 00 00 	cmpb   $0x0,0x218(%rsi)
    5e87:	48 89 37             	mov    %rsi,(%rdi)
    5e8a:	48 89 57 08          	mov    %rdx,0x8(%rdi)
    5e8e:	75 0e                	jne    5e9e <_ZN4util2io3MMFIidE8iteratorC1EPS2_m+0x1e>
    5e90:	80 be 19 02 00 00 01 	cmpb   $0x1,0x219(%rsi)
    5e97:	74 05                	je     5e9e <_ZN4util2io3MMFIidE8iteratorC1EPS2_m+0x1e>
    5e99:	48 85 d2             	test   %rdx,%rdx
    5e9c:	74 02                	je     5ea0 <_ZN4util2io3MMFIidE8iteratorC1EPS2_m+0x20>
    5e9e:	c3                   	retq   
    5e9f:	90                   	nop
    5ea0:	53                   	push   %rbx
    5ea1:	48 89 f0             	mov    %rsi,%rax
    5ea4:	48 89 fb             	mov    %rdi,%rbx
    5ea7:	48 8d 4f 18          	lea    0x18(%rdi),%rcx
    5eab:	48 8d 57 14          	lea    0x14(%rdi),%rdx
    5eaf:	48 8d 77 10          	lea    0x10(%rdi),%rsi
    5eb3:	48 89 c7             	mov    %rax,%rdi
    5eb6:	e8 c5 fd ff ff       	callq  5c80 <_ZN4util2io3MMFIidE7GetNextERiS3_Rd>
    5ebb:	88 43 20             	mov    %al,0x20(%rbx)
    5ebe:	5b                   	pop    %rbx
    5ebf:	c3                   	retq   

0000000000005ec0 <_ZN4util2io3MMFIidE5beginEv>:
    5ec0:	53                   	push   %rbx
    5ec1:	31 d2                	xor    %edx,%edx
    5ec3:	48 89 fb             	mov    %rdi,%rbx
    5ec6:	e8 b5 ff ff ff       	callq  5e80 <_ZN4util2io3MMFIidE8iteratorC1EPS2_m>
    5ecb:	48 89 d8             	mov    %rbx,%rax
    5ece:	5b                   	pop    %rbx
    5ecf:	c3                   	retq   

0000000000005ed0 <_ZN4util2io3MMFIidE3endEv>:
    5ed0:	80 be 18 02 00 00 00 	cmpb   $0x0,0x218(%rsi)
    5ed7:	53                   	push   %rbx
    5ed8:	48 89 fb             	mov    %rdi,%rbx
    5edb:	75 09                	jne    5ee6 <_ZN4util2io3MMFIidE3endEv+0x16>
    5edd:	80 be 19 02 00 00 00 	cmpb   $0x0,0x219(%rsi)
    5ee4:	74 22                	je     5f08 <_ZN4util2io3MMFIidE3endEv+0x38>
    5ee6:	48 8b 96 28 02 00 00 	mov    0x228(%rsi),%rdx
    5eed:	48 2b 96 20 02 00 00 	sub    0x220(%rsi),%rdx
    5ef4:	48 89 df             	mov    %rbx,%rdi
    5ef7:	48 c1 fa 04          	sar    $0x4,%rdx
    5efb:	e8 80 ff ff ff       	callq  5e80 <_ZN4util2io3MMFIidE8iteratorC1EPS2_m>
    5f00:	48 89 d8             	mov    %rbx,%rax
    5f03:	5b                   	pop    %rbx
    5f04:	c3                   	retq   
    5f05:	0f 1f 00             	nopl   (%rax)
    5f08:	48 63 56 08          	movslq 0x8(%rsi),%rdx
    5f0c:	e8 6f ff ff ff       	callq  5e80 <_ZN4util2io3MMFIidE8iteratorC1EPS2_m>
    5f11:	48 89 d8             	mov    %rbx,%rax
    5f14:	5b                   	pop    %rbx
    5f15:	c3                   	retq   
    5f16:	66 2e 0f 1f 84 00 00 	nopw   %cs:0x0(%rax,%rax,1)
    5f1d:	00 00 00 

0000000000005f20 <_ZN4util2io3MMFIidE8iteratorppEv>:
    5f20:	48 8b 07             	mov    (%rdi),%rax
    5f23:	48 83 47 08 01       	addq   $0x1,0x8(%rdi)
    5f28:	80 b8 18 02 00 00 00 	cmpb   $0x0,0x218(%rax)
    5f2f:	75 09                	jne    5f3a <_ZN4util2io3MMFIidE8iteratorppEv+0x1a>
    5f31:	80 b8 19 02 00 00 00 	cmpb   $0x0,0x219(%rax)
    5f38:	74 06                	je     5f40 <_ZN4util2io3MMFIidE8iteratorppEv+0x20>
    5f3a:	c3                   	retq   
    5f3b:	0f 1f 44 00 00       	nopl   0x0(%rax,%rax,1)
    5f40:	53                   	push   %rbx
    5f41:	48 8d 4f 18          	lea    0x18(%rdi),%rcx
    5f45:	48 89 fb             	mov    %rdi,%rbx
    5f48:	48 8d 57 14          	lea    0x14(%rdi),%rdx
    5f4c:	48 8d 77 10          	lea    0x10(%rdi),%rsi
    5f50:	48 89 c7             	mov    %rax,%rdi
    5f53:	e8 28 fd ff ff       	callq  5c80 <_ZN4util2io3MMFIidE7GetNextERiS3_Rd>
    5f58:	88 43 20             	mov    %al,0x20(%rbx)
    5f5b:	5b                   	pop    %rbx
    5f5c:	c3                   	retq   
    5f5d:	0f 1f 00             	nopl   (%rax)

0000000000005f60 <_ZNSt6vectorIN4util2io4ElemIifEESaIS3_EE17_M_realloc_insertIJRKS3_EEEvN9__gnu_cxx17__normal_iteratorIPS3_S5_EEDpOT_>:
    5f60:	41 57                	push   %r15
    5f62:	41 56                	push   %r14
    5f64:	41 55                	push   %r13
    5f66:	41 54                	push   %r12
    5f68:	49 89 f4             	mov    %rsi,%r12
    5f6b:	48 be ab aa aa aa aa 	movabs $0xaaaaaaaaaaaaaaab,%rsi
    5f72:	aa aa aa 
    5f75:	55                   	push   %rbp
    5f76:	4d 89 e6             	mov    %r12,%r14
    5f79:	48 89 fd             	mov    %rdi,%rbp
    5f7c:	53                   	push   %rbx
    5f7d:	48 83 ec 18          	sub    $0x18,%rsp
    5f81:	48 8b 4f 08          	mov    0x8(%rdi),%rcx
    5f85:	48 8b 1f             	mov    (%rdi),%rbx
    5f88:	48 89 c8             	mov    %rcx,%rax
    5f8b:	49 29 de             	sub    %rbx,%r14
    5f8e:	48 29 d8             	sub    %rbx,%rax
    5f91:	48 c1 f8 02          	sar    $0x2,%rax
    5f95:	48 0f af c6          	imul   %rsi,%rax
    5f99:	48 85 c0             	test   %rax,%rax
    5f9c:	0f 84 be 00 00 00    	je     6060 <_ZNSt6vectorIN4util2io4ElemIifEESaIS3_EE17_M_realloc_insertIJRKS3_EEEvN9__gnu_cxx17__normal_iteratorIPS3_S5_EEDpOT_+0x100>
    5fa2:	48 8d 34 00          	lea    (%rax,%rax,1),%rsi
    5fa6:	49 c7 c7 fc ff ff ff 	mov    $0xfffffffffffffffc,%r15
    5fad:	48 39 f0             	cmp    %rsi,%rax
    5fb0:	0f 86 c2 00 00 00    	jbe    6078 <_ZNSt6vectorIN4util2io4ElemIifEESaIS3_EE17_M_realloc_insertIJRKS3_EEEvN9__gnu_cxx17__normal_iteratorIPS3_S5_EEDpOT_+0x118>
    5fb6:	4c 89 ff             	mov    %r15,%rdi
    5fb9:	48 89 14 24          	mov    %rdx,(%rsp)
    5fbd:	e8 1e ce ff ff       	callq  2de0 <_Znwm@plt>
    5fc2:	48 8b 5d 00          	mov    0x0(%rbp),%rbx
    5fc6:	4d 89 e0             	mov    %r12,%r8
    5fc9:	48 8b 4d 08          	mov    0x8(%rbp),%rcx
    5fcd:	48 8b 14 24          	mov    (%rsp),%rdx
    5fd1:	49 89 c5             	mov    %rax,%r13
    5fd4:	49 01 c7             	add    %rax,%r15
    5fd7:	49 29 d8             	sub    %rbx,%r8
    5fda:	4d 01 ee             	add    %r13,%r14
    5fdd:	74 0d                	je     5fec <_ZNSt6vectorIN4util2io4ElemIifEESaIS3_EE17_M_realloc_insertIJRKS3_EEEvN9__gnu_cxx17__normal_iteratorIPS3_S5_EEDpOT_+0x8c>
    5fdf:	48 8b 02             	mov    (%rdx),%rax
    5fe2:	49 89 06             	mov    %rax,(%r14)
    5fe5:	8b 42 08             	mov    0x8(%rdx),%eax
    5fe8:	41 89 46 08          	mov    %eax,0x8(%r14)
    5fec:	49 39 dc             	cmp    %rbx,%r12
    5fef:	74 20                	je     6011 <_ZNSt6vectorIN4util2io4ElemIifEESaIS3_EE17_M_realloc_insertIJRKS3_EEEvN9__gnu_cxx17__normal_iteratorIPS3_S5_EEDpOT_+0xb1>
    5ff1:	4c 89 c2             	mov    %r8,%rdx
    5ff4:	48 89 de             	mov    %rbx,%rsi
    5ff7:	4c 89 ef             	mov    %r13,%rdi
    5ffa:	48 89 4c 24 08       	mov    %rcx,0x8(%rsp)
    5fff:	4c 89 04 24          	mov    %r8,(%rsp)
    6003:	e8 58 cf ff ff       	callq  2f60 <memmove@plt>
    6008:	48 8b 4c 24 08       	mov    0x8(%rsp),%rcx
    600d:	4c 8b 04 24          	mov    (%rsp),%r8
    6011:	49 89 ce             	mov    %rcx,%r14
    6014:	4f 8d 44 05 0c       	lea    0xc(%r13,%r8,1),%r8
    6019:	4d 29 e6             	sub    %r12,%r14
    601c:	4c 39 e1             	cmp    %r12,%rcx
    601f:	74 11                	je     6032 <_ZNSt6vectorIN4util2io4ElemIifEESaIS3_EE17_M_realloc_insertIJRKS3_EEEvN9__gnu_cxx17__normal_iteratorIPS3_S5_EEDpOT_+0xd2>
    6021:	4c 89 c7             	mov    %r8,%rdi
    6024:	4c 89 f2             	mov    %r14,%rdx
    6027:	4c 89 e6             	mov    %r12,%rsi
    602a:	e8 41 cd ff ff       	callq  2d70 <memcpy@plt>
    602f:	49 89 c0             	mov    %rax,%r8
    6032:	4d 01 c6             	add    %r8,%r14
    6035:	48 85 db             	test   %rbx,%rbx
    6038:	74 08                	je     6042 <_ZNSt6vectorIN4util2io4ElemIifEESaIS3_EE17_M_realloc_insertIJRKS3_EEEvN9__gnu_cxx17__normal_iteratorIPS3_S5_EEDpOT_+0xe2>
    603a:	48 89 df             	mov    %rbx,%rdi
    603d:	e8 7e cd ff ff       	callq  2dc0 <_ZdlPv@plt>
    6042:	4c 89 6d 00          	mov    %r13,0x0(%rbp)
    6046:	4c 89 75 08          	mov    %r14,0x8(%rbp)
    604a:	4c 89 7d 10          	mov    %r15,0x10(%rbp)
    604e:	48 83 c4 18          	add    $0x18,%rsp
    6052:	5b                   	pop    %rbx
    6053:	5d                   	pop    %rbp
    6054:	41 5c                	pop    %r12
    6056:	41 5d                	pop    %r13
    6058:	41 5e                	pop    %r14
    605a:	41 5f                	pop    %r15
    605c:	c3                   	retq   
    605d:	0f 1f 00             	nopl   (%rax)
    6060:	be 01 00 00 00       	mov    $0x1,%esi
    6065:	4c 8d 3c 76          	lea    (%rsi,%rsi,2),%r15
    6069:	49 c1 e7 02          	shl    $0x2,%r15
    606d:	e9 44 ff ff ff       	jmpq   5fb6 <_ZNSt6vectorIN4util2io4ElemIifEESaIS3_EE17_M_realloc_insertIJRKS3_EEEvN9__gnu_cxx17__normal_iteratorIPS3_S5_EEDpOT_+0x56>
    6072:	66 0f 1f 44 00 00    	nopw   0x0(%rax,%rax,1)
    6078:	48 b8 55 55 55 55 55 	movabs $0x1555555555555555,%rax
    607f:	55 55 15 
    6082:	48 39 c6             	cmp    %rax,%rsi
    6085:	0f 87 2b ff ff ff    	ja     5fb6 <_ZNSt6vectorIN4util2io4ElemIifEESaIS3_EE17_M_realloc_insertIJRKS3_EEEvN9__gnu_cxx17__normal_iteratorIPS3_S5_EEDpOT_+0x56>
    608b:	48 85 f6             	test   %rsi,%rsi
    608e:	75 d5                	jne    6065 <_ZNSt6vectorIN4util2io4ElemIifEESaIS3_EE17_M_realloc_insertIJRKS3_EEEvN9__gnu_cxx17__normal_iteratorIPS3_S5_EEDpOT_+0x105>
    6090:	4d 89 f0             	mov    %r14,%r8
    6093:	45 31 ff             	xor    %r15d,%r15d
    6096:	45 31 ed             	xor    %r13d,%r13d
    6099:	e9 3c ff ff ff       	jmpq   5fda <_ZNSt6vectorIN4util2io4ElemIifEESaIS3_EE17_M_realloc_insertIJRKS3_EEEvN9__gnu_cxx17__normal_iteratorIPS3_S5_EEDpOT_+0x7a>
    609e:	66 90                	xchg   %ax,%ax

00000000000060a0 <_ZNSt6vectorIN4util2io4ElemIidEESaIS3_EE17_M_realloc_insertIJRKS3_EEEvN9__gnu_cxx17__normal_iteratorIPS3_S5_EEDpOT_>:
    60a0:	41 57                	push   %r15
    60a2:	41 56                	push   %r14
    60a4:	49 89 f6             	mov    %rsi,%r14
    60a7:	41 55                	push   %r13
    60a9:	41 54                	push   %r12
    60ab:	49 89 f4             	mov    %rsi,%r12
    60ae:	55                   	push   %rbp
    60af:	48 89 fd             	mov    %rdi,%rbp
    60b2:	53                   	push   %rbx
    60b3:	48 83 ec 18          	sub    $0x18,%rsp
    60b7:	48 8b 4f 08          	mov    0x8(%rdi),%rcx
    60bb:	48 8b 1f             	mov    (%rdi),%rbx
    60be:	48 89 c8             	mov    %rcx,%rax
    60c1:	49 29 de             	sub    %rbx,%r14
    60c4:	48 29 d8             	sub    %rbx,%rax
    60c7:	48 c1 f8 04          	sar    $0x4,%rax
    60cb:	0f 84 bf 00 00 00    	je     6190 <_ZNSt6vectorIN4util2io4ElemIidEESaIS3_EE17_M_realloc_insertIJRKS3_EEEvN9__gnu_cxx17__normal_iteratorIPS3_S5_EEDpOT_+0xf0>
    60d1:	48 8d 34 00          	lea    (%rax,%rax,1),%rsi
    60d5:	49 c7 c7 f0 ff ff ff 	mov    $0xfffffffffffffff0,%r15
    60dc:	48 39 f0             	cmp    %rsi,%rax
    60df:	0f 86 c3 00 00 00    	jbe    61a8 <_ZNSt6vectorIN4util2io4ElemIidEESaIS3_EE17_M_realloc_insertIJRKS3_EEEvN9__gnu_cxx17__normal_iteratorIPS3_S5_EEDpOT_+0x108>
    60e5:	4c 89 ff             	mov    %r15,%rdi
    60e8:	48 89 14 24          	mov    %rdx,(%rsp)
    60ec:	e8 ef cc ff ff       	callq  2de0 <_Znwm@plt>
    60f1:	48 8b 5d 00          	mov    0x0(%rbp),%rbx
    60f5:	4d 89 e0             	mov    %r12,%r8
    60f8:	48 8b 4d 08          	mov    0x8(%rbp),%rcx
    60fc:	48 8b 14 24          	mov    (%rsp),%rdx
    6100:	49 89 c5             	mov    %rax,%r13
    6103:	49 01 c7             	add    %rax,%r15
    6106:	49 29 d8             	sub    %rbx,%r8
    6109:	4d 01 ee             	add    %r13,%r14
    610c:	74 09                	je     6117 <_ZNSt6vectorIN4util2io4ElemIidEESaIS3_EE17_M_realloc_insertIJRKS3_EEEvN9__gnu_cxx17__normal_iteratorIPS3_S5_EEDpOT_+0x77>
    610e:	c5 fa 6f 02          	vmovdqu (%rdx),%xmm0
    6112:	c4 c1 78 11 06       	vmovups %xmm0,(%r14)
    6117:	49 39 dc             	cmp    %rbx,%r12
    611a:	74 20                	je     613c <_ZNSt6vectorIN4util2io4ElemIidEESaIS3_EE17_M_realloc_insertIJRKS3_EEEvN9__gnu_cxx17__normal_iteratorIPS3_S5_EEDpOT_+0x9c>
    611c:	4c 89 c2             	mov    %r8,%rdx
    611f:	48 89 de             	mov    %rbx,%rsi
    6122:	4c 89 ef             	mov    %r13,%rdi
    6125:	48 89 4c 24 08       	mov    %rcx,0x8(%rsp)
    612a:	4c 89 04 24          	mov    %r8,(%rsp)
    612e:	e8 2d ce ff ff       	callq  2f60 <memmove@plt>
    6133:	48 8b 4c 24 08       	mov    0x8(%rsp),%rcx
    6138:	4c 8b 04 24          	mov    (%rsp),%r8
    613c:	49 89 ce             	mov    %rcx,%r14
    613f:	4f 8d 44 05 10       	lea    0x10(%r13,%r8,1),%r8
    6144:	4d 29 e6             	sub    %r12,%r14
    6147:	4c 39 e1             	cmp    %r12,%rcx
    614a:	74 11                	je     615d <_ZNSt6vectorIN4util2io4ElemIidEESaIS3_EE17_M_realloc_insertIJRKS3_EEEvN9__gnu_cxx17__normal_iteratorIPS3_S5_EEDpOT_+0xbd>
    614c:	4c 89 c7             	mov    %r8,%rdi
    614f:	4c 89 f2             	mov    %r14,%rdx
    6152:	4c 89 e6             	mov    %r12,%rsi
    6155:	e8 16 cc ff ff       	callq  2d70 <memcpy@plt>
    615a:	49 89 c0             	mov    %rax,%r8
    615d:	4d 01 c6             	add    %r8,%r14
    6160:	48 85 db             	test   %rbx,%rbx
    6163:	74 08                	je     616d <_ZNSt6vectorIN4util2io4ElemIidEESaIS3_EE17_M_realloc_insertIJRKS3_EEEvN9__gnu_cxx17__normal_iteratorIPS3_S5_EEDpOT_+0xcd>
    6165:	48 89 df             	mov    %rbx,%rdi
    6168:	e8 53 cc ff ff       	callq  2dc0 <_ZdlPv@plt>
    616d:	4c 89 6d 00          	mov    %r13,0x0(%rbp)
    6171:	4c 89 75 08          	mov    %r14,0x8(%rbp)
    6175:	4c 89 7d 10          	mov    %r15,0x10(%rbp)
    6179:	48 83 c4 18          	add    $0x18,%rsp
    617d:	5b                   	pop    %rbx
    617e:	5d                   	pop    %rbp
    617f:	41 5c                	pop    %r12
    6181:	41 5d                	pop    %r13
    6183:	41 5e                	pop    %r14
    6185:	41 5f                	pop    %r15
    6187:	c3                   	retq   
    6188:	0f 1f 84 00 00 00 00 	nopl   0x0(%rax,%rax,1)
    618f:	00 
    6190:	be 01 00 00 00       	mov    $0x1,%esi
    6195:	48 c1 e6 04          	shl    $0x4,%rsi
    6199:	49 89 f7             	mov    %rsi,%r15
    619c:	e9 44 ff ff ff       	jmpq   60e5 <_ZNSt6vectorIN4util2io4ElemIidEESaIS3_EE17_M_realloc_insertIJRKS3_EEEvN9__gnu_cxx17__normal_iteratorIPS3_S5_EEDpOT_+0x45>
    61a1:	0f 1f 80 00 00 00 00 	nopl   0x0(%rax)
    61a8:	48 b8 ff ff ff ff ff 	movabs $0xfffffffffffffff,%rax
    61af:	ff ff 0f 
    61b2:	48 39 c6             	cmp    %rax,%rsi
    61b5:	0f 87 2a ff ff ff    	ja     60e5 <_ZNSt6vectorIN4util2io4ElemIidEESaIS3_EE17_M_realloc_insertIJRKS3_EEEvN9__gnu_cxx17__normal_iteratorIPS3_S5_EEDpOT_+0x45>
    61bb:	48 85 f6             	test   %rsi,%rsi
    61be:	75 d5                	jne    6195 <_ZNSt6vectorIN4util2io4ElemIidEESaIS3_EE17_M_realloc_insertIJRKS3_EEEvN9__gnu_cxx17__normal_iteratorIPS3_S5_EEDpOT_+0xf5>
    61c0:	4d 89 f0             	mov    %r14,%r8
    61c3:	45 31 ff             	xor    %r15d,%r15d
    61c6:	45 31 ed             	xor    %r13d,%r13d
    61c9:	e9 3b ff ff ff       	jmpq   6109 <_ZNSt6vectorIN4util2io4ElemIidEESaIS3_EE17_M_realloc_insertIJRKS3_EEEvN9__gnu_cxx17__normal_iteratorIPS3_S5_EEDpOT_+0x69>
    61ce:	66 90                	xchg   %ax,%ax

00000000000061d0 <_ZSt16__insertion_sortIN9__gnu_cxx17__normal_iteratorIPN4util2io4ElemIifEESt6vectorIS5_SaIS5_EEEENS0_5__ops15_Iter_comp_iterINS3_10ElemSorterIifEEEEEvT_SG_T0_>:
    61d0:	48 39 fe             	cmp    %rdi,%rsi
    61d3:	0f 84 df 00 00 00    	je     62b8 <_ZSt16__insertion_sortIN9__gnu_cxx17__normal_iteratorIPN4util2io4ElemIifEESt6vectorIS5_SaIS5_EEEENS0_5__ops15_Iter_comp_iterINS3_10ElemSorterIifEEEEEvT_SG_T0_+0xe8>
    61d9:	41 57                	push   %r15
    61db:	4c 8d 7f 0c          	lea    0xc(%rdi),%r15
    61df:	41 56                	push   %r14
    61e1:	41 55                	push   %r13
    61e3:	41 54                	push   %r12
    61e5:	55                   	push   %rbp
    61e6:	53                   	push   %rbx
    61e7:	48 83 ec 18          	sub    $0x18,%rsp
    61eb:	49 39 f7             	cmp    %rsi,%r15
    61ee:	74 73                	je     6263 <_ZSt16__insertion_sortIN9__gnu_cxx17__normal_iteratorIPN4util2io4ElemIifEESt6vectorIS5_SaIS5_EEEENS0_5__ops15_Iter_comp_iterINS3_10ElemSorterIifEEEEEvT_SG_T0_+0x93>
    61f0:	4c 8d 77 18          	lea    0x18(%rdi),%r14
    61f4:	49 89 fc             	mov    %rdi,%r12
    61f7:	4c 89 fd             	mov    %r15,%rbp
    61fa:	4c 29 f6             	sub    %r14,%rsi
    61fd:	48 83 e6 fc          	and    $0xfffffffffffffffc,%rsi
    6201:	49 01 f6             	add    %rsi,%r14
    6204:	0f 1f 40 00          	nopl   0x0(%rax)
    6208:	8b 5d 00             	mov    0x0(%rbp),%ebx
    620b:	44 8b 6d 04          	mov    0x4(%rbp),%r13d
    620f:	41 3b 1c 24          	cmp    (%r12),%ebx
    6213:	7c 63                	jl     6278 <_ZSt16__insertion_sortIN9__gnu_cxx17__normal_iteratorIPN4util2io4ElemIifEESt6vectorIS5_SaIS5_EEEENS0_5__ops15_Iter_comp_iterINS3_10ElemSorterIifEEEEEvT_SG_T0_+0xa8>
    6215:	7f 07                	jg     621e <_ZSt16__insertion_sortIN9__gnu_cxx17__normal_iteratorIPN4util2io4ElemIifEESt6vectorIS5_SaIS5_EEEENS0_5__ops15_Iter_comp_iterINS3_10ElemSorterIifEEEEEvT_SG_T0_+0x4e>
    6217:	45 39 6c 24 04       	cmp    %r13d,0x4(%r12)
    621c:	7f 5a                	jg     6278 <_ZSt16__insertion_sortIN9__gnu_cxx17__normal_iteratorIPN4util2io4ElemIifEESt6vectorIS5_SaIS5_EEEENS0_5__ops15_Iter_comp_iterINS3_10ElemSorterIifEEEEEvT_SG_T0_+0xa8>
    621e:	c5 fa 10 45 08       	vmovss 0x8(%rbp),%xmm0
    6223:	48 89 e8             	mov    %rbp,%rax
    6226:	eb 20                	jmp    6248 <_ZSt16__insertion_sortIN9__gnu_cxx17__normal_iteratorIPN4util2io4ElemIifEESt6vectorIS5_SaIS5_EEEENS0_5__ops15_Iter_comp_iterINS3_10ElemSorterIifEEEEEvT_SG_T0_+0x78>
    6228:	0f 1f 84 00 00 00 00 	nopl   0x0(%rax,%rax,1)
    622f:	00 
    6230:	44 39 68 f8          	cmp    %r13d,-0x8(%rax)
    6234:	7e 19                	jle    624f <_ZSt16__insertion_sortIN9__gnu_cxx17__normal_iteratorIPN4util2io4ElemIifEESt6vectorIS5_SaIS5_EEEENS0_5__ops15_Iter_comp_iterINS3_10ElemSorterIifEEEEEvT_SG_T0_+0x7f>
    6236:	48 8b 50 f4          	mov    -0xc(%rax),%rdx
    623a:	48 83 e8 0c          	sub    $0xc,%rax
    623e:	48 89 50 0c          	mov    %rdx,0xc(%rax)
    6242:	8b 50 08             	mov    0x8(%rax),%edx
    6245:	89 50 14             	mov    %edx,0x14(%rax)
    6248:	3b 58 f4             	cmp    -0xc(%rax),%ebx
    624b:	7c e9                	jl     6236 <_ZSt16__insertion_sortIN9__gnu_cxx17__normal_iteratorIPN4util2io4ElemIifEESt6vectorIS5_SaIS5_EEEENS0_5__ops15_Iter_comp_iterINS3_10ElemSorterIifEEEEEvT_SG_T0_+0x66>
    624d:	7e e1                	jle    6230 <_ZSt16__insertion_sortIN9__gnu_cxx17__normal_iteratorIPN4util2io4ElemIifEESt6vectorIS5_SaIS5_EEEENS0_5__ops15_Iter_comp_iterINS3_10ElemSorterIifEEEEEvT_SG_T0_+0x60>
    624f:	89 18                	mov    %ebx,(%rax)
    6251:	44 89 68 04          	mov    %r13d,0x4(%rax)
    6255:	c5 fa 11 40 08       	vmovss %xmm0,0x8(%rax)
    625a:	48 83 c5 0c          	add    $0xc,%rbp
    625e:	49 39 ee             	cmp    %rbp,%r14
    6261:	75 a5                	jne    6208 <_ZSt16__insertion_sortIN9__gnu_cxx17__normal_iteratorIPN4util2io4ElemIifEESt6vectorIS5_SaIS5_EEEENS0_5__ops15_Iter_comp_iterINS3_10ElemSorterIifEEEEEvT_SG_T0_+0x38>
    6263:	48 83 c4 18          	add    $0x18,%rsp
    6267:	5b                   	pop    %rbx
    6268:	5d                   	pop    %rbp
    6269:	41 5c                	pop    %r12
    626b:	41 5d                	pop    %r13
    626d:	41 5e                	pop    %r14
    626f:	41 5f                	pop    %r15
    6271:	c3                   	retq   
    6272:	66 0f 1f 44 00 00    	nopw   0x0(%rax,%rax,1)
    6278:	c5 fa 10 45 08       	vmovss 0x8(%rbp),%xmm0
    627d:	49 39 ec             	cmp    %rbp,%r12
    6280:	74 1d                	je     629f <_ZSt16__insertion_sortIN9__gnu_cxx17__normal_iteratorIPN4util2io4ElemIifEESt6vectorIS5_SaIS5_EEEENS0_5__ops15_Iter_comp_iterINS3_10ElemSorterIifEEEEEvT_SG_T0_+0xcf>
    6282:	48 89 ea             	mov    %rbp,%rdx
    6285:	4c 89 ff             	mov    %r15,%rdi
    6288:	4c 89 e6             	mov    %r12,%rsi
    628b:	c5 fa 11 44 24 0c    	vmovss %xmm0,0xc(%rsp)
    6291:	4c 29 e2             	sub    %r12,%rdx
    6294:	e8 c7 cc ff ff       	callq  2f60 <memmove@plt>
    6299:	c5 fa 10 44 24 0c    	vmovss 0xc(%rsp),%xmm0
    629f:	41 89 1c 24          	mov    %ebx,(%r12)
    62a3:	45 89 6c 24 04       	mov    %r13d,0x4(%r12)
    62a8:	c4 c1 7a 11 44 24 08 	vmovss %xmm0,0x8(%r12)
    62af:	eb a9                	jmp    625a <_ZSt16__insertion_sortIN9__gnu_cxx17__normal_iteratorIPN4util2io4ElemIifEESt6vectorIS5_SaIS5_EEEENS0_5__ops15_Iter_comp_iterINS3_10ElemSorterIifEEEEEvT_SG_T0_+0x8a>
    62b1:	0f 1f 80 00 00 00 00 	nopl   0x0(%rax)
    62b8:	c3                   	retq   
    62b9:	0f 1f 80 00 00 00 00 	nopl   0x0(%rax)

00000000000062c0 <_ZSt16__insertion_sortIN9__gnu_cxx17__normal_iteratorIPN4util2io4ElemIidEESt6vectorIS5_SaIS5_EEEENS0_5__ops15_Iter_comp_iterINS3_10ElemSorterIidEEEEEvT_SG_T0_>:
    62c0:	48 39 fe             	cmp    %rdi,%rsi
    62c3:	0f 84 c7 00 00 00    	je     6390 <_ZSt16__insertion_sortIN9__gnu_cxx17__normal_iteratorIPN4util2io4ElemIidEESt6vectorIS5_SaIS5_EEEENS0_5__ops15_Iter_comp_iterINS3_10ElemSorterIidEEEEEvT_SG_T0_+0xd0>
    62c9:	41 57                	push   %r15
    62cb:	4c 8d 7f 10          	lea    0x10(%rdi),%r15
    62cf:	41 56                	push   %r14
    62d1:	41 55                	push   %r13
    62d3:	41 54                	push   %r12
    62d5:	55                   	push   %rbp
    62d6:	53                   	push   %rbx
    62d7:	48 83 ec 18          	sub    $0x18,%rsp
    62db:	49 39 f7             	cmp    %rsi,%r15
    62de:	74 5f                	je     633f <_ZSt16__insertion_sortIN9__gnu_cxx17__normal_iteratorIPN4util2io4ElemIidEESt6vectorIS5_SaIS5_EEEENS0_5__ops15_Iter_comp_iterINS3_10ElemSorterIidEEEEEvT_SG_T0_+0x7f>
    62e0:	49 89 fc             	mov    %rdi,%r12
    62e3:	4c 89 fd             	mov    %r15,%rbp
    62e6:	49 89 f6             	mov    %rsi,%r14
    62e9:	0f 1f 80 00 00 00 00 	nopl   0x0(%rax)
    62f0:	8b 5d 00             	mov    0x0(%rbp),%ebx
    62f3:	44 8b 6d 04          	mov    0x4(%rbp),%r13d
    62f7:	41 3b 1c 24          	cmp    (%r12),%ebx
    62fb:	7c 53                	jl     6350 <_ZSt16__insertion_sortIN9__gnu_cxx17__normal_iteratorIPN4util2io4ElemIidEESt6vectorIS5_SaIS5_EEEENS0_5__ops15_Iter_comp_iterINS3_10ElemSorterIidEEEEEvT_SG_T0_+0x90>
    62fd:	7f 07                	jg     6306 <_ZSt16__insertion_sortIN9__gnu_cxx17__normal_iteratorIPN4util2io4ElemIidEESt6vectorIS5_SaIS5_EEEENS0_5__ops15_Iter_comp_iterINS3_10ElemSorterIidEEEEEvT_SG_T0_+0x46>
    62ff:	45 39 6c 24 04       	cmp    %r13d,0x4(%r12)
    6304:	7f 4a                	jg     6350 <_ZSt16__insertion_sortIN9__gnu_cxx17__normal_iteratorIPN4util2io4ElemIidEESt6vectorIS5_SaIS5_EEEENS0_5__ops15_Iter_comp_iterINS3_10ElemSorterIidEEEEEvT_SG_T0_+0x90>
    6306:	c5 fb 10 4d 08       	vmovsd 0x8(%rbp),%xmm1
    630b:	48 89 e8             	mov    %rbp,%rax
    630e:	eb 14                	jmp    6324 <_ZSt16__insertion_sortIN9__gnu_cxx17__normal_iteratorIPN4util2io4ElemIidEESt6vectorIS5_SaIS5_EEEENS0_5__ops15_Iter_comp_iterINS3_10ElemSorterIidEEEEEvT_SG_T0_+0x64>
    6310:	44 39 68 f4          	cmp    %r13d,-0xc(%rax)
    6314:	7e 15                	jle    632b <_ZSt16__insertion_sortIN9__gnu_cxx17__normal_iteratorIPN4util2io4ElemIidEESt6vectorIS5_SaIS5_EEEENS0_5__ops15_Iter_comp_iterINS3_10ElemSorterIidEEEEEvT_SG_T0_+0x6b>
    6316:	c5 fa 6f 40 f0       	vmovdqu -0x10(%rax),%xmm0
    631b:	48 83 e8 10          	sub    $0x10,%rax
    631f:	c5 f8 11 40 10       	vmovups %xmm0,0x10(%rax)
    6324:	3b 58 f0             	cmp    -0x10(%rax),%ebx
    6327:	7c ed                	jl     6316 <_ZSt16__insertion_sortIN9__gnu_cxx17__normal_iteratorIPN4util2io4ElemIidEESt6vectorIS5_SaIS5_EEEENS0_5__ops15_Iter_comp_iterINS3_10ElemSorterIidEEEEEvT_SG_T0_+0x56>
    6329:	7e e5                	jle    6310 <_ZSt16__insertion_sortIN9__gnu_cxx17__normal_iteratorIPN4util2io4ElemIidEESt6vectorIS5_SaIS5_EEEENS0_5__ops15_Iter_comp_iterINS3_10ElemSorterIidEEEEEvT_SG_T0_+0x50>
    632b:	89 18                	mov    %ebx,(%rax)
    632d:	44 89 68 04          	mov    %r13d,0x4(%rax)
    6331:	c5 fb 11 48 08       	vmovsd %xmm1,0x8(%rax)
    6336:	48 83 c5 10          	add    $0x10,%rbp
    633a:	49 39 ee             	cmp    %rbp,%r14
    633d:	75 b1                	jne    62f0 <_ZSt16__insertion_sortIN9__gnu_cxx17__normal_iteratorIPN4util2io4ElemIidEESt6vectorIS5_SaIS5_EEEENS0_5__ops15_Iter_comp_iterINS3_10ElemSorterIidEEEEEvT_SG_T0_+0x30>
    633f:	48 83 c4 18          	add    $0x18,%rsp
    6343:	5b                   	pop    %rbx
    6344:	5d                   	pop    %rbp
    6345:	41 5c                	pop    %r12
    6347:	41 5d                	pop    %r13
    6349:	41 5e                	pop    %r14
    634b:	41 5f                	pop    %r15
    634d:	c3                   	retq   
    634e:	66 90                	xchg   %ax,%ax
    6350:	c5 fb 10 45 08       	vmovsd 0x8(%rbp),%xmm0
    6355:	49 39 ec             	cmp    %rbp,%r12
    6358:	74 1d                	je     6377 <_ZSt16__insertion_sortIN9__gnu_cxx17__normal_iteratorIPN4util2io4ElemIidEESt6vectorIS5_SaIS5_EEEENS0_5__ops15_Iter_comp_iterINS3_10ElemSorterIidEEEEEvT_SG_T0_+0xb7>
    635a:	48 89 ea             	mov    %rbp,%rdx
    635d:	4c 89 ff             	mov    %r15,%rdi
    6360:	4c 89 e6             	mov    %r12,%rsi
    6363:	c5 fb 11 44 24 08    	vmovsd %xmm0,0x8(%rsp)
    6369:	4c 29 e2             	sub    %r12,%rdx
    636c:	e8 ef cb ff ff       	callq  2f60 <memmove@plt>
    6371:	c5 fb 10 44 24 08    	vmovsd 0x8(%rsp),%xmm0
    6377:	41 89 1c 24          	mov    %ebx,(%r12)
    637b:	45 89 6c 24 04       	mov    %r13d,0x4(%r12)
    6380:	c4 c1 7b 11 44 24 08 	vmovsd %xmm0,0x8(%r12)
    6387:	eb ad                	jmp    6336 <_ZSt16__insertion_sortIN9__gnu_cxx17__normal_iteratorIPN4util2io4ElemIidEESt6vectorIS5_SaIS5_EEEENS0_5__ops15_Iter_comp_iterINS3_10ElemSorterIidEEEEEvT_SG_T0_+0x76>
    6389:	0f 1f 80 00 00 00 00 	nopl   0x0(%rax)
    6390:	c3                   	retq   
    6391:	66 2e 0f 1f 84 00 00 	nopw   %cs:0x0(%rax,%rax,1)
    6398:	00 00 00 
    639b:	0f 1f 44 00 00       	nopl   0x0(%rax,%rax,1)

00000000000063a0 <_ZSt22__move_median_to_firstIN9__gnu_cxx17__normal_iteratorIPN4util2io4ElemIifEESt6vectorIS5_SaIS5_EEEENS0_5__ops15_Iter_comp_iterINS3_10ElemSorterIifEEEEEvT_SG_SG_SG_T0_>:
    63a0:	44 8b 06             	mov    (%rsi),%r8d
    63a3:	8b 02                	mov    (%rdx),%eax
    63a5:	44 39 c0             	cmp    %r8d,%eax
    63a8:	7f 50                	jg     63fa <_ZSt22__move_median_to_firstIN9__gnu_cxx17__normal_iteratorIPN4util2io4ElemIifEESt6vectorIS5_SaIS5_EEEENS0_5__ops15_Iter_comp_iterINS3_10ElemSorterIifEEEEEvT_SG_SG_SG_T0_+0x5a>
    63aa:	7d 44                	jge    63f0 <_ZSt22__move_median_to_firstIN9__gnu_cxx17__normal_iteratorIPN4util2io4ElemIifEESt6vectorIS5_SaIS5_EEEENS0_5__ops15_Iter_comp_iterINS3_10ElemSorterIifEEEEEvT_SG_SG_SG_T0_+0x50>
    63ac:	44 8b 09             	mov    (%rcx),%r9d
    63af:	45 39 c8             	cmp    %r9d,%r8d
    63b2:	0f 8c 8e 00 00 00    	jl     6446 <_ZSt22__move_median_to_firstIN9__gnu_cxx17__normal_iteratorIPN4util2io4ElemIifEESt6vectorIS5_SaIS5_EEEENS0_5__ops15_Iter_comp_iterINS3_10ElemSorterIifEEEEEvT_SG_SG_SG_T0_+0xa6>
    63b8:	7e 7e                	jle    6438 <_ZSt22__move_median_to_firstIN9__gnu_cxx17__normal_iteratorIPN4util2io4ElemIifEESt6vectorIS5_SaIS5_EEEENS0_5__ops15_Iter_comp_iterINS3_10ElemSorterIifEEEEEvT_SG_SG_SG_T0_+0x98>
    63ba:	44 39 c8             	cmp    %r9d,%eax
    63bd:	7c 54                	jl     6413 <_ZSt22__move_median_to_firstIN9__gnu_cxx17__normal_iteratorIPN4util2io4ElemIifEESt6vectorIS5_SaIS5_EEEENS0_5__ops15_Iter_comp_iterINS3_10ElemSorterIifEEEEEvT_SG_SG_SG_T0_+0x73>
    63bf:	0f 8e bb 00 00 00    	jle    6480 <_ZSt22__move_median_to_firstIN9__gnu_cxx17__normal_iteratorIPN4util2io4ElemIifEESt6vectorIS5_SaIS5_EEEENS0_5__ops15_Iter_comp_iterINS3_10ElemSorterIifEEEEEvT_SG_SG_SG_T0_+0xe0>
    63c5:	48 8b 32             	mov    (%rdx),%rsi
    63c8:	8b 0f                	mov    (%rdi),%ecx
    63ca:	8b 47 04             	mov    0x4(%rdi),%eax
    63cd:	c5 fa 10 47 08       	vmovss 0x8(%rdi),%xmm0
    63d2:	48 89 37             	mov    %rsi,(%rdi)
    63d5:	8b 72 08             	mov    0x8(%rdx),%esi
    63d8:	89 77 08             	mov    %esi,0x8(%rdi)
    63db:	89 0a                	mov    %ecx,(%rdx)
    63dd:	89 42 04             	mov    %eax,0x4(%rdx)
    63e0:	c5 fa 11 42 08       	vmovss %xmm0,0x8(%rdx)
    63e5:	c3                   	retq   
    63e6:	66 2e 0f 1f 84 00 00 	nopw   %cs:0x0(%rax,%rax,1)
    63ed:	00 00 00 
    63f0:	44 8b 52 04          	mov    0x4(%rdx),%r10d
    63f4:	44 39 56 04          	cmp    %r10d,0x4(%rsi)
    63f8:	7d b2                	jge    63ac <_ZSt22__move_median_to_firstIN9__gnu_cxx17__normal_iteratorIPN4util2io4ElemIifEESt6vectorIS5_SaIS5_EEEENS0_5__ops15_Iter_comp_iterINS3_10ElemSorterIifEEEEEvT_SG_SG_SG_T0_+0xc>
    63fa:	44 8b 09             	mov    (%rcx),%r9d
    63fd:	44 39 c8             	cmp    %r9d,%eax
    6400:	7c c3                	jl     63c5 <_ZSt22__move_median_to_firstIN9__gnu_cxx17__normal_iteratorIPN4util2io4ElemIifEESt6vectorIS5_SaIS5_EEEENS0_5__ops15_Iter_comp_iterINS3_10ElemSorterIifEEEEEvT_SG_SG_SG_T0_+0x25>
    6402:	7e 6c                	jle    6470 <_ZSt22__move_median_to_firstIN9__gnu_cxx17__normal_iteratorIPN4util2io4ElemIifEESt6vectorIS5_SaIS5_EEEENS0_5__ops15_Iter_comp_iterINS3_10ElemSorterIifEEEEEvT_SG_SG_SG_T0_+0xd0>
    6404:	45 39 c8             	cmp    %r9d,%r8d
    6407:	7c 0a                	jl     6413 <_ZSt22__move_median_to_firstIN9__gnu_cxx17__normal_iteratorIPN4util2io4ElemIifEESt6vectorIS5_SaIS5_EEEENS0_5__ops15_Iter_comp_iterINS3_10ElemSorterIifEEEEEvT_SG_SG_SG_T0_+0x73>
    6409:	7f 3b                	jg     6446 <_ZSt22__move_median_to_firstIN9__gnu_cxx17__normal_iteratorIPN4util2io4ElemIifEESt6vectorIS5_SaIS5_EEEENS0_5__ops15_Iter_comp_iterINS3_10ElemSorterIifEEEEEvT_SG_SG_SG_T0_+0xa6>
    640b:	8b 41 04             	mov    0x4(%rcx),%eax
    640e:	39 46 04             	cmp    %eax,0x4(%rsi)
    6411:	7d 33                	jge    6446 <_ZSt22__move_median_to_firstIN9__gnu_cxx17__normal_iteratorIPN4util2io4ElemIifEESt6vectorIS5_SaIS5_EEEENS0_5__ops15_Iter_comp_iterINS3_10ElemSorterIifEEEEEvT_SG_SG_SG_T0_+0xa6>
    6413:	48 8b 31             	mov    (%rcx),%rsi
    6416:	8b 17                	mov    (%rdi),%edx
    6418:	8b 47 04             	mov    0x4(%rdi),%eax
    641b:	c5 fa 10 47 08       	vmovss 0x8(%rdi),%xmm0
    6420:	48 89 37             	mov    %rsi,(%rdi)
    6423:	8b 71 08             	mov    0x8(%rcx),%esi
    6426:	89 77 08             	mov    %esi,0x8(%rdi)
    6429:	89 11                	mov    %edx,(%rcx)
    642b:	89 41 04             	mov    %eax,0x4(%rcx)
    642e:	c5 fa 11 41 08       	vmovss %xmm0,0x8(%rcx)
    6433:	c3                   	retq   
    6434:	0f 1f 40 00          	nopl   0x0(%rax)
    6438:	44 8b 59 04          	mov    0x4(%rcx),%r11d
    643c:	44 39 5e 04          	cmp    %r11d,0x4(%rsi)
    6440:	0f 8d 74 ff ff ff    	jge    63ba <_ZSt22__move_median_to_firstIN9__gnu_cxx17__normal_iteratorIPN4util2io4ElemIifEESt6vectorIS5_SaIS5_EEEENS0_5__ops15_Iter_comp_iterINS3_10ElemSorterIifEEEEEvT_SG_SG_SG_T0_+0x1a>
    6446:	48 8b 0e             	mov    (%rsi),%rcx
    6449:	8b 17                	mov    (%rdi),%edx
    644b:	8b 47 04             	mov    0x4(%rdi),%eax
    644e:	c5 fa 10 47 08       	vmovss 0x8(%rdi),%xmm0
    6453:	48 89 0f             	mov    %rcx,(%rdi)
    6456:	8b 4e 08             	mov    0x8(%rsi),%ecx
    6459:	89 4f 08             	mov    %ecx,0x8(%rdi)
    645c:	89 16                	mov    %edx,(%rsi)
    645e:	89 46 04             	mov    %eax,0x4(%rsi)
    6461:	c5 fa 11 46 08       	vmovss %xmm0,0x8(%rsi)
    6466:	c3                   	retq   
    6467:	66 0f 1f 84 00 00 00 	nopw   0x0(%rax,%rax,1)
    646e:	00 00 
    6470:	8b 41 04             	mov    0x4(%rcx),%eax
    6473:	39 42 04             	cmp    %eax,0x4(%rdx)
    6476:	7d 8c                	jge    6404 <_ZSt22__move_median_to_firstIN9__gnu_cxx17__normal_iteratorIPN4util2io4ElemIifEESt6vectorIS5_SaIS5_EEEENS0_5__ops15_Iter_comp_iterINS3_10ElemSorterIifEEEEEvT_SG_SG_SG_T0_+0x64>
    6478:	e9 48 ff ff ff       	jmpq   63c5 <_ZSt22__move_median_to_firstIN9__gnu_cxx17__normal_iteratorIPN4util2io4ElemIifEESt6vectorIS5_SaIS5_EEEENS0_5__ops15_Iter_comp_iterINS3_10ElemSorterIifEEEEEvT_SG_SG_SG_T0_+0x25>
    647d:	0f 1f 00             	nopl   (%rax)
    6480:	8b 41 04             	mov    0x4(%rcx),%eax
    6483:	39 42 04             	cmp    %eax,0x4(%rdx)
    6486:	0f 8d 39 ff ff ff    	jge    63c5 <_ZSt22__move_median_to_firstIN9__gnu_cxx17__normal_iteratorIPN4util2io4ElemIifEESt6vectorIS5_SaIS5_EEEENS0_5__ops15_Iter_comp_iterINS3_10ElemSorterIifEEEEEvT_SG_SG_SG_T0_+0x25>
    648c:	eb 85                	jmp    6413 <_ZSt22__move_median_to_firstIN9__gnu_cxx17__normal_iteratorIPN4util2io4ElemIifEESt6vectorIS5_SaIS5_EEEENS0_5__ops15_Iter_comp_iterINS3_10ElemSorterIifEEEEEvT_SG_SG_SG_T0_+0x73>
    648e:	66 90                	xchg   %ax,%ax

0000000000006490 <_ZSt22__move_median_to_firstIN9__gnu_cxx17__normal_iteratorIPN4util2io4ElemIidEESt6vectorIS5_SaIS5_EEEENS0_5__ops15_Iter_comp_iterINS3_10ElemSorterIidEEEEEvT_SG_SG_SG_T0_>:
    6490:	44 8b 06             	mov    (%rsi),%r8d
    6493:	8b 02                	mov    (%rdx),%eax
    6495:	44 39 c0             	cmp    %r8d,%eax
    6498:	7f 40                	jg     64da <_ZSt22__move_median_to_firstIN9__gnu_cxx17__normal_iteratorIPN4util2io4ElemIidEESt6vectorIS5_SaIS5_EEEENS0_5__ops15_Iter_comp_iterINS3_10ElemSorterIidEEEEEvT_SG_SG_SG_T0_+0x4a>
    649a:	7d 34                	jge    64d0 <_ZSt22__move_median_to_firstIN9__gnu_cxx17__normal_iteratorIPN4util2io4ElemIidEESt6vectorIS5_SaIS5_EEEENS0_5__ops15_Iter_comp_iterINS3_10ElemSorterIidEEEEEvT_SG_SG_SG_T0_+0x40>
    649c:	44 8b 09             	mov    (%rcx),%r9d
    649f:	45 39 c8             	cmp    %r9d,%r8d
    64a2:	7c 76                	jl     651a <_ZSt22__move_median_to_firstIN9__gnu_cxx17__normal_iteratorIPN4util2io4ElemIidEESt6vectorIS5_SaIS5_EEEENS0_5__ops15_Iter_comp_iterINS3_10ElemSorterIidEEEEEvT_SG_SG_SG_T0_+0x8a>
    64a4:	7e 6a                	jle    6510 <_ZSt22__move_median_to_firstIN9__gnu_cxx17__normal_iteratorIPN4util2io4ElemIidEESt6vectorIS5_SaIS5_EEEENS0_5__ops15_Iter_comp_iterINS3_10ElemSorterIidEEEEEvT_SG_SG_SG_T0_+0x80>
    64a6:	44 39 c8             	cmp    %r9d,%eax
    64a9:	7c 48                	jl     64f3 <_ZSt22__move_median_to_firstIN9__gnu_cxx17__normal_iteratorIPN4util2io4ElemIidEESt6vectorIS5_SaIS5_EEEENS0_5__ops15_Iter_comp_iterINS3_10ElemSorterIidEEEEEvT_SG_SG_SG_T0_+0x63>
    64ab:	0f 8e 9f 00 00 00    	jle    6550 <_ZSt22__move_median_to_firstIN9__gnu_cxx17__normal_iteratorIPN4util2io4ElemIidEESt6vectorIS5_SaIS5_EEEENS0_5__ops15_Iter_comp_iterINS3_10ElemSorterIidEEEEEvT_SG_SG_SG_T0_+0xc0>
    64b1:	8b 0f                	mov    (%rdi),%ecx
    64b3:	8b 47 04             	mov    0x4(%rdi),%eax
    64b6:	c5 fb 10 47 08       	vmovsd 0x8(%rdi),%xmm0
    64bb:	c5 fa 6f 0a          	vmovdqu (%rdx),%xmm1
    64bf:	c5 f8 11 0f          	vmovups %xmm1,(%rdi)
    64c3:	89 0a                	mov    %ecx,(%rdx)
    64c5:	89 42 04             	mov    %eax,0x4(%rdx)
    64c8:	c5 fb 11 42 08       	vmovsd %xmm0,0x8(%rdx)
    64cd:	c3                   	retq   
    64ce:	66 90                	xchg   %ax,%ax
    64d0:	44 8b 52 04          	mov    0x4(%rdx),%r10d
    64d4:	44 39 56 04          	cmp    %r10d,0x4(%rsi)
    64d8:	7d c2                	jge    649c <_ZSt22__move_median_to_firstIN9__gnu_cxx17__normal_iteratorIPN4util2io4ElemIidEESt6vectorIS5_SaIS5_EEEENS0_5__ops15_Iter_comp_iterINS3_10ElemSorterIidEEEEEvT_SG_SG_SG_T0_+0xc>
    64da:	44 8b 09             	mov    (%rcx),%r9d
    64dd:	44 39 c8             	cmp    %r9d,%eax
    64e0:	7c cf                	jl     64b1 <_ZSt22__move_median_to_firstIN9__gnu_cxx17__normal_iteratorIPN4util2io4ElemIidEESt6vectorIS5_SaIS5_EEEENS0_5__ops15_Iter_comp_iterINS3_10ElemSorterIidEEEEEvT_SG_SG_SG_T0_+0x21>
    64e2:	7e 5c                	jle    6540 <_ZSt22__move_median_to_firstIN9__gnu_cxx17__normal_iteratorIPN4util2io4ElemIidEESt6vectorIS5_SaIS5_EEEENS0_5__ops15_Iter_comp_iterINS3_10ElemSorterIidEEEEEvT_SG_SG_SG_T0_+0xb0>
    64e4:	45 39 c8             	cmp    %r9d,%r8d
    64e7:	7c 0a                	jl     64f3 <_ZSt22__move_median_to_firstIN9__gnu_cxx17__normal_iteratorIPN4util2io4ElemIidEESt6vectorIS5_SaIS5_EEEENS0_5__ops15_Iter_comp_iterINS3_10ElemSorterIidEEEEEvT_SG_SG_SG_T0_+0x63>
    64e9:	7f 2f                	jg     651a <_ZSt22__move_median_to_firstIN9__gnu_cxx17__normal_iteratorIPN4util2io4ElemIidEESt6vectorIS5_SaIS5_EEEENS0_5__ops15_Iter_comp_iterINS3_10ElemSorterIidEEEEEvT_SG_SG_SG_T0_+0x8a>
    64eb:	8b 41 04             	mov    0x4(%rcx),%eax
    64ee:	39 46 04             	cmp    %eax,0x4(%rsi)
    64f1:	7d 27                	jge    651a <_ZSt22__move_median_to_firstIN9__gnu_cxx17__normal_iteratorIPN4util2io4ElemIidEESt6vectorIS5_SaIS5_EEEENS0_5__ops15_Iter_comp_iterINS3_10ElemSorterIidEEEEEvT_SG_SG_SG_T0_+0x8a>
    64f3:	8b 17                	mov    (%rdi),%edx
    64f5:	8b 47 04             	mov    0x4(%rdi),%eax
    64f8:	c5 fb 10 47 08       	vmovsd 0x8(%rdi),%xmm0
    64fd:	c5 fa 6f 09          	vmovdqu (%rcx),%xmm1
    6501:	c5 f8 11 0f          	vmovups %xmm1,(%rdi)
    6505:	89 11                	mov    %edx,(%rcx)
    6507:	89 41 04             	mov    %eax,0x4(%rcx)
    650a:	c5 fb 11 41 08       	vmovsd %xmm0,0x8(%rcx)
    650f:	c3                   	retq   
    6510:	44 8b 59 04          	mov    0x4(%rcx),%r11d
    6514:	44 39 5e 04          	cmp    %r11d,0x4(%rsi)
    6518:	7d 8c                	jge    64a6 <_ZSt22__move_median_to_firstIN9__gnu_cxx17__normal_iteratorIPN4util2io4ElemIidEESt6vectorIS5_SaIS5_EEEENS0_5__ops15_Iter_comp_iterINS3_10ElemSorterIidEEEEEvT_SG_SG_SG_T0_+0x16>
    651a:	8b 17                	mov    (%rdi),%edx
    651c:	8b 47 04             	mov    0x4(%rdi),%eax
    651f:	c5 fb 10 47 08       	vmovsd 0x8(%rdi),%xmm0
    6524:	c5 fa 6f 0e          	vmovdqu (%rsi),%xmm1
    6528:	c5 f8 11 0f          	vmovups %xmm1,(%rdi)
    652c:	89 16                	mov    %edx,(%rsi)
    652e:	89 46 04             	mov    %eax,0x4(%rsi)
    6531:	c5 fb 11 46 08       	vmovsd %xmm0,0x8(%rsi)
    6536:	c3                   	retq   
    6537:	66 0f 1f 84 00 00 00 	nopw   0x0(%rax,%rax,1)
    653e:	00 00 
    6540:	8b 41 04             	mov    0x4(%rcx),%eax
    6543:	39 42 04             	cmp    %eax,0x4(%rdx)
    6546:	7d 9c                	jge    64e4 <_ZSt22__move_median_to_firstIN9__gnu_cxx17__normal_iteratorIPN4util2io4ElemIidEESt6vectorIS5_SaIS5_EEEENS0_5__ops15_Iter_comp_iterINS3_10ElemSorterIidEEEEEvT_SG_SG_SG_T0_+0x54>
    6548:	e9 64 ff ff ff       	jmpq   64b1 <_ZSt22__move_median_to_firstIN9__gnu_cxx17__normal_iteratorIPN4util2io4ElemIidEESt6vectorIS5_SaIS5_EEEENS0_5__ops15_Iter_comp_iterINS3_10ElemSorterIidEEEEEvT_SG_SG_SG_T0_+0x21>
    654d:	0f 1f 00             	nopl   (%rax)
    6550:	8b 41 04             	mov    0x4(%rcx),%eax
    6553:	39 42 04             	cmp    %eax,0x4(%rdx)
    6556:	0f 8d 55 ff ff ff    	jge    64b1 <_ZSt22__move_median_to_firstIN9__gnu_cxx17__normal_iteratorIPN4util2io4ElemIidEESt6vectorIS5_SaIS5_EEEENS0_5__ops15_Iter_comp_iterINS3_10ElemSorterIidEEEEEvT_SG_SG_SG_T0_+0x21>
    655c:	eb 95                	jmp    64f3 <_ZSt22__move_median_to_firstIN9__gnu_cxx17__normal_iteratorIPN4util2io4ElemIidEESt6vectorIS5_SaIS5_EEEENS0_5__ops15_Iter_comp_iterINS3_10ElemSorterIidEEEEEvT_SG_SG_SG_T0_+0x63>
    655e:	66 90                	xchg   %ax,%ax

0000000000006560 <_ZSt13__adjust_heapIN9__gnu_cxx17__normal_iteratorIPN4util2io4ElemIifEESt6vectorIS5_SaIS5_EEEElS5_NS0_5__ops15_Iter_comp_iterINS3_10ElemSorterIifEEEEEvT_T0_SH_T1_T2_>:
    6560:	48 8d 42 ff          	lea    -0x1(%rdx),%rax
    6564:	53                   	push   %rbx
    6565:	49 89 c3             	mov    %rax,%r11
    6568:	49 c1 eb 3f          	shr    $0x3f,%r11
    656c:	49 01 c3             	add    %rax,%r11
    656f:	48 89 4c 24 f0       	mov    %rcx,-0x10(%rsp)
    6574:	49 d1 fb             	sar    %r11
    6577:	c5 fa 11 44 24 f8    	vmovss %xmm0,-0x8(%rsp)
    657d:	4c 39 de             	cmp    %r11,%rsi
    6580:	7d 6e                	jge    65f0 <_ZSt13__adjust_heapIN9__gnu_cxx17__normal_iteratorIPN4util2io4ElemIifEESt6vectorIS5_SaIS5_EEEElS5_NS0_5__ops15_Iter_comp_iterINS3_10ElemSorterIifEEEEEvT_T0_SH_T1_T2_+0x90>
    6582:	49 89 f0             	mov    %rsi,%r8
    6585:	eb 35                	jmp    65bc <_ZSt13__adjust_heapIN9__gnu_cxx17__normal_iteratorIPN4util2io4ElemIifEESt6vectorIS5_SaIS5_EEEElS5_NS0_5__ops15_Iter_comp_iterINS3_10ElemSorterIifEEEEEvT_T0_SH_T1_T2_+0x5c>
    6587:	66 0f 1f 84 00 00 00 	nopw   0x0(%rax,%rax,1)
    658e:	00 00 
    6590:	8b 59 04             	mov    0x4(%rcx),%ebx
    6593:	41 3b 5a 04          	cmp    0x4(%r10),%ebx
    6597:	49 0f 4e ca          	cmovle %r10,%rcx
    659b:	49 0f 4e c1          	cmovle %r9,%rax
    659f:	4c 8b 09             	mov    (%rcx),%r9
    65a2:	4f 8d 04 40          	lea    (%r8,%r8,2),%r8
    65a6:	4e 8d 04 87          	lea    (%rdi,%r8,4),%r8
    65aa:	4d 89 08             	mov    %r9,(%r8)
    65ad:	8b 49 08             	mov    0x8(%rcx),%ecx
    65b0:	41 89 48 08          	mov    %ecx,0x8(%r8)
    65b4:	49 89 c0             	mov    %rax,%r8
    65b7:	49 39 c3             	cmp    %rax,%r11
    65ba:	7e 3c                	jle    65f8 <_ZSt13__adjust_heapIN9__gnu_cxx17__normal_iteratorIPN4util2io4ElemIifEESt6vectorIS5_SaIS5_EEEElS5_NS0_5__ops15_Iter_comp_iterINS3_10ElemSorterIifEEEEEvT_T0_SH_T1_T2_+0x98>
    65bc:	4d 8d 50 01          	lea    0x1(%r8),%r10
    65c0:	4f 8d 0c 12          	lea    (%r10,%r10,1),%r9
    65c4:	49 8d 41 ff          	lea    -0x1(%r9),%rax
    65c8:	4f 8d 14 91          	lea    (%r9,%r10,4),%r10
    65cc:	48 8d 0c 40          	lea    (%rax,%rax,2),%rcx
    65d0:	4e 8d 14 97          	lea    (%rdi,%r10,4),%r10
    65d4:	48 8d 0c 8f          	lea    (%rdi,%rcx,4),%rcx
    65d8:	41 8b 1a             	mov    (%r10),%ebx
    65db:	39 19                	cmp    %ebx,(%rcx)
    65dd:	7f c0                	jg     659f <_ZSt13__adjust_heapIN9__gnu_cxx17__normal_iteratorIPN4util2io4ElemIifEESt6vectorIS5_SaIS5_EEEElS5_NS0_5__ops15_Iter_comp_iterINS3_10ElemSorterIifEEEEEvT_T0_SH_T1_T2_+0x3f>
    65df:	7d af                	jge    6590 <_ZSt13__adjust_heapIN9__gnu_cxx17__normal_iteratorIPN4util2io4ElemIifEESt6vectorIS5_SaIS5_EEEElS5_NS0_5__ops15_Iter_comp_iterINS3_10ElemSorterIifEEEEEvT_T0_SH_T1_T2_+0x30>
    65e1:	4c 89 d1             	mov    %r10,%rcx
    65e4:	4c 89 c8             	mov    %r9,%rax
    65e7:	eb b6                	jmp    659f <_ZSt13__adjust_heapIN9__gnu_cxx17__normal_iteratorIPN4util2io4ElemIifEESt6vectorIS5_SaIS5_EEEElS5_NS0_5__ops15_Iter_comp_iterINS3_10ElemSorterIifEEEEEvT_T0_SH_T1_T2_+0x3f>
    65e9:	0f 1f 80 00 00 00 00 	nopl   0x0(%rax)
    65f0:	48 89 f0             	mov    %rsi,%rax
    65f3:	0f 1f 44 00 00       	nopl   0x0(%rax,%rax,1)
    65f8:	f6 c2 01             	test   $0x1,%dl
    65fb:	75 1a                	jne    6617 <_ZSt13__adjust_heapIN9__gnu_cxx17__normal_iteratorIPN4util2io4ElemIifEESt6vectorIS5_SaIS5_EEEElS5_NS0_5__ops15_Iter_comp_iterINS3_10ElemSorterIifEEEEEvT_T0_SH_T1_T2_+0xb7>
    65fd:	48 83 ea 02          	sub    $0x2,%rdx
    6601:	48 89 d1             	mov    %rdx,%rcx
    6604:	48 c1 e9 3f          	shr    $0x3f,%rcx
    6608:	48 01 ca             	add    %rcx,%rdx
    660b:	48 d1 fa             	sar    %rdx
    660e:	48 39 c2             	cmp    %rax,%rdx
    6611:	0f 84 99 00 00 00    	je     66b0 <_ZSt13__adjust_heapIN9__gnu_cxx17__normal_iteratorIPN4util2io4ElemIifEESt6vectorIS5_SaIS5_EEEElS5_NS0_5__ops15_Iter_comp_iterINS3_10ElemSorterIifEEEEEvT_T0_SH_T1_T2_+0x150>
    6617:	48 8d 14 40          	lea    (%rax,%rax,2),%rdx
    661b:	4c 8d 04 97          	lea    (%rdi,%rdx,4),%r8
    661f:	48 8d 50 ff          	lea    -0x1(%rax),%rdx
    6623:	44 8b 4c 24 f0       	mov    -0x10(%rsp),%r9d
    6628:	44 8b 54 24 f4       	mov    -0xc(%rsp),%r10d
    662d:	48 89 d1             	mov    %rdx,%rcx
    6630:	c5 fa 10 44 24 f8    	vmovss -0x8(%rsp),%xmm0
    6636:	48 c1 e9 3f          	shr    $0x3f,%rcx
    663a:	48 01 d1             	add    %rdx,%rcx
    663d:	48 d1 f9             	sar    %rcx
    6640:	48 39 f0             	cmp    %rsi,%rax
    6643:	7f 0e                	jg     6653 <_ZSt13__adjust_heapIN9__gnu_cxx17__normal_iteratorIPN4util2io4ElemIifEESt6vectorIS5_SaIS5_EEEElS5_NS0_5__ops15_Iter_comp_iterINS3_10ElemSorterIifEEEEEvT_T0_SH_T1_T2_+0xf3>
    6645:	eb 52                	jmp    6699 <_ZSt13__adjust_heapIN9__gnu_cxx17__normal_iteratorIPN4util2io4ElemIifEESt6vectorIS5_SaIS5_EEEElS5_NS0_5__ops15_Iter_comp_iterINS3_10ElemSorterIifEEEEEvT_T0_SH_T1_T2_+0x139>
    6647:	66 0f 1f 84 00 00 00 	nopw   0x0(%rax,%rax,1)
    664e:	00 00 
    6650:	48 89 d1             	mov    %rdx,%rcx
    6653:	48 8d 14 49          	lea    (%rcx,%rcx,2),%rdx
    6657:	4c 8d 04 97          	lea    (%rdi,%rdx,4),%r8
    665b:	45 3b 08             	cmp    (%r8),%r9d
    665e:	7f 08                	jg     6668 <_ZSt13__adjust_heapIN9__gnu_cxx17__normal_iteratorIPN4util2io4ElemIifEESt6vectorIS5_SaIS5_EEEElS5_NS0_5__ops15_Iter_comp_iterINS3_10ElemSorterIifEEEEEvT_T0_SH_T1_T2_+0x108>
    6660:	7c 7e                	jl     66e0 <_ZSt13__adjust_heapIN9__gnu_cxx17__normal_iteratorIPN4util2io4ElemIifEESt6vectorIS5_SaIS5_EEEElS5_NS0_5__ops15_Iter_comp_iterINS3_10ElemSorterIifEEEEEvT_T0_SH_T1_T2_+0x180>
    6662:	45 3b 50 04          	cmp    0x4(%r8),%r10d
    6666:	7e 78                	jle    66e0 <_ZSt13__adjust_heapIN9__gnu_cxx17__normal_iteratorIPN4util2io4ElemIifEESt6vectorIS5_SaIS5_EEEElS5_NS0_5__ops15_Iter_comp_iterINS3_10ElemSorterIifEEEEEvT_T0_SH_T1_T2_+0x180>
    6668:	49 8b 10             	mov    (%r8),%rdx
    666b:	48 8d 04 40          	lea    (%rax,%rax,2),%rax
    666f:	48 8d 04 87          	lea    (%rdi,%rax,4),%rax
    6673:	48 89 10             	mov    %rdx,(%rax)
    6676:	41 8b 50 08          	mov    0x8(%r8),%edx
    667a:	89 50 08             	mov    %edx,0x8(%rax)
    667d:	48 8d 51 ff          	lea    -0x1(%rcx),%rdx
    6681:	48 89 d0             	mov    %rdx,%rax
    6684:	48 c1 e8 3f          	shr    $0x3f,%rax
    6688:	48 01 d0             	add    %rdx,%rax
    668b:	48 d1 f8             	sar    %rax
    668e:	48 89 c2             	mov    %rax,%rdx
    6691:	48 89 c8             	mov    %rcx,%rax
    6694:	48 39 ce             	cmp    %rcx,%rsi
    6697:	7c b7                	jl     6650 <_ZSt13__adjust_heapIN9__gnu_cxx17__normal_iteratorIPN4util2io4ElemIifEESt6vectorIS5_SaIS5_EEEElS5_NS0_5__ops15_Iter_comp_iterINS3_10ElemSorterIifEEEEEvT_T0_SH_T1_T2_+0xf0>
    6699:	45 89 08             	mov    %r9d,(%r8)
    669c:	45 89 50 04          	mov    %r10d,0x4(%r8)
    66a0:	c4 c1 7a 11 40 08    	vmovss %xmm0,0x8(%r8)
    66a6:	5b                   	pop    %rbx
    66a7:	c3                   	retq   
    66a8:	0f 1f 84 00 00 00 00 	nopl   0x0(%rax,%rax,1)
    66af:	00 
    66b0:	48 8d 54 00 01       	lea    0x1(%rax,%rax,1),%rdx
    66b5:	48 8d 04 40          	lea    (%rax,%rax,2),%rax
    66b9:	48 8d 0c 52          	lea    (%rdx,%rdx,2),%rcx
    66bd:	48 8d 04 87          	lea    (%rdi,%rax,4),%rax
    66c1:	4c 8d 04 8f          	lea    (%rdi,%rcx,4),%r8
    66c5:	49 8b 08             	mov    (%r8),%rcx
    66c8:	48 89 08             	mov    %rcx,(%rax)
    66cb:	41 8b 48 08          	mov    0x8(%r8),%ecx
    66cf:	89 48 08             	mov    %ecx,0x8(%rax)
    66d2:	48 89 d0             	mov    %rdx,%rax
    66d5:	e9 45 ff ff ff       	jmpq   661f <_ZSt13__adjust_heapIN9__gnu_cxx17__normal_iteratorIPN4util2io4ElemIifEESt6vectorIS5_SaIS5_EEEElS5_NS0_5__ops15_Iter_comp_iterINS3_10ElemSorterIifEEEEEvT_T0_SH_T1_T2_+0xbf>
    66da:	66 0f 1f 44 00 00    	nopw   0x0(%rax,%rax,1)
    66e0:	48 8d 04 40          	lea    (%rax,%rax,2),%rax
    66e4:	4c 8d 04 87          	lea    (%rdi,%rax,4),%r8
    66e8:	45 89 08             	mov    %r9d,(%r8)
    66eb:	45 89 50 04          	mov    %r10d,0x4(%r8)
    66ef:	c4 c1 7a 11 40 08    	vmovss %xmm0,0x8(%r8)
    66f5:	5b                   	pop    %rbx
    66f6:	c3                   	retq   
    66f7:	66 0f 1f 84 00 00 00 	nopw   0x0(%rax,%rax,1)
    66fe:	00 00 

0000000000006700 <_ZSt16__introsort_loopIN9__gnu_cxx17__normal_iteratorIPN4util2io4ElemIifEESt6vectorIS5_SaIS5_EEEElNS0_5__ops15_Iter_comp_iterINS3_10ElemSorterIifEEEEEvT_SG_T0_T1_>:
    6700:	41 57                	push   %r15
    6702:	48 89 f0             	mov    %rsi,%rax
    6705:	41 56                	push   %r14
    6707:	48 29 f8             	sub    %rdi,%rax
    670a:	41 55                	push   %r13
    670c:	41 54                	push   %r12
    670e:	55                   	push   %rbp
    670f:	53                   	push   %rbx
    6710:	48 83 ec 28          	sub    $0x28,%rsp
    6714:	0f b6 6c 24 60       	movzbl 0x60(%rsp),%ebp
    6719:	48 3d c0 00 00 00    	cmp    $0xc0,%rax
    671f:	0f 8e d7 01 00 00    	jle    68fc <_ZSt16__introsort_loopIN9__gnu_cxx17__normal_iteratorIPN4util2io4ElemIifEESt6vectorIS5_SaIS5_EEEElNS0_5__ops15_Iter_comp_iterINS3_10ElemSorterIifEEEEEvT_SG_T0_T1_+0x1fc>
    6725:	49 89 ff             	mov    %rdi,%r15
    6728:	48 89 d3             	mov    %rdx,%rbx
    672b:	48 85 d2             	test   %rdx,%rdx
    672e:	0f 84 d7 01 00 00    	je     690b <_ZSt16__introsort_loopIN9__gnu_cxx17__normal_iteratorIPN4util2io4ElemIifEESt6vectorIS5_SaIS5_EEEElNS0_5__ops15_Iter_comp_iterINS3_10ElemSorterIifEEEEEvT_SG_T0_T1_+0x20b>
    6734:	49 89 f5             	mov    %rsi,%r13
    6737:	49 89 f6             	mov    %rsi,%r14
    673a:	4c 8d 67 0c          	lea    0xc(%rdi),%r12
    673e:	4d 29 fe             	sub    %r15,%r14
    6741:	48 83 ec 08          	sub    $0x8,%rsp
    6745:	49 8d 4d f4          	lea    -0xc(%r13),%rcx
    6749:	4c 89 ff             	mov    %r15,%rdi
    674c:	4c 89 f0             	mov    %r14,%rax
    674f:	55                   	push   %rbp
    6750:	48 83 eb 01          	sub    $0x1,%rbx
    6754:	4d 89 e6             	mov    %r12,%r14
    6757:	48 be ab aa aa aa aa 	movabs $0xaaaaaaaaaaaaaaab,%rsi
    675e:	aa aa aa 
    6761:	48 c1 f8 02          	sar    $0x2,%rax
    6765:	48 0f af c6          	imul   %rsi,%rax
    6769:	4c 89 e6             	mov    %r12,%rsi
    676c:	48 89 c2             	mov    %rax,%rdx
    676f:	48 c1 ea 3f          	shr    $0x3f,%rdx
    6773:	48 01 d0             	add    %rdx,%rax
    6776:	48 d1 f8             	sar    %rax
    6779:	48 8d 04 40          	lea    (%rax,%rax,2),%rax
    677d:	49 8d 14 87          	lea    (%r15,%rax,4),%rdx
    6781:	e8 1a fc ff ff       	callq  63a0 <_ZSt22__move_median_to_firstIN9__gnu_cxx17__normal_iteratorIPN4util2io4ElemIifEESt6vectorIS5_SaIS5_EEEENS0_5__ops15_Iter_comp_iterINS3_10ElemSorterIifEEEEEvT_SG_SG_SG_T0_>
    6786:	41 8b 17             	mov    (%r15),%edx
    6789:	5e                   	pop    %rsi
    678a:	4c 89 e9             	mov    %r13,%rcx
    678d:	5f                   	pop    %rdi
    678e:	66 90                	xchg   %ax,%ax
    6790:	41 8b 36             	mov    (%r14),%esi
    6793:	4d 89 f1             	mov    %r14,%r9
    6796:	39 d6                	cmp    %edx,%esi
    6798:	7c 55                	jl     67ef <_ZSt16__introsort_loopIN9__gnu_cxx17__normal_iteratorIPN4util2io4ElemIifEESt6vectorIS5_SaIS5_EEEElNS0_5__ops15_Iter_comp_iterINS3_10ElemSorterIifEEEEEvT_SG_T0_T1_+0xef>
    679a:	7f 0a                	jg     67a6 <_ZSt16__introsort_loopIN9__gnu_cxx17__normal_iteratorIPN4util2io4ElemIifEESt6vectorIS5_SaIS5_EEEElNS0_5__ops15_Iter_comp_iterINS3_10ElemSorterIifEEEEEvT_SG_T0_T1_+0xa6>
    679c:	41 8b 47 04          	mov    0x4(%r15),%eax
    67a0:	41 39 46 04          	cmp    %eax,0x4(%r14)
    67a4:	7c 49                	jl     67ef <_ZSt16__introsort_loopIN9__gnu_cxx17__normal_iteratorIPN4util2io4ElemIifEESt6vectorIS5_SaIS5_EEEElNS0_5__ops15_Iter_comp_iterINS3_10ElemSorterIifEEEEEvT_SG_T0_T1_+0xef>
    67a6:	48 8d 41 f4          	lea    -0xc(%rcx),%rax
    67aa:	eb 11                	jmp    67bd <_ZSt16__introsort_loopIN9__gnu_cxx17__normal_iteratorIPN4util2io4ElemIifEESt6vectorIS5_SaIS5_EEEElNS0_5__ops15_Iter_comp_iterINS3_10ElemSorterIifEEEEEvT_SG_T0_T1_+0xbd>
    67ac:	0f 1f 40 00          	nopl   0x0(%rax)
    67b0:	8b 78 04             	mov    0x4(%rax),%edi
    67b3:	41 39 7f 04          	cmp    %edi,0x4(%r15)
    67b7:	7d 0d                	jge    67c6 <_ZSt16__introsort_loopIN9__gnu_cxx17__normal_iteratorIPN4util2io4ElemIifEESt6vectorIS5_SaIS5_EEEElNS0_5__ops15_Iter_comp_iterINS3_10ElemSorterIifEEEEEvT_SG_T0_T1_+0xc6>
    67b9:	48 83 e8 0c          	sub    $0xc,%rax
    67bd:	48 89 c1             	mov    %rax,%rcx
    67c0:	39 10                	cmp    %edx,(%rax)
    67c2:	7f f5                	jg     67b9 <_ZSt16__introsort_loopIN9__gnu_cxx17__normal_iteratorIPN4util2io4ElemIifEESt6vectorIS5_SaIS5_EEEElNS0_5__ops15_Iter_comp_iterINS3_10ElemSorterIifEEEEEvT_SG_T0_T1_+0xb9>
    67c4:	7d ea                	jge    67b0 <_ZSt16__introsort_loopIN9__gnu_cxx17__normal_iteratorIPN4util2io4ElemIifEESt6vectorIS5_SaIS5_EEEElNS0_5__ops15_Iter_comp_iterINS3_10ElemSorterIifEEEEEvT_SG_T0_T1_+0xb0>
    67c6:	49 39 c6             	cmp    %rax,%r14
    67c9:	73 2d                	jae    67f8 <_ZSt16__introsort_loopIN9__gnu_cxx17__normal_iteratorIPN4util2io4ElemIifEESt6vectorIS5_SaIS5_EEEElNS0_5__ops15_Iter_comp_iterINS3_10ElemSorterIifEEEEEvT_SG_T0_T1_+0xf8>
    67cb:	48 8b 38             	mov    (%rax),%rdi
    67ce:	41 8b 56 04          	mov    0x4(%r14),%edx
    67d2:	c4 c1 7a 10 46 08    	vmovss 0x8(%r14),%xmm0
    67d8:	49 89 3e             	mov    %rdi,(%r14)
    67db:	8b 78 08             	mov    0x8(%rax),%edi
    67de:	41 89 7e 08          	mov    %edi,0x8(%r14)
    67e2:	89 30                	mov    %esi,(%rax)
    67e4:	89 50 04             	mov    %edx,0x4(%rax)
    67e7:	c5 fa 11 40 08       	vmovss %xmm0,0x8(%rax)
    67ec:	41 8b 17             	mov    (%r15),%edx
    67ef:	49 83 c6 0c          	add    $0xc,%r14
    67f3:	eb 9b                	jmp    6790 <_ZSt16__introsort_loopIN9__gnu_cxx17__normal_iteratorIPN4util2io4ElemIifEESt6vectorIS5_SaIS5_EEEElNS0_5__ops15_Iter_comp_iterINS3_10ElemSorterIifEEEEEvT_SG_T0_T1_+0x90>
    67f5:	0f 1f 00             	nopl   (%rax)
    67f8:	4c 89 4c 24 08       	mov    %r9,0x8(%rsp)
    67fd:	48 83 ec 08          	sub    $0x8,%rsp
    6801:	48 89 da             	mov    %rbx,%rdx
    6804:	4c 89 ee             	mov    %r13,%rsi
    6807:	55                   	push   %rbp
    6808:	4c 89 f7             	mov    %r14,%rdi
    680b:	e8 f0 fe ff ff       	callq  6700 <_ZSt16__introsort_loopIN9__gnu_cxx17__normal_iteratorIPN4util2io4ElemIifEESt6vectorIS5_SaIS5_EEEElNS0_5__ops15_Iter_comp_iterINS3_10ElemSorterIifEEEEEvT_SG_T0_T1_>
    6810:	4c 89 f0             	mov    %r14,%rax
    6813:	5a                   	pop    %rdx
    6814:	59                   	pop    %rcx
    6815:	4c 29 f8             	sub    %r15,%rax
    6818:	4c 8b 4c 24 08       	mov    0x8(%rsp),%r9
    681d:	48 3d c0 00 00 00    	cmp    $0xc0,%rax
    6823:	0f 8e d3 00 00 00    	jle    68fc <_ZSt16__introsort_loopIN9__gnu_cxx17__normal_iteratorIPN4util2io4ElemIifEESt6vectorIS5_SaIS5_EEEElNS0_5__ops15_Iter_comp_iterINS3_10ElemSorterIifEEEEEvT_SG_T0_T1_+0x1fc>
    6829:	4d 89 f5             	mov    %r14,%r13
    682c:	48 85 db             	test   %rbx,%rbx
    682f:	0f 85 09 ff ff ff    	jne    673e <_ZSt16__introsort_loopIN9__gnu_cxx17__normal_iteratorIPN4util2io4ElemIifEESt6vectorIS5_SaIS5_EEEElNS0_5__ops15_Iter_comp_iterINS3_10ElemSorterIifEEEEEvT_SG_T0_T1_+0x3e>
    6835:	48 bb ab aa aa aa aa 	movabs $0xaaaaaaaaaaaaaaab,%rbx
    683c:	aa aa aa 
    683f:	48 c1 f8 02          	sar    $0x2,%rax
    6843:	48 0f af d8          	imul   %rax,%rbx
    6847:	4c 8d 63 fe          	lea    -0x2(%rbx),%r12
    684b:	49 d1 fc             	sar    %r12
    684e:	4b 8d 04 64          	lea    (%r12,%r12,2),%rax
    6852:	4d 8d 2c 87          	lea    (%r15,%rax,4),%r13
    6856:	eb 04                	jmp    685c <_ZSt16__introsort_loopIN9__gnu_cxx17__normal_iteratorIPN4util2io4ElemIifEESt6vectorIS5_SaIS5_EEEElNS0_5__ops15_Iter_comp_iterINS3_10ElemSorterIifEEEEEvT_SG_T0_T1_+0x15c>
    6858:	49 83 ec 01          	sub    $0x1,%r12
    685c:	49 8b 4d 00          	mov    0x0(%r13),%rcx
    6860:	41 8b 45 08          	mov    0x8(%r13),%eax
    6864:	4c 89 4c 24 08       	mov    %r9,0x8(%rsp)
    6869:	48 89 da             	mov    %rbx,%rdx
    686c:	48 83 ec 08          	sub    $0x8,%rsp
    6870:	4c 89 e6             	mov    %r12,%rsi
    6873:	4c 89 ff             	mov    %r15,%rdi
    6876:	49 83 ed 0c          	sub    $0xc,%r13
    687a:	48 89 4c 24 1c       	mov    %rcx,0x1c(%rsp)
    687f:	89 44 24 24          	mov    %eax,0x24(%rsp)
    6883:	55                   	push   %rbp
    6884:	c5 fa 10 44 24 2c    	vmovss 0x2c(%rsp),%xmm0
    688a:	e8 d1 fc ff ff       	callq  6560 <_ZSt13__adjust_heapIN9__gnu_cxx17__normal_iteratorIPN4util2io4ElemIifEESt6vectorIS5_SaIS5_EEEElS5_NS0_5__ops15_Iter_comp_iterINS3_10ElemSorterIifEEEEEvT_T0_SH_T1_T2_>
    688f:	4d 85 e4             	test   %r12,%r12
    6892:	41 5a                	pop    %r10
    6894:	41 5b                	pop    %r11
    6896:	4c 8b 4c 24 08       	mov    0x8(%rsp),%r9
    689b:	75 bb                	jne    6858 <_ZSt16__introsort_loopIN9__gnu_cxx17__normal_iteratorIPN4util2io4ElemIifEESt6vectorIS5_SaIS5_EEEElNS0_5__ops15_Iter_comp_iterINS3_10ElemSorterIifEEEEEvT_SG_T0_T1_+0x158>
    689d:	49 bc ab aa aa aa aa 	movabs $0xaaaaaaaaaaaaaaab,%r12
    68a4:	aa aa aa 
    68a7:	49 8d 59 f4          	lea    -0xc(%r9),%rbx
    68ab:	8b 43 08             	mov    0x8(%rbx),%eax
    68ae:	49 89 dd             	mov    %rbx,%r13
    68b1:	48 8b 0b             	mov    (%rbx),%rcx
    68b4:	48 83 ec 08          	sub    $0x8,%rsp
    68b8:	4d 29 fd             	sub    %r15,%r13
    68bb:	31 f6                	xor    %esi,%esi
    68bd:	4c 89 ff             	mov    %r15,%rdi
    68c0:	48 83 eb 0c          	sub    $0xc,%rbx
    68c4:	89 44 24 24          	mov    %eax,0x24(%rsp)
    68c8:	49 8b 07             	mov    (%r15),%rax
    68cb:	4c 89 ea             	mov    %r13,%rdx
    68ce:	48 89 4c 24 1c       	mov    %rcx,0x1c(%rsp)
    68d3:	48 c1 fa 02          	sar    $0x2,%rdx
    68d7:	48 89 43 0c          	mov    %rax,0xc(%rbx)
    68db:	41 8b 47 08          	mov    0x8(%r15),%eax
    68df:	49 0f af d4          	imul   %r12,%rdx
    68e3:	89 43 14             	mov    %eax,0x14(%rbx)
    68e6:	55                   	push   %rbp
    68e7:	c5 fa 10 44 24 2c    	vmovss 0x2c(%rsp),%xmm0
    68ed:	e8 6e fc ff ff       	callq  6560 <_ZSt13__adjust_heapIN9__gnu_cxx17__normal_iteratorIPN4util2io4ElemIifEESt6vectorIS5_SaIS5_EEEElS5_NS0_5__ops15_Iter_comp_iterINS3_10ElemSorterIifEEEEEvT_T0_SH_T1_T2_>
    68f2:	41 58                	pop    %r8
    68f4:	41 59                	pop    %r9
    68f6:	49 83 fd 0c          	cmp    $0xc,%r13
    68fa:	7f af                	jg     68ab <_ZSt16__introsort_loopIN9__gnu_cxx17__normal_iteratorIPN4util2io4ElemIifEESt6vectorIS5_SaIS5_EEEElNS0_5__ops15_Iter_comp_iterINS3_10ElemSorterIifEEEEEvT_SG_T0_T1_+0x1ab>
    68fc:	48 83 c4 28          	add    $0x28,%rsp
    6900:	5b                   	pop    %rbx
    6901:	5d                   	pop    %rbp
    6902:	41 5c                	pop    %r12
    6904:	41 5d                	pop    %r13
    6906:	41 5e                	pop    %r14
    6908:	41 5f                	pop    %r15
    690a:	c3                   	retq   
    690b:	49 89 f1             	mov    %rsi,%r9
    690e:	e9 22 ff ff ff       	jmpq   6835 <_ZSt16__introsort_loopIN9__gnu_cxx17__normal_iteratorIPN4util2io4ElemIifEESt6vectorIS5_SaIS5_EEEElNS0_5__ops15_Iter_comp_iterINS3_10ElemSorterIifEEEEEvT_SG_T0_T1_+0x135>
    6913:	66 2e 0f 1f 84 00 00 	nopw   %cs:0x0(%rax,%rax,1)
    691a:	00 00 00 
    691d:	0f 1f 00             	nopl   (%rax)

0000000000006920 <_ZN4util2io3MMFIifE15DoLoadMmfMatrixEv>:
    6920:	41 57                	push   %r15
    6922:	41 56                	push   %r14
    6924:	41 55                	push   %r13
    6926:	41 54                	push   %r12
    6928:	4c 8d a7 20 02 00 00 	lea    0x220(%rdi),%r12
    692f:	55                   	push   %rbp
    6930:	53                   	push   %rbx
    6931:	48 89 fb             	mov    %rdi,%rbx
    6934:	48 83 ec 38          	sub    $0x38,%rsp
    6938:	8b 57 08             	mov    0x8(%rdi),%edx
    693b:	64 48 8b 04 25 28 00 	mov    %fs:0x28,%rax
    6942:	00 00 
    6944:	48 89 44 24 28       	mov    %rax,0x28(%rsp)
    6949:	31 c0                	xor    %eax,%eax
    694b:	80 bf 18 02 00 00 00 	cmpb   $0x0,0x218(%rdi)
    6952:	0f 84 18 02 00 00    	je     6b70 <_ZN4util2io3MMFIifE15DoLoadMmfMatrixEv+0x250>
    6958:	48 b8 55 55 55 55 55 	movabs $0x1555555555555555,%rax
    695f:	55 55 15 
    6962:	8d 0c 12             	lea    (%rdx,%rdx,1),%ecx
    6965:	48 63 c9             	movslq %ecx,%rcx
    6968:	48 39 c1             	cmp    %rax,%rcx
    696b:	0f 87 4a 04 00 00    	ja     6dbb <_ZN4util2io3MMFIifE15DoLoadMmfMatrixEv+0x49b>
    6971:	48 8b af 20 02 00 00 	mov    0x220(%rdi),%rbp
    6978:	48 8b 87 30 02 00 00 	mov    0x230(%rdi),%rax
    697f:	48 be ab aa aa aa aa 	movabs $0xaaaaaaaaaaaaaaab,%rsi
    6986:	aa aa aa 
    6989:	48 29 e8             	sub    %rbp,%rax
    698c:	48 c1 f8 02          	sar    $0x2,%rax
    6990:	48 0f af c6          	imul   %rsi,%rax
    6994:	48 39 c1             	cmp    %rax,%rcx
    6997:	0f 87 5b 03 00 00    	ja     6cf8 <_ZN4util2io3MMFIifE15DoLoadMmfMatrixEv+0x3d8>
    699d:	85 d2                	test   %edx,%edx
    699f:	0f 8e d2 00 00 00    	jle    6a77 <_ZN4util2io3MMFIifE15DoLoadMmfMatrixEv+0x157>
    69a5:	48 8d 6c 24 1c       	lea    0x1c(%rsp),%rbp
    69aa:	45 31 f6             	xor    %r14d,%r14d
    69ad:	4c 8d 6d 08          	lea    0x8(%rbp),%r13
    69b1:	eb 75                	jmp    6a28 <_ZN4util2io3MMFIifE15DoLoadMmfMatrixEv+0x108>
    69b3:	0f 1f 44 00 00       	nopl   0x0(%rax,%rax,1)
    69b8:	48 85 f6             	test   %rsi,%rsi
    69bb:	74 0f                	je     69cc <_ZN4util2io3MMFIifE15DoLoadMmfMatrixEv+0xac>
    69bd:	48 8b 44 24 1c       	mov    0x1c(%rsp),%rax
    69c2:	48 89 06             	mov    %rax,(%rsi)
    69c5:	8b 44 24 24          	mov    0x24(%rsp),%eax
    69c9:	89 46 08             	mov    %eax,0x8(%rsi)
    69cc:	48 83 c6 0c          	add    $0xc,%rsi
    69d0:	48 89 b3 28 02 00 00 	mov    %rsi,0x228(%rbx)
    69d7:	8b 44 24 1c          	mov    0x1c(%rsp),%eax
    69db:	8b 54 24 20          	mov    0x20(%rsp),%edx
    69df:	39 d0                	cmp    %edx,%eax
    69e1:	74 3b                	je     6a1e <_ZN4util2io3MMFIifE15DoLoadMmfMatrixEv+0xfe>
    69e3:	89 54 24 1c          	mov    %edx,0x1c(%rsp)
    69e7:	48 8b b3 28 02 00 00 	mov    0x228(%rbx),%rsi
    69ee:	89 44 24 20          	mov    %eax,0x20(%rsp)
    69f2:	48 3b b3 30 02 00 00 	cmp    0x230(%rbx),%rsi
    69f9:	0f 84 51 02 00 00    	je     6c50 <_ZN4util2io3MMFIifE15DoLoadMmfMatrixEv+0x330>
    69ff:	48 85 f6             	test   %rsi,%rsi
    6a02:	74 0f                	je     6a13 <_ZN4util2io3MMFIifE15DoLoadMmfMatrixEv+0xf3>
    6a04:	48 8b 44 24 1c       	mov    0x1c(%rsp),%rax
    6a09:	48 89 06             	mov    %rax,(%rsi)
    6a0c:	8b 44 24 24          	mov    0x24(%rsp),%eax
    6a10:	89 46 08             	mov    %eax,0x8(%rsi)
    6a13:	48 83 c6 0c          	add    $0xc,%rsi
    6a17:	48 89 b3 28 02 00 00 	mov    %rsi,0x228(%rbx)
    6a1e:	41 83 c6 01          	add    $0x1,%r14d
    6a22:	44 39 73 08          	cmp    %r14d,0x8(%rbx)
    6a26:	7e 48                	jle    6a70 <_ZN4util2io3MMFIifE15DoLoadMmfMatrixEv+0x150>
    6a28:	48 8d 55 04          	lea    0x4(%rbp),%rdx
    6a2c:	4c 89 e9             	mov    %r13,%rcx
    6a2f:	48 89 ee             	mov    %rbp,%rsi
    6a32:	48 89 df             	mov    %rbx,%rdi
    6a35:	e8 c6 ed ff ff       	callq  5800 <_ZN4util2io3MMFIifE7GetNextERiS3_Rf>
    6a3a:	84 c0                	test   %al,%al
    6a3c:	0f 84 57 03 00 00    	je     6d99 <_ZN4util2io3MMFIifE15DoLoadMmfMatrixEv+0x479>
    6a42:	48 8b b3 28 02 00 00 	mov    0x228(%rbx),%rsi
    6a49:	48 3b b3 30 02 00 00 	cmp    0x230(%rbx),%rsi
    6a50:	0f 85 62 ff ff ff    	jne    69b8 <_ZN4util2io3MMFIifE15DoLoadMmfMatrixEv+0x98>
    6a56:	48 89 ea             	mov    %rbp,%rdx
    6a59:	4c 89 e7             	mov    %r12,%rdi
    6a5c:	e8 ff f4 ff ff       	callq  5f60 <_ZNSt6vectorIN4util2io4ElemIifEESaIS3_EE17_M_realloc_insertIJRKS3_EEEvN9__gnu_cxx17__normal_iteratorIPS3_S5_EEDpOT_>
    6a61:	e9 71 ff ff ff       	jmpq   69d7 <_ZN4util2io3MMFIifE15DoLoadMmfMatrixEv+0xb7>
    6a66:	66 2e 0f 1f 84 00 00 	nopw   %cs:0x0(%rax,%rax,1)
    6a6d:	00 00 00 
    6a70:	48 8b ab 20 02 00 00 	mov    0x220(%rbx),%rbp
    6a77:	4c 8b a3 28 02 00 00 	mov    0x228(%rbx),%r12
    6a7e:	49 39 ec             	cmp    %rbp,%r12
    6a81:	0f 84 c2 00 00 00    	je     6b49 <_ZN4util2io3MMFIifE15DoLoadMmfMatrixEv+0x229>
    6a87:	4c 89 e3             	mov    %r12,%rbx
    6a8a:	48 83 ec 08          	sub    $0x8,%rsp
    6a8e:	48 89 ef             	mov    %rbp,%rdi
    6a91:	4c 89 e6             	mov    %r12,%rsi
    6a94:	48 b8 ab aa aa aa aa 	movabs $0xaaaaaaaaaaaaaaab,%rax
    6a9b:	aa aa aa 
    6a9e:	48 29 eb             	sub    %rbp,%rbx
    6aa1:	6a 00                	pushq  $0x0
    6aa3:	48 89 da             	mov    %rbx,%rdx
    6aa6:	48 c1 fa 02          	sar    $0x2,%rdx
    6aaa:	48 0f af d0          	imul   %rax,%rdx
    6aae:	48 0f bd d2          	bsr    %rdx,%rdx
    6ab2:	48 01 d2             	add    %rdx,%rdx
    6ab5:	e8 46 fc ff ff       	callq  6700 <_ZSt16__introsort_loopIN9__gnu_cxx17__normal_iteratorIPN4util2io4ElemIifEESt6vectorIS5_SaIS5_EEEElNS0_5__ops15_Iter_comp_iterINS3_10ElemSorterIifEEEEEvT_SG_T0_T1_>
    6aba:	5f                   	pop    %rdi
    6abb:	41 58                	pop    %r8
    6abd:	48 81 fb c0 00 00 00 	cmp    $0xc0,%rbx
    6ac4:	0f 8e 6e 01 00 00    	jle    6c38 <_ZN4util2io3MMFIifE15DoLoadMmfMatrixEv+0x318>
    6aca:	48 83 ec 08          	sub    $0x8,%rsp
    6ace:	48 8d 9d c0 00 00 00 	lea    0xc0(%rbp),%rbx
    6ad5:	48 89 ef             	mov    %rbp,%rdi
    6ad8:	6a 00                	pushq  $0x0
    6ada:	48 89 de             	mov    %rbx,%rsi
    6add:	e8 ee f6 ff ff       	callq  61d0 <_ZSt16__insertion_sortIN9__gnu_cxx17__normal_iteratorIPN4util2io4ElemIifEESt6vectorIS5_SaIS5_EEEENS0_5__ops15_Iter_comp_iterINS3_10ElemSorterIifEEEEEvT_SG_T0_>
    6ae2:	59                   	pop    %rcx
    6ae3:	5e                   	pop    %rsi
    6ae4:	49 39 dc             	cmp    %rbx,%r12
    6ae7:	74 60                	je     6b49 <_ZN4util2io3MMFIifE15DoLoadMmfMatrixEv+0x229>
    6ae9:	48 8d b5 cc 00 00 00 	lea    0xcc(%rbp),%rsi
    6af0:	49 89 d8             	mov    %rbx,%r8
    6af3:	49 29 f4             	sub    %rsi,%r12
    6af6:	49 83 e4 fc          	and    $0xfffffffffffffffc,%r12
    6afa:	4c 01 e6             	add    %r12,%rsi
    6afd:	0f 1f 00             	nopl   (%rax)
    6b00:	41 8b 08             	mov    (%r8),%ecx
    6b03:	41 8b 78 04          	mov    0x4(%r8),%edi
    6b07:	4c 89 c0             	mov    %r8,%rax
    6b0a:	c4 c1 7a 10 40 08    	vmovss 0x8(%r8),%xmm0
    6b10:	eb 1d                	jmp    6b2f <_ZN4util2io3MMFIifE15DoLoadMmfMatrixEv+0x20f>
    6b12:	66 0f 1f 44 00 00    	nopw   0x0(%rax,%rax,1)
    6b18:	3b 78 f8             	cmp    -0x8(%rax),%edi
    6b1b:	7d 19                	jge    6b36 <_ZN4util2io3MMFIifE15DoLoadMmfMatrixEv+0x216>
    6b1d:	48 8b 50 f4          	mov    -0xc(%rax),%rdx
    6b21:	48 83 e8 0c          	sub    $0xc,%rax
    6b25:	48 89 50 0c          	mov    %rdx,0xc(%rax)
    6b29:	8b 50 08             	mov    0x8(%rax),%edx
    6b2c:	89 50 14             	mov    %edx,0x14(%rax)
    6b2f:	3b 48 f4             	cmp    -0xc(%rax),%ecx
    6b32:	7c e9                	jl     6b1d <_ZN4util2io3MMFIifE15DoLoadMmfMatrixEv+0x1fd>
    6b34:	7e e2                	jle    6b18 <_ZN4util2io3MMFIifE15DoLoadMmfMatrixEv+0x1f8>
    6b36:	49 83 c0 0c          	add    $0xc,%r8
    6b3a:	89 08                	mov    %ecx,(%rax)
    6b3c:	89 78 04             	mov    %edi,0x4(%rax)
    6b3f:	c5 fa 11 40 08       	vmovss %xmm0,0x8(%rax)
    6b44:	49 39 f0             	cmp    %rsi,%r8
    6b47:	75 b7                	jne    6b00 <_ZN4util2io3MMFIifE15DoLoadMmfMatrixEv+0x1e0>
    6b49:	48 8b 44 24 28       	mov    0x28(%rsp),%rax
    6b4e:	64 48 33 04 25 28 00 	xor    %fs:0x28,%rax
    6b55:	00 00 
    6b57:	0f 85 6a 02 00 00    	jne    6dc7 <_ZN4util2io3MMFIifE15DoLoadMmfMatrixEv+0x4a7>
    6b5d:	48 83 c4 38          	add    $0x38,%rsp
    6b61:	5b                   	pop    %rbx
    6b62:	5d                   	pop    %rbp
    6b63:	41 5c                	pop    %r12
    6b65:	41 5d                	pop    %r13
    6b67:	41 5e                	pop    %r14
    6b69:	41 5f                	pop    %r15
    6b6b:	c3                   	retq   
    6b6c:	0f 1f 40 00          	nopl   0x0(%rax)
    6b70:	48 b8 55 55 55 55 55 	movabs $0x1555555555555555,%rax
    6b77:	55 55 15 
    6b7a:	48 63 ca             	movslq %edx,%rcx
    6b7d:	48 39 c1             	cmp    %rax,%rcx
    6b80:	0f 87 35 02 00 00    	ja     6dbb <_ZN4util2io3MMFIifE15DoLoadMmfMatrixEv+0x49b>
    6b86:	48 8b af 20 02 00 00 	mov    0x220(%rdi),%rbp
    6b8d:	48 8b 87 30 02 00 00 	mov    0x230(%rdi),%rax
    6b94:	48 be ab aa aa aa aa 	movabs $0xaaaaaaaaaaaaaaab,%rsi
    6b9b:	aa aa aa 
    6b9e:	48 29 e8             	sub    %rbp,%rax
    6ba1:	48 c1 f8 02          	sar    $0x2,%rax
    6ba5:	48 0f af c6          	imul   %rsi,%rax
    6ba9:	48 39 c1             	cmp    %rax,%rcx
    6bac:	0f 87 ae 00 00 00    	ja     6c60 <_ZN4util2io3MMFIifE15DoLoadMmfMatrixEv+0x340>
    6bb2:	85 d2                	test   %edx,%edx
    6bb4:	0f 8e bd fe ff ff    	jle    6a77 <_ZN4util2io3MMFIifE15DoLoadMmfMatrixEv+0x157>
    6bba:	48 8d 6c 24 1c       	lea    0x1c(%rsp),%rbp
    6bbf:	45 31 f6             	xor    %r14d,%r14d
    6bc2:	4c 8d 6d 08          	lea    0x8(%rbp),%r13
    6bc6:	eb 35                	jmp    6bfd <_ZN4util2io3MMFIifE15DoLoadMmfMatrixEv+0x2dd>
    6bc8:	0f 1f 84 00 00 00 00 	nopl   0x0(%rax,%rax,1)
    6bcf:	00 
    6bd0:	48 85 f6             	test   %rsi,%rsi
    6bd3:	74 0f                	je     6be4 <_ZN4util2io3MMFIifE15DoLoadMmfMatrixEv+0x2c4>
    6bd5:	48 8b 44 24 1c       	mov    0x1c(%rsp),%rax
    6bda:	48 89 06             	mov    %rax,(%rsi)
    6bdd:	8b 44 24 24          	mov    0x24(%rsp),%eax
    6be1:	89 46 08             	mov    %eax,0x8(%rsi)
    6be4:	48 83 c6 0c          	add    $0xc,%rsi
    6be8:	48 89 b3 28 02 00 00 	mov    %rsi,0x228(%rbx)
    6bef:	41 83 c6 01          	add    $0x1,%r14d
    6bf3:	44 39 73 08          	cmp    %r14d,0x8(%rbx)
    6bf7:	0f 8e 73 fe ff ff    	jle    6a70 <_ZN4util2io3MMFIifE15DoLoadMmfMatrixEv+0x150>
    6bfd:	48 8d 55 04          	lea    0x4(%rbp),%rdx
    6c01:	4c 89 e9             	mov    %r13,%rcx
    6c04:	48 89 ee             	mov    %rbp,%rsi
    6c07:	48 89 df             	mov    %rbx,%rdi
    6c0a:	e8 f1 eb ff ff       	callq  5800 <_ZN4util2io3MMFIifE7GetNextERiS3_Rf>
    6c0f:	84 c0                	test   %al,%al
    6c11:	0f 84 82 01 00 00    	je     6d99 <_ZN4util2io3MMFIifE15DoLoadMmfMatrixEv+0x479>
    6c17:	48 8b b3 28 02 00 00 	mov    0x228(%rbx),%rsi
    6c1e:	48 3b b3 30 02 00 00 	cmp    0x230(%rbx),%rsi
    6c25:	75 a9                	jne    6bd0 <_ZN4util2io3MMFIifE15DoLoadMmfMatrixEv+0x2b0>
    6c27:	48 89 ea             	mov    %rbp,%rdx
    6c2a:	4c 89 e7             	mov    %r12,%rdi
    6c2d:	e8 2e f3 ff ff       	callq  5f60 <_ZNSt6vectorIN4util2io4ElemIifEESaIS3_EE17_M_realloc_insertIJRKS3_EEEvN9__gnu_cxx17__normal_iteratorIPS3_S5_EEDpOT_>
    6c32:	eb bb                	jmp    6bef <_ZN4util2io3MMFIifE15DoLoadMmfMatrixEv+0x2cf>
    6c34:	0f 1f 40 00          	nopl   0x0(%rax)
    6c38:	48 83 ec 08          	sub    $0x8,%rsp
    6c3c:	4c 89 e6             	mov    %r12,%rsi
    6c3f:	48 89 ef             	mov    %rbp,%rdi
    6c42:	6a 00                	pushq  $0x0
    6c44:	e8 87 f5 ff ff       	callq  61d0 <_ZSt16__insertion_sortIN9__gnu_cxx17__normal_iteratorIPN4util2io4ElemIifEESt6vectorIS5_SaIS5_EEEENS0_5__ops15_Iter_comp_iterINS3_10ElemSorterIifEEEEEvT_SG_T0_>
    6c49:	58                   	pop    %rax
    6c4a:	5a                   	pop    %rdx
    6c4b:	e9 f9 fe ff ff       	jmpq   6b49 <_ZN4util2io3MMFIifE15DoLoadMmfMatrixEv+0x229>
    6c50:	48 89 ea             	mov    %rbp,%rdx
    6c53:	4c 89 e7             	mov    %r12,%rdi
    6c56:	e8 05 f3 ff ff       	callq  5f60 <_ZNSt6vectorIN4util2io4ElemIifEESaIS3_EE17_M_realloc_insertIJRKS3_EEEvN9__gnu_cxx17__normal_iteratorIPS3_S5_EEDpOT_>
    6c5b:	e9 be fd ff ff       	jmpq   6a1e <_ZN4util2io3MMFIifE15DoLoadMmfMatrixEv+0xfe>
    6c60:	48 8b 97 28 02 00 00 	mov    0x228(%rdi),%rdx
    6c67:	4c 8d 2c 49          	lea    (%rcx,%rcx,2),%r13
    6c6b:	49 c1 e5 02          	shl    $0x2,%r13
    6c6f:	49 89 d6             	mov    %rdx,%r14
    6c72:	49 29 ee             	sub    %rbp,%r14
    6c75:	48 85 c9             	test   %rcx,%rcx
    6c78:	0f 84 08 01 00 00    	je     6d86 <_ZN4util2io3MMFIifE15DoLoadMmfMatrixEv+0x466>
    6c7e:	4c 89 ef             	mov    %r13,%rdi
    6c81:	48 89 54 24 08       	mov    %rdx,0x8(%rsp)
    6c86:	e8 55 c1 ff ff       	callq  2de0 <_Znwm@plt>
    6c8b:	48 8b 8b 20 02 00 00 	mov    0x220(%rbx),%rcx
    6c92:	48 8b 54 24 08       	mov    0x8(%rsp),%rdx
    6c97:	49 89 c7             	mov    %rax,%r15
    6c9a:	48 39 d5             	cmp    %rdx,%rbp
    6c9d:	74 18                	je     6cb7 <_ZN4util2io3MMFIifE15DoLoadMmfMatrixEv+0x397>
    6c9f:	4c 89 f2             	mov    %r14,%rdx
    6ca2:	48 89 ee             	mov    %rbp,%rsi
    6ca5:	4c 89 ff             	mov    %r15,%rdi
    6ca8:	48 89 4c 24 08       	mov    %rcx,0x8(%rsp)
    6cad:	e8 ae c2 ff ff       	callq  2f60 <memmove@plt>
    6cb2:	48 8b 4c 24 08       	mov    0x8(%rsp),%rcx
    6cb7:	48 85 c9             	test   %rcx,%rcx
    6cba:	74 08                	je     6cc4 <_ZN4util2io3MMFIifE15DoLoadMmfMatrixEv+0x3a4>
    6cbc:	48 89 cf             	mov    %rcx,%rdi
    6cbf:	e8 fc c0 ff ff       	callq  2dc0 <_ZdlPv@plt>
    6cc4:	8b 53 08             	mov    0x8(%rbx),%edx
    6cc7:	4d 01 fe             	add    %r15,%r14
    6cca:	4d 01 fd             	add    %r15,%r13
    6ccd:	4c 89 bb 20 02 00 00 	mov    %r15,0x220(%rbx)
    6cd4:	4c 89 b3 28 02 00 00 	mov    %r14,0x228(%rbx)
    6cdb:	4c 89 fd             	mov    %r15,%rbp
    6cde:	4c 89 ab 30 02 00 00 	mov    %r13,0x230(%rbx)
    6ce5:	85 d2                	test   %edx,%edx
    6ce7:	0f 8f cd fe ff ff    	jg     6bba <_ZN4util2io3MMFIifE15DoLoadMmfMatrixEv+0x29a>
    6ced:	e9 85 fd ff ff       	jmpq   6a77 <_ZN4util2io3MMFIifE15DoLoadMmfMatrixEv+0x157>
    6cf2:	66 0f 1f 44 00 00    	nopw   0x0(%rax,%rax,1)
    6cf8:	48 8b 97 28 02 00 00 	mov    0x228(%rdi),%rdx
    6cff:	4c 8d 2c 49          	lea    (%rcx,%rcx,2),%r13
    6d03:	49 c1 e5 02          	shl    $0x2,%r13
    6d07:	49 89 d6             	mov    %rdx,%r14
    6d0a:	49 29 ee             	sub    %rbp,%r14
    6d0d:	48 85 c9             	test   %rcx,%rcx
    6d10:	74 7f                	je     6d91 <_ZN4util2io3MMFIifE15DoLoadMmfMatrixEv+0x471>
    6d12:	4c 89 ef             	mov    %r13,%rdi
    6d15:	48 89 54 24 08       	mov    %rdx,0x8(%rsp)
    6d1a:	e8 c1 c0 ff ff       	callq  2de0 <_Znwm@plt>
    6d1f:	48 8b 8b 20 02 00 00 	mov    0x220(%rbx),%rcx
    6d26:	48 8b 54 24 08       	mov    0x8(%rsp),%rdx
    6d2b:	49 89 c7             	mov    %rax,%r15
    6d2e:	48 39 d5             	cmp    %rdx,%rbp
    6d31:	74 18                	je     6d4b <_ZN4util2io3MMFIifE15DoLoadMmfMatrixEv+0x42b>
    6d33:	4c 89 f2             	mov    %r14,%rdx
    6d36:	48 89 ee             	mov    %rbp,%rsi
    6d39:	4c 89 ff             	mov    %r15,%rdi
    6d3c:	48 89 4c 24 08       	mov    %rcx,0x8(%rsp)
    6d41:	e8 1a c2 ff ff       	callq  2f60 <memmove@plt>
    6d46:	48 8b 4c 24 08       	mov    0x8(%rsp),%rcx
    6d4b:	48 85 c9             	test   %rcx,%rcx
    6d4e:	74 08                	je     6d58 <_ZN4util2io3MMFIifE15DoLoadMmfMatrixEv+0x438>
    6d50:	48 89 cf             	mov    %rcx,%rdi
    6d53:	e8 68 c0 ff ff       	callq  2dc0 <_ZdlPv@plt>
    6d58:	8b 53 08             	mov    0x8(%rbx),%edx
    6d5b:	4d 01 fe             	add    %r15,%r14
    6d5e:	4d 01 fd             	add    %r15,%r13
    6d61:	4c 89 bb 20 02 00 00 	mov    %r15,0x220(%rbx)
    6d68:	4c 89 b3 28 02 00 00 	mov    %r14,0x228(%rbx)
    6d6f:	4c 89 fd             	mov    %r15,%rbp
    6d72:	4c 89 ab 30 02 00 00 	mov    %r13,0x230(%rbx)
    6d79:	85 d2                	test   %edx,%edx
    6d7b:	0f 8f 24 fc ff ff    	jg     69a5 <_ZN4util2io3MMFIifE15DoLoadMmfMatrixEv+0x85>
    6d81:	e9 f1 fc ff ff       	jmpq   6a77 <_ZN4util2io3MMFIifE15DoLoadMmfMatrixEv+0x157>
    6d86:	48 89 e9             	mov    %rbp,%rcx
    6d89:	45 31 ff             	xor    %r15d,%r15d
    6d8c:	e9 09 ff ff ff       	jmpq   6c9a <_ZN4util2io3MMFIifE15DoLoadMmfMatrixEv+0x37a>
    6d91:	48 89 e9             	mov    %rbp,%rcx
    6d94:	45 31 ff             	xor    %r15d,%r15d
    6d97:	eb 95                	jmp    6d2e <_ZN4util2io3MMFIifE15DoLoadMmfMatrixEv+0x40e>
    6d99:	48 8d 3d 80 a2 20 00 	lea    0x20a280(%rip),%rdi        # 211020 <_ZSt4cout@@GLIBCXX_3.4>
    6da0:	ba 27 00 00 00       	mov    $0x27,%edx
    6da5:	48 8d 35 44 5b 00 00 	lea    0x5b44(%rip),%rsi        # c8f0 <_IO_stdin_used+0x230>
    6dac:	e8 6f c0 ff ff       	callq  2e20 <_ZSt16__ostream_insertIcSt11char_traitsIcEERSt13basic_ostreamIT_T0_ES6_PKS3_l@plt>
    6db1:	bf 01 00 00 00       	mov    $0x1,%edi
    6db6:	e8 a5 c0 ff ff       	callq  2e60 <exit@plt>
    6dbb:	48 8d 3d 1e 5b 00 00 	lea    0x5b1e(%rip),%rdi        # c8e0 <_IO_stdin_used+0x220>
    6dc2:	e8 09 bf ff ff       	callq  2cd0 <_ZSt20__throw_length_errorPKc@plt>
    6dc7:	e8 34 c0 ff ff       	callq  2e00 <__stack_chk_fail@plt>
    6dcc:	0f 1f 40 00          	nopl   0x0(%rax)

0000000000006dd0 <_ZN4util2io3MMFIifEC1ERKNSt7__cxx1112basic_stringIcSt11char_traitsIcESaIcEEE>:
    6dd0:	55                   	push   %rbp
    6dd1:	48 89 e5             	mov    %rsp,%rbp
    6dd4:	41 57                	push   %r15
    6dd6:	4c 8d bf 10 01 00 00 	lea    0x110(%rdi),%r15
    6ddd:	41 56                	push   %r14
    6ddf:	41 55                	push   %r13
    6de1:	4c 8d 6f 10          	lea    0x10(%rdi),%r13
    6de5:	41 54                	push   %r12
    6de7:	41 52                	push   %r10
    6de9:	53                   	push   %rbx
    6dea:	48 89 fb             	mov    %rdi,%rbx
    6ded:	48 83 ec 30          	sub    $0x30,%rsp
    6df1:	48 c7 07 00 00 00 00 	movq   $0x0,(%rdi)
    6df8:	64 48 8b 04 25 28 00 	mov    %fs:0x28,%rax
    6dff:	00 00 
    6e01:	48 89 45 c8          	mov    %rax,-0x38(%rbp)
    6e05:	31 c0                	xor    %eax,%eax
    6e07:	c7 47 08 00 00 00 00 	movl   $0x0,0x8(%rdi)
    6e0e:	4c 89 ff             	mov    %r15,%rdi
    6e11:	48 89 75 a8          	mov    %rsi,-0x58(%rbp)
    6e15:	e8 16 be ff ff       	callq  2c30 <_ZNSt8ios_baseC2Ev@plt>
    6e1a:	4c 8b 25 6f 9b 20 00 	mov    0x209b6f(%rip),%r12        # 210990 <_ZTTSt14basic_ifstreamIcSt11char_traitsIcEE@@GLIBCXX_3.4+0x8>
    6e21:	c5 f9 ef c0          	vpxor  %xmm0,%xmm0,%xmm0
    6e25:	31 f6                	xor    %esi,%esi
    6e27:	48 8d 05 fa 99 20 00 	lea    0x2099fa(%rip),%rax        # 210828 <_ZTVSt9basic_iosIcSt11char_traitsIcEE@@GLIBCXX_3.4+0x10>
    6e2e:	c6 83 f0 01 00 00 00 	movb   $0x0,0x1f0(%rbx)
    6e35:	48 8b 0d 5c 9b 20 00 	mov    0x209b5c(%rip),%rcx        # 210998 <_ZTTSt14basic_ifstreamIcSt11char_traitsIcEE@@GLIBCXX_3.4+0x10>
    6e3c:	c5 fe 7f 83 f8 01 00 	vmovdqu %ymm0,0x1f8(%rbx)
    6e43:	00 
    6e44:	48 89 83 10 01 00 00 	mov    %rax,0x110(%rbx)
    6e4b:	49 8b 44 24 e8       	mov    -0x18(%r12),%rax
    6e50:	48 c7 83 e8 01 00 00 	movq   $0x0,0x1e8(%rbx)
    6e57:	00 00 00 00 
    6e5b:	c6 83 f1 01 00 00 00 	movb   $0x0,0x1f1(%rbx)
    6e62:	4c 89 63 10          	mov    %r12,0x10(%rbx)
    6e66:	48 89 4c 03 10       	mov    %rcx,0x10(%rbx,%rax,1)
    6e6b:	48 c7 43 18 00 00 00 	movq   $0x0,0x18(%rbx)
    6e72:	00 
    6e73:	49 8b 7c 24 e8       	mov    -0x18(%r12),%rdi
    6e78:	4c 01 ef             	add    %r13,%rdi
    6e7b:	c5 f8 77             	vzeroupper 
    6e7e:	e8 0d c0 ff ff       	callq  2e90 <_ZNSt9basic_iosIcSt11char_traitsIcEE4initEPSt15basic_streambufIcS1_E@plt>
    6e83:	48 8d 05 46 9a 20 00 	lea    0x209a46(%rip),%rax        # 2108d0 <_ZTVSt14basic_ifstreamIcSt11char_traitsIcEE@@GLIBCXX_3.4+0x18>
    6e8a:	4c 8d 73 20          	lea    0x20(%rbx),%r14
    6e8e:	48 89 43 10          	mov    %rax,0x10(%rbx)
    6e92:	48 83 c0 28          	add    $0x28,%rax
    6e96:	4c 89 f7             	mov    %r14,%rdi
    6e99:	48 89 83 10 01 00 00 	mov    %rax,0x110(%rbx)
    6ea0:	e8 4b bf ff ff       	callq  2df0 <_ZNSt13basic_filebufIcSt11char_traitsIcEEC1Ev@plt>
    6ea5:	4c 89 f6             	mov    %r14,%rsi
    6ea8:	4c 89 ff             	mov    %r15,%rdi
    6eab:	e8 e0 bf ff ff       	callq  2e90 <_ZNSt9basic_iosIcSt11char_traitsIcEE4initEPSt15basic_streambufIcS1_E@plt>
    6eb0:	48 8b 45 a8          	mov    -0x58(%rbp),%rax
    6eb4:	ba 08 00 00 00       	mov    $0x8,%edx
    6eb9:	4c 89 f7             	mov    %r14,%rdi
    6ebc:	c6 83 18 02 00 00 00 	movb   $0x0,0x218(%rbx)
    6ec3:	c6 83 19 02 00 00 01 	movb   $0x1,0x219(%rbx)
    6eca:	c6 83 1a 02 00 00 00 	movb   $0x0,0x21a(%rbx)
    6ed1:	c7 83 1c 02 00 00 00 	movl   $0x0,0x21c(%rbx)
    6ed8:	00 00 00 
    6edb:	48 c7 83 20 02 00 00 	movq   $0x0,0x220(%rbx)
    6ee2:	00 00 00 00 
    6ee6:	48 c7 83 28 02 00 00 	movq   $0x0,0x228(%rbx)
    6eed:	00 00 00 00 
    6ef1:	48 c7 83 30 02 00 00 	movq   $0x0,0x230(%rbx)
    6ef8:	00 00 00 00 
    6efc:	48 8b 30             	mov    (%rax),%rsi
    6eff:	e8 8c be ff ff       	callq  2d90 <_ZNSt13basic_filebufIcSt11char_traitsIcEE4openEPKcSt13_Ios_Openmode@plt>
    6f04:	48 8b 53 10          	mov    0x10(%rbx),%rdx
    6f08:	48 8b 7a e8          	mov    -0x18(%rdx),%rdi
    6f0c:	4c 01 ef             	add    %r13,%rdi
    6f0f:	48 85 c0             	test   %rax,%rax
    6f12:	0f 84 d8 00 00 00    	je     6ff0 <_ZN4util2io3MMFIifEC1ERKNSt7__cxx1112basic_stringIcSt11char_traitsIcESaIcEEE+0x220>
    6f18:	31 f6                	xor    %esi,%esi
    6f1a:	e8 91 c0 ff ff       	callq  2fb0 <_ZNSt9basic_iosIcSt11char_traitsIcEE5clearESt12_Ios_Iostate@plt>
    6f1f:	48 8d bb 88 00 00 00 	lea    0x88(%rbx),%rdi
    6f26:	e8 d5 bc ff ff       	callq  2c00 <_ZNKSt12__basic_fileIcE7is_openEv@plt>
    6f2b:	84 c0                	test   %al,%al
    6f2d:	0f 84 d2 00 00 00    	je     7005 <_ZN4util2io3MMFIifEC1ERKNSt7__cxx1112basic_stringIcSt11char_traitsIcESaIcEEE+0x235>
    6f33:	4c 8d 65 b0          	lea    -0x50(%rbp),%r12
    6f37:	c5 f9 ef c0          	vpxor  %xmm0,%xmm0,%xmm0
    6f3b:	4c 89 ef             	mov    %r13,%rdi
    6f3e:	48 c7 45 c0 00 00 00 	movq   $0x0,-0x40(%rbp)
    6f45:	00 
    6f46:	4c 89 e6             	mov    %r12,%rsi
    6f49:	c5 f8 29 45 b0       	vmovaps %xmm0,-0x50(%rbp)
    6f4e:	e8 7d d3 ff ff       	callq  42d0 <_ZN4util2io6DoReadERSt14basic_ifstreamIcSt11char_traitsIcEERSt6vectorINSt7__cxx1112basic_stringIcS3_SaIcEEESaISA_EE>
    6f53:	4c 89 e6             	mov    %r12,%rsi
    6f56:	48 89 df             	mov    %rbx,%rdi
    6f59:	e8 02 dc ff ff       	callq  4b60 <_ZN4util2io3MMFIifE18ParseMmfHeaderLineERSt6vectorINSt7__cxx1112basic_stringIcSt11char_traitsIcESaIcEEESaIS9_EE>
    6f5e:	4c 89 e6             	mov    %r12,%rsi
    6f61:	48 89 df             	mov    %rbx,%rdi
    6f64:	e8 17 e7 ff ff       	callq  5680 <_ZN4util2io3MMFIifE16ParseMmfSizeLineERSt6vectorINSt7__cxx1112basic_stringIcSt11char_traitsIcESaIcEEESaIS9_EE>
    6f69:	80 bb 18 02 00 00 00 	cmpb   $0x0,0x218(%rbx)
    6f70:	75 09                	jne    6f7b <_ZN4util2io3MMFIifEC1ERKNSt7__cxx1112basic_stringIcSt11char_traitsIcESaIcEEE+0x1ab>
    6f72:	80 bb 19 02 00 00 00 	cmpb   $0x0,0x219(%rbx)
    6f79:	74 08                	je     6f83 <_ZN4util2io3MMFIifEC1ERKNSt7__cxx1112basic_stringIcSt11char_traitsIcESaIcEEE+0x1b3>
    6f7b:	48 89 df             	mov    %rbx,%rdi
    6f7e:	e8 9d f9 ff ff       	callq  6920 <_ZN4util2io3MMFIifE15DoLoadMmfMatrixEv>
    6f83:	4c 8b 65 b8          	mov    -0x48(%rbp),%r12
    6f87:	48 8b 5d b0          	mov    -0x50(%rbp),%rbx
    6f8b:	49 39 dc             	cmp    %rbx,%r12
    6f8e:	74 1e                	je     6fae <_ZN4util2io3MMFIifEC1ERKNSt7__cxx1112basic_stringIcSt11char_traitsIcESaIcEEE+0x1de>
    6f90:	48 8b 3b             	mov    (%rbx),%rdi
    6f93:	48 8d 43 10          	lea    0x10(%rbx),%rax
    6f97:	48 39 c7             	cmp    %rax,%rdi
    6f9a:	74 44                	je     6fe0 <_ZN4util2io3MMFIifEC1ERKNSt7__cxx1112basic_stringIcSt11char_traitsIcESaIcEEE+0x210>
    6f9c:	e8 1f be ff ff       	callq  2dc0 <_ZdlPv@plt>
    6fa1:	48 83 c3 20          	add    $0x20,%rbx
    6fa5:	49 39 dc             	cmp    %rbx,%r12
    6fa8:	75 e6                	jne    6f90 <_ZN4util2io3MMFIifEC1ERKNSt7__cxx1112basic_stringIcSt11char_traitsIcESaIcEEE+0x1c0>
    6faa:	48 8b 5d b0          	mov    -0x50(%rbp),%rbx
    6fae:	48 85 db             	test   %rbx,%rbx
    6fb1:	74 08                	je     6fbb <_ZN4util2io3MMFIifEC1ERKNSt7__cxx1112basic_stringIcSt11char_traitsIcESaIcEEE+0x1eb>
    6fb3:	48 89 df             	mov    %rbx,%rdi
    6fb6:	e8 05 be ff ff       	callq  2dc0 <_ZdlPv@plt>
    6fbb:	48 8b 45 c8          	mov    -0x38(%rbp),%rax
    6fbf:	64 48 33 04 25 28 00 	xor    %fs:0x28,%rax
    6fc6:	00 00 
    6fc8:	75 36                	jne    7000 <_ZN4util2io3MMFIifEC1ERKNSt7__cxx1112basic_stringIcSt11char_traitsIcESaIcEEE+0x230>
    6fca:	48 83 c4 30          	add    $0x30,%rsp
    6fce:	5b                   	pop    %rbx
    6fcf:	41 5a                	pop    %r10
    6fd1:	41 5c                	pop    %r12
    6fd3:	41 5d                	pop    %r13
    6fd5:	41 5e                	pop    %r14
    6fd7:	41 5f                	pop    %r15
    6fd9:	5d                   	pop    %rbp
    6fda:	c3                   	retq   
    6fdb:	0f 1f 44 00 00       	nopl   0x0(%rax,%rax,1)
    6fe0:	48 83 c3 20          	add    $0x20,%rbx
    6fe4:	49 39 dc             	cmp    %rbx,%r12
    6fe7:	75 a7                	jne    6f90 <_ZN4util2io3MMFIifEC1ERKNSt7__cxx1112basic_stringIcSt11char_traitsIcESaIcEEE+0x1c0>
    6fe9:	eb bf                	jmp    6faa <_ZN4util2io3MMFIifEC1ERKNSt7__cxx1112basic_stringIcSt11char_traitsIcESaIcEEE+0x1da>
    6feb:	0f 1f 44 00 00       	nopl   0x0(%rax,%rax,1)
    6ff0:	8b 77 20             	mov    0x20(%rdi),%esi
    6ff3:	83 ce 04             	or     $0x4,%esi
    6ff6:	e8 b5 bf ff ff       	callq  2fb0 <_ZNSt9basic_iosIcSt11char_traitsIcEE5clearESt12_Ios_Iostate@plt>
    6ffb:	e9 1f ff ff ff       	jmpq   6f1f <_ZN4util2io3MMFIifEC1ERKNSt7__cxx1112basic_stringIcSt11char_traitsIcESaIcEEE+0x14f>
    7000:	e8 fb bd ff ff       	callq  2e00 <__stack_chk_fail@plt>
    7005:	bf 20 00 00 00       	mov    $0x20,%edi
    700a:	e8 a1 bc ff ff       	callq  2cb0 <__cxa_allocate_exception@plt>
    700f:	49 89 c7             	mov    %rax,%r15
    7012:	e8 89 bd ff ff       	callq  2da0 <_ZSt17iostream_categoryv@plt>
    7017:	48 8d 55 b0          	lea    -0x50(%rbp),%rdx
    701b:	4c 89 ff             	mov    %r15,%rdi
    701e:	48 8d 35 07 58 00 00 	lea    0x5807(%rip),%rsi        # c82c <_IO_stdin_used+0x16c>
    7025:	c7 45 b0 01 00 00 00 	movl   $0x1,-0x50(%rbp)
    702c:	48 89 45 b8          	mov    %rax,-0x48(%rbp)
    7030:	e8 1b bc ff ff       	callq  2c50 <_ZNSt8ios_base7failureB5cxx11C1EPKcRKSt10error_code@plt>
    7035:	48 8b 15 94 9f 20 00 	mov    0x209f94(%rip),%rdx        # 210fd0 <_ZNSt8ios_base7failureB5cxx11D1Ev@GLIBCXX_3.4.21>
    703c:	48 8d 35 bd 97 20 00 	lea    0x2097bd(%rip),%rsi        # 210800 <_ZTINSt8ios_base7failureB5cxx11E@@GLIBCXX_3.4.21>
    7043:	4c 89 ff             	mov    %r15,%rdi
    7046:	e8 75 bf ff ff       	callq  2fc0 <__cxa_throw@plt>
    704b:	49 89 c4             	mov    %rax,%r12
    704e:	c5 f8 77             	vzeroupper 
    7051:	48 83 ea 01          	sub    $0x1,%rdx
    7055:	75 46                	jne    709d <_ZN4util2io3MMFIifEC1ERKNSt7__cxx1112basic_stringIcSt11char_traitsIcESaIcEEE+0x2cd>
    7057:	4c 89 e7             	mov    %r12,%rdi
    705a:	e8 21 bc ff ff       	callq  2c80 <__cxa_begin_catch@plt>
    705f:	48 8d 35 b2 58 00 00 	lea    0x58b2(%rip),%rsi        # c918 <_IO_stdin_used+0x258>
    7066:	48 8d 3d b3 9f 20 00 	lea    0x209fb3(%rip),%rdi        # 211020 <_ZSt4cout@@GLIBCXX_3.4>
    706d:	e8 5e bd ff ff       	callq  2dd0 <_ZStlsISt11char_traitsIcEERSt13basic_ostreamIcT_ES5_PKc@plt>
    7072:	bf 01 00 00 00       	mov    $0x1,%edi
    7077:	e8 e4 bd ff ff       	callq  2e60 <exit@plt>
    707c:	49 89 c4             	mov    %rax,%r12
    707f:	49 89 d6             	mov    %rdx,%r14
    7082:	4c 89 ff             	mov    %r15,%rdi
    7085:	c5 f8 77             	vzeroupper 
    7088:	e8 a3 bc ff ff       	callq  2d30 <__cxa_free_exception@plt>
    708d:	4c 89 f2             	mov    %r14,%rdx
    7090:	eb bf                	jmp    7051 <_ZN4util2io3MMFIifEC1ERKNSt7__cxx1112basic_stringIcSt11char_traitsIcESaIcEEE+0x281>
    7092:	49 89 c4             	mov    %rax,%r12
    7095:	c5 f8 77             	vzeroupper 
    7098:	e8 d3 be ff ff       	callq  2f70 <__cxa_end_catch@plt>
    709d:	48 8b bb 20 02 00 00 	mov    0x220(%rbx),%rdi
    70a4:	48 85 ff             	test   %rdi,%rdi
    70a7:	74 05                	je     70ae <_ZN4util2io3MMFIifEC1ERKNSt7__cxx1112basic_stringIcSt11char_traitsIcESaIcEEE+0x2de>
    70a9:	e8 12 bd ff ff       	callq  2dc0 <_ZdlPv@plt>
    70ae:	4c 89 ef             	mov    %r13,%rdi
    70b1:	e8 5a bb ff ff       	callq  2c10 <_ZNSt14basic_ifstreamIcSt11char_traitsIcEED1Ev@plt>
    70b6:	4c 89 e7             	mov    %r12,%rdi
    70b9:	e8 32 bf ff ff       	callq  2ff0 <_Unwind_Resume@plt>
    70be:	49 89 c5             	mov    %rax,%r13
    70c1:	4c 89 f7             	mov    %r14,%rdi
    70c4:	c5 f8 77             	vzeroupper 
    70c7:	e8 54 be ff ff       	callq  2f20 <_ZNSt13basic_filebufIcSt11char_traitsIcEED1Ev@plt>
    70cc:	4c 89 e8             	mov    %r13,%rax
    70cf:	49 8b 54 24 e8       	mov    -0x18(%r12),%rdx
    70d4:	48 8b 0d bd 98 20 00 	mov    0x2098bd(%rip),%rcx        # 210998 <_ZTTSt14basic_ifstreamIcSt11char_traitsIcEE@@GLIBCXX_3.4+0x10>
    70db:	4c 89 63 10          	mov    %r12,0x10(%rbx)
    70df:	49 89 c4             	mov    %rax,%r12
    70e2:	48 89 4c 13 10       	mov    %rcx,0x10(%rbx,%rdx,1)
    70e7:	48 c7 43 18 00 00 00 	movq   $0x0,0x18(%rbx)
    70ee:	00 
    70ef:	48 8d 05 32 97 20 00 	lea    0x209732(%rip),%rax        # 210828 <_ZTVSt9basic_iosIcSt11char_traitsIcEE@@GLIBCXX_3.4+0x10>
    70f6:	4c 89 ff             	mov    %r15,%rdi
    70f9:	48 89 83 10 01 00 00 	mov    %rax,0x110(%rbx)
    7100:	e8 3b bb ff ff       	callq  2c40 <_ZNSt8ios_baseD2Ev@plt>
    7105:	4c 89 e7             	mov    %r12,%rdi
    7108:	e8 e3 be ff ff       	callq  2ff0 <_Unwind_Resume@plt>
    710d:	c5 f8 77             	vzeroupper 
    7110:	eb bd                	jmp    70cf <_ZN4util2io3MMFIifEC1ERKNSt7__cxx1112basic_stringIcSt11char_traitsIcESaIcEEE+0x2ff>
    7112:	49 89 c6             	mov    %rax,%r14
    7115:	4c 89 e7             	mov    %r12,%rdi
    7118:	c5 f8 77             	vzeroupper 
    711b:	e8 70 e1 ff ff       	callq  5290 <_ZNSt6vectorINSt7__cxx1112basic_stringIcSt11char_traitsIcESaIcEEESaIS5_EED1Ev>
    7120:	4d 89 f4             	mov    %r14,%r12
    7123:	e9 75 ff ff ff       	jmpq   709d <_ZN4util2io3MMFIifEC1ERKNSt7__cxx1112basic_stringIcSt11char_traitsIcESaIcEEE+0x2cd>
    7128:	49 89 c4             	mov    %rax,%r12
    712b:	c5 f8 77             	vzeroupper 
    712e:	eb bf                	jmp    70ef <_ZN4util2io3MMFIifEC1ERKNSt7__cxx1112basic_stringIcSt11char_traitsIcESaIcEEE+0x31f>

0000000000007130 <_ZSt13__adjust_heapIN9__gnu_cxx17__normal_iteratorIPN4util2io4ElemIidEESt6vectorIS5_SaIS5_EEEElS5_NS0_5__ops15_Iter_comp_iterINS3_10ElemSorterIidEEEEEvT_T0_SH_T1_T2_>:
    7130:	48 8d 42 ff          	lea    -0x1(%rdx),%rax
    7134:	55                   	push   %rbp
    7135:	48 89 c5             	mov    %rax,%rbp
    7138:	53                   	push   %rbx
    7139:	48 c1 ed 3f          	shr    $0x3f,%rbp
    713d:	48 01 c5             	add    %rax,%rbp
    7140:	48 d1 fd             	sar    %rbp
    7143:	48 39 ee             	cmp    %rbp,%rsi
    7146:	7d 68                	jge    71b0 <_ZSt13__adjust_heapIN9__gnu_cxx17__normal_iteratorIPN4util2io4ElemIidEESt6vectorIS5_SaIS5_EEEElS5_NS0_5__ops15_Iter_comp_iterINS3_10ElemSorterIidEEEEEvT_T0_SH_T1_T2_+0x80>
    7148:	49 89 f2             	mov    %rsi,%r10
    714b:	eb 2a                	jmp    7177 <_ZSt13__adjust_heapIN9__gnu_cxx17__normal_iteratorIPN4util2io4ElemIidEESt6vectorIS5_SaIS5_EEEElS5_NS0_5__ops15_Iter_comp_iterINS3_10ElemSorterIidEEEEEvT_T0_SH_T1_T2_+0x47>
    714d:	0f 1f 00             	nopl   (%rax)
    7150:	41 8b 59 04          	mov    0x4(%r9),%ebx
    7154:	41 3b 58 04          	cmp    0x4(%r8),%ebx
    7158:	4d 0f 4e c8          	cmovle %r8,%r9
    715c:	49 0f 4e c3          	cmovle %r11,%rax
    7160:	c4 c1 7a 6f 09       	vmovdqu (%r9),%xmm1
    7165:	49 c1 e2 04          	shl    $0x4,%r10
    7169:	c4 a1 78 11 0c 17    	vmovups %xmm1,(%rdi,%r10,1)
    716f:	49 89 c2             	mov    %rax,%r10
    7172:	48 39 c5             	cmp    %rax,%rbp
    7175:	7e 41                	jle    71b8 <_ZSt13__adjust_heapIN9__gnu_cxx17__normal_iteratorIPN4util2io4ElemIidEESt6vectorIS5_SaIS5_EEEElS5_NS0_5__ops15_Iter_comp_iterINS3_10ElemSorterIidEEEEEvT_T0_SH_T1_T2_+0x88>
    7177:	4d 8d 42 01          	lea    0x1(%r10),%r8
    717b:	4f 8d 1c 00          	lea    (%r8,%r8,1),%r11
    717f:	49 c1 e0 05          	shl    $0x5,%r8
    7183:	49 8d 43 ff          	lea    -0x1(%r11),%rax
    7187:	49 01 f8             	add    %rdi,%r8
    718a:	49 89 c1             	mov    %rax,%r9
    718d:	41 8b 18             	mov    (%r8),%ebx
    7190:	49 c1 e1 04          	shl    $0x4,%r9
    7194:	49 01 f9             	add    %rdi,%r9
    7197:	41 39 19             	cmp    %ebx,(%r9)
    719a:	7f c4                	jg     7160 <_ZSt13__adjust_heapIN9__gnu_cxx17__normal_iteratorIPN4util2io4ElemIidEESt6vectorIS5_SaIS5_EEEElS5_NS0_5__ops15_Iter_comp_iterINS3_10ElemSorterIidEEEEEvT_T0_SH_T1_T2_+0x30>
    719c:	7d b2                	jge    7150 <_ZSt13__adjust_heapIN9__gnu_cxx17__normal_iteratorIPN4util2io4ElemIidEESt6vectorIS5_SaIS5_EEEElS5_NS0_5__ops15_Iter_comp_iterINS3_10ElemSorterIidEEEEEvT_T0_SH_T1_T2_+0x20>
    719e:	4d 89 c1             	mov    %r8,%r9
    71a1:	4c 89 d8             	mov    %r11,%rax
    71a4:	eb ba                	jmp    7160 <_ZSt13__adjust_heapIN9__gnu_cxx17__normal_iteratorIPN4util2io4ElemIidEESt6vectorIS5_SaIS5_EEEElS5_NS0_5__ops15_Iter_comp_iterINS3_10ElemSorterIidEEEEEvT_T0_SH_T1_T2_+0x30>
    71a6:	66 2e 0f 1f 84 00 00 	nopw   %cs:0x0(%rax,%rax,1)
    71ad:	00 00 00 
    71b0:	48 89 f0             	mov    %rsi,%rax
    71b3:	0f 1f 44 00 00       	nopl   0x0(%rax,%rax,1)
    71b8:	f6 c2 01             	test   $0x1,%dl
    71bb:	75 1a                	jne    71d7 <_ZSt13__adjust_heapIN9__gnu_cxx17__normal_iteratorIPN4util2io4ElemIidEESt6vectorIS5_SaIS5_EEEElS5_NS0_5__ops15_Iter_comp_iterINS3_10ElemSorterIidEEEEEvT_T0_SH_T1_T2_+0xa7>
    71bd:	48 83 ea 02          	sub    $0x2,%rdx
    71c1:	49 89 d0             	mov    %rdx,%r8
    71c4:	49 c1 e8 3f          	shr    $0x3f,%r8
    71c8:	4c 01 c2             	add    %r8,%rdx
    71cb:	48 d1 fa             	sar    %rdx
    71ce:	48 39 c2             	cmp    %rax,%rdx
    71d1:	0f 84 89 00 00 00    	je     7260 <_ZSt13__adjust_heapIN9__gnu_cxx17__normal_iteratorIPN4util2io4ElemIidEESt6vectorIS5_SaIS5_EEEElS5_NS0_5__ops15_Iter_comp_iterINS3_10ElemSorterIidEEEEEvT_T0_SH_T1_T2_+0x130>
    71d7:	48 89 c2             	mov    %rax,%rdx
    71da:	48 c1 e2 04          	shl    $0x4,%rdx
    71de:	48 01 fa             	add    %rdi,%rdx
    71e1:	4c 8d 40 ff          	lea    -0x1(%rax),%r8
    71e5:	49 89 cb             	mov    %rcx,%r11
    71e8:	41 89 ca             	mov    %ecx,%r10d
    71eb:	4d 89 c1             	mov    %r8,%r9
    71ee:	49 c1 fb 20          	sar    $0x20,%r11
    71f2:	49 c1 e9 3f          	shr    $0x3f,%r9
    71f6:	44 89 db             	mov    %r11d,%ebx
    71f9:	4d 01 c1             	add    %r8,%r9
    71fc:	49 d1 f9             	sar    %r9
    71ff:	48 39 f0             	cmp    %rsi,%rax
    7202:	7f 0f                	jg     7213 <_ZSt13__adjust_heapIN9__gnu_cxx17__normal_iteratorIPN4util2io4ElemIidEESt6vectorIS5_SaIS5_EEEElS5_NS0_5__ops15_Iter_comp_iterINS3_10ElemSorterIidEEEEEvT_T0_SH_T1_T2_+0xe3>
    7204:	eb 4c                	jmp    7252 <_ZSt13__adjust_heapIN9__gnu_cxx17__normal_iteratorIPN4util2io4ElemIidEESt6vectorIS5_SaIS5_EEEElS5_NS0_5__ops15_Iter_comp_iterINS3_10ElemSorterIidEEEEEvT_T0_SH_T1_T2_+0x122>
    7206:	66 2e 0f 1f 84 00 00 	nopw   %cs:0x0(%rax,%rax,1)
    720d:	00 00 00 
    7210:	4d 89 c1             	mov    %r8,%r9
    7213:	4c 89 ca             	mov    %r9,%rdx
    7216:	48 c1 e2 04          	shl    $0x4,%rdx
    721a:	48 01 fa             	add    %rdi,%rdx
    721d:	44 3b 12             	cmp    (%rdx),%r10d
    7220:	7f 07                	jg     7229 <_ZSt13__adjust_heapIN9__gnu_cxx17__normal_iteratorIPN4util2io4ElemIidEESt6vectorIS5_SaIS5_EEEElS5_NS0_5__ops15_Iter_comp_iterINS3_10ElemSorterIidEEEEEvT_T0_SH_T1_T2_+0xf9>
    7222:	7c 64                	jl     7288 <_ZSt13__adjust_heapIN9__gnu_cxx17__normal_iteratorIPN4util2io4ElemIidEESt6vectorIS5_SaIS5_EEEElS5_NS0_5__ops15_Iter_comp_iterINS3_10ElemSorterIidEEEEEvT_T0_SH_T1_T2_+0x158>
    7224:	3b 5a 04             	cmp    0x4(%rdx),%ebx
    7227:	7e 5f                	jle    7288 <_ZSt13__adjust_heapIN9__gnu_cxx17__normal_iteratorIPN4util2io4ElemIidEESt6vectorIS5_SaIS5_EEEElS5_NS0_5__ops15_Iter_comp_iterINS3_10ElemSorterIidEEEEEvT_T0_SH_T1_T2_+0x158>
    7229:	c5 fa 6f 0a          	vmovdqu (%rdx),%xmm1
    722d:	4d 8d 41 ff          	lea    -0x1(%r9),%r8
    7231:	48 c1 e0 04          	shl    $0x4,%rax
    7235:	c5 f8 11 0c 07       	vmovups %xmm1,(%rdi,%rax,1)
    723a:	4c 89 c0             	mov    %r8,%rax
    723d:	48 c1 e8 3f          	shr    $0x3f,%rax
    7241:	4c 01 c0             	add    %r8,%rax
    7244:	48 d1 f8             	sar    %rax
    7247:	49 89 c0             	mov    %rax,%r8
    724a:	4c 89 c8             	mov    %r9,%rax
    724d:	4c 39 ce             	cmp    %r9,%rsi
    7250:	7c be                	jl     7210 <_ZSt13__adjust_heapIN9__gnu_cxx17__normal_iteratorIPN4util2io4ElemIidEESt6vectorIS5_SaIS5_EEEElS5_NS0_5__ops15_Iter_comp_iterINS3_10ElemSorterIidEEEEEvT_T0_SH_T1_T2_+0xe0>
    7252:	89 0a                	mov    %ecx,(%rdx)
    7254:	44 89 5a 04          	mov    %r11d,0x4(%rdx)
    7258:	c5 fb 11 42 08       	vmovsd %xmm0,0x8(%rdx)
    725d:	5b                   	pop    %rbx
    725e:	5d                   	pop    %rbp
    725f:	c3                   	retq   
    7260:	4c 8d 44 00 01       	lea    0x1(%rax,%rax,1),%r8
    7265:	48 c1 e0 04          	shl    $0x4,%rax
    7269:	4c 89 c2             	mov    %r8,%rdx
    726c:	48 c1 e2 04          	shl    $0x4,%rdx
    7270:	48 01 fa             	add    %rdi,%rdx
    7273:	c5 fa 6f 0a          	vmovdqu (%rdx),%xmm1
    7277:	c5 f8 11 0c 07       	vmovups %xmm1,(%rdi,%rax,1)
    727c:	4c 89 c0             	mov    %r8,%rax
    727f:	e9 5d ff ff ff       	jmpq   71e1 <_ZSt13__adjust_heapIN9__gnu_cxx17__normal_iteratorIPN4util2io4ElemIidEESt6vectorIS5_SaIS5_EEEElS5_NS0_5__ops15_Iter_comp_iterINS3_10ElemSorterIidEEEEEvT_T0_SH_T1_T2_+0xb1>
    7284:	0f 1f 40 00          	nopl   0x0(%rax)
    7288:	48 c1 e0 04          	shl    $0x4,%rax
    728c:	48 8d 14 07          	lea    (%rdi,%rax,1),%rdx
    7290:	89 0a                	mov    %ecx,(%rdx)
    7292:	44 89 5a 04          	mov    %r11d,0x4(%rdx)
    7296:	c5 fb 11 42 08       	vmovsd %xmm0,0x8(%rdx)
    729b:	5b                   	pop    %rbx
    729c:	5d                   	pop    %rbp
    729d:	c3                   	retq   
    729e:	66 90                	xchg   %ax,%ax

00000000000072a0 <_ZSt16__introsort_loopIN9__gnu_cxx17__normal_iteratorIPN4util2io4ElemIidEESt6vectorIS5_SaIS5_EEEElNS0_5__ops15_Iter_comp_iterINS3_10ElemSorterIidEEEEEvT_SG_T0_T1_>:
    72a0:	41 57                	push   %r15
    72a2:	48 89 f0             	mov    %rsi,%rax
    72a5:	41 56                	push   %r14
    72a7:	48 29 f8             	sub    %rdi,%rax
    72aa:	41 55                	push   %r13
    72ac:	41 54                	push   %r12
    72ae:	55                   	push   %rbp
    72af:	53                   	push   %rbx
    72b0:	48 83 ec 18          	sub    $0x18,%rsp
    72b4:	44 0f b6 64 24 50    	movzbl 0x50(%rsp),%r12d
    72ba:	48 3d 00 01 00 00    	cmp    $0x100,%rax
    72c0:	0f 8e 9d 01 00 00    	jle    7463 <_ZSt16__introsort_loopIN9__gnu_cxx17__normal_iteratorIPN4util2io4ElemIidEESt6vectorIS5_SaIS5_EEEElNS0_5__ops15_Iter_comp_iterINS3_10ElemSorterIidEEEEEvT_SG_T0_T1_+0x1c3>
    72c6:	49 89 fe             	mov    %rdi,%r14
    72c9:	48 89 d5             	mov    %rdx,%rbp
    72cc:	48 85 d2             	test   %rdx,%rdx
    72cf:	0f 84 9d 01 00 00    	je     7472 <_ZSt16__introsort_loopIN9__gnu_cxx17__normal_iteratorIPN4util2io4ElemIidEESt6vectorIS5_SaIS5_EEEElNS0_5__ops15_Iter_comp_iterINS3_10ElemSorterIidEEEEEvT_SG_T0_T1_+0x1d2>
    72d5:	49 89 f7             	mov    %rsi,%r15
    72d8:	48 89 f3             	mov    %rsi,%rbx
    72db:	4c 8d 6f 10          	lea    0x10(%rdi),%r13
    72df:	4c 29 f3             	sub    %r14,%rbx
    72e2:	48 83 ec 08          	sub    $0x8,%rsp
    72e6:	49 8d 4f f0          	lea    -0x10(%r15),%rcx
    72ea:	4c 89 ee             	mov    %r13,%rsi
    72ed:	48 89 d8             	mov    %rbx,%rax
    72f0:	41 54                	push   %r12
    72f2:	4c 89 f7             	mov    %r14,%rdi
    72f5:	48 83 ed 01          	sub    $0x1,%rbp
    72f9:	48 c1 f8 04          	sar    $0x4,%rax
    72fd:	4c 89 eb             	mov    %r13,%rbx
    7300:	48 89 c2             	mov    %rax,%rdx
    7303:	48 c1 ea 3f          	shr    $0x3f,%rdx
    7307:	48 01 c2             	add    %rax,%rdx
    730a:	48 d1 fa             	sar    %rdx
    730d:	48 c1 e2 04          	shl    $0x4,%rdx
    7311:	4c 01 f2             	add    %r14,%rdx
    7314:	e8 77 f1 ff ff       	callq  6490 <_ZSt22__move_median_to_firstIN9__gnu_cxx17__normal_iteratorIPN4util2io4ElemIidEESt6vectorIS5_SaIS5_EEEENS0_5__ops15_Iter_comp_iterINS3_10ElemSorterIidEEEEEvT_SG_SG_SG_T0_>
    7319:	41 8b 16             	mov    (%r14),%edx
    731c:	5e                   	pop    %rsi
    731d:	4c 89 f9             	mov    %r15,%rcx
    7320:	5f                   	pop    %rdi
    7321:	0f 1f 80 00 00 00 00 	nopl   0x0(%rax)
    7328:	8b 33                	mov    (%rbx),%esi
    732a:	49 89 d8             	mov    %rbx,%r8
    732d:	39 d6                	cmp    %edx,%esi
    732f:	7c 4f                	jl     7380 <_ZSt16__introsort_loopIN9__gnu_cxx17__normal_iteratorIPN4util2io4ElemIidEESt6vectorIS5_SaIS5_EEEElNS0_5__ops15_Iter_comp_iterINS3_10ElemSorterIidEEEEEvT_SG_T0_T1_+0xe0>
    7331:	7f 09                	jg     733c <_ZSt16__introsort_loopIN9__gnu_cxx17__normal_iteratorIPN4util2io4ElemIidEESt6vectorIS5_SaIS5_EEEElNS0_5__ops15_Iter_comp_iterINS3_10ElemSorterIidEEEEEvT_SG_T0_T1_+0x9c>
    7333:	41 8b 46 04          	mov    0x4(%r14),%eax
    7337:	39 43 04             	cmp    %eax,0x4(%rbx)
    733a:	7c 44                	jl     7380 <_ZSt16__introsort_loopIN9__gnu_cxx17__normal_iteratorIPN4util2io4ElemIidEESt6vectorIS5_SaIS5_EEEElNS0_5__ops15_Iter_comp_iterINS3_10ElemSorterIidEEEEEvT_SG_T0_T1_+0xe0>
    733c:	48 8d 41 f0          	lea    -0x10(%rcx),%rax
    7340:	eb 13                	jmp    7355 <_ZSt16__introsort_loopIN9__gnu_cxx17__normal_iteratorIPN4util2io4ElemIidEESt6vectorIS5_SaIS5_EEEElNS0_5__ops15_Iter_comp_iterINS3_10ElemSorterIidEEEEEvT_SG_T0_T1_+0xb5>
    7342:	66 0f 1f 44 00 00    	nopw   0x0(%rax,%rax,1)
    7348:	8b 78 04             	mov    0x4(%rax),%edi
    734b:	41 39 7e 04          	cmp    %edi,0x4(%r14)
    734f:	7d 0d                	jge    735e <_ZSt16__introsort_loopIN9__gnu_cxx17__normal_iteratorIPN4util2io4ElemIidEESt6vectorIS5_SaIS5_EEEElNS0_5__ops15_Iter_comp_iterINS3_10ElemSorterIidEEEEEvT_SG_T0_T1_+0xbe>
    7351:	48 83 e8 10          	sub    $0x10,%rax
    7355:	48 89 c1             	mov    %rax,%rcx
    7358:	39 10                	cmp    %edx,(%rax)
    735a:	7f f5                	jg     7351 <_ZSt16__introsort_loopIN9__gnu_cxx17__normal_iteratorIPN4util2io4ElemIidEESt6vectorIS5_SaIS5_EEEElNS0_5__ops15_Iter_comp_iterINS3_10ElemSorterIidEEEEEvT_SG_T0_T1_+0xb1>
    735c:	7d ea                	jge    7348 <_ZSt16__introsort_loopIN9__gnu_cxx17__normal_iteratorIPN4util2io4ElemIidEESt6vectorIS5_SaIS5_EEEElNS0_5__ops15_Iter_comp_iterINS3_10ElemSorterIidEEEEEvT_SG_T0_T1_+0xa8>
    735e:	48 39 c3             	cmp    %rax,%rbx
    7361:	73 2d                	jae    7390 <_ZSt16__introsort_loopIN9__gnu_cxx17__normal_iteratorIPN4util2io4ElemIidEESt6vectorIS5_SaIS5_EEEElNS0_5__ops15_Iter_comp_iterINS3_10ElemSorterIidEEEEEvT_SG_T0_T1_+0xf0>
    7363:	8b 53 04             	mov    0x4(%rbx),%edx
    7366:	c5 fb 10 43 08       	vmovsd 0x8(%rbx),%xmm0
    736b:	c5 fa 6f 08          	vmovdqu (%rax),%xmm1
    736f:	c5 f8 11 0b          	vmovups %xmm1,(%rbx)
    7373:	89 30                	mov    %esi,(%rax)
    7375:	89 50 04             	mov    %edx,0x4(%rax)
    7378:	c5 fb 11 40 08       	vmovsd %xmm0,0x8(%rax)
    737d:	41 8b 16             	mov    (%r14),%edx
    7380:	48 83 c3 10          	add    $0x10,%rbx
    7384:	eb a2                	jmp    7328 <_ZSt16__introsort_loopIN9__gnu_cxx17__normal_iteratorIPN4util2io4ElemIidEESt6vectorIS5_SaIS5_EEEElNS0_5__ops15_Iter_comp_iterINS3_10ElemSorterIidEEEEEvT_SG_T0_T1_+0x88>
    7386:	66 2e 0f 1f 84 00 00 	nopw   %cs:0x0(%rax,%rax,1)
    738d:	00 00 00 
    7390:	4c 89 44 24 08       	mov    %r8,0x8(%rsp)
    7395:	48 83 ec 08          	sub    $0x8,%rsp
    7399:	48 89 ea             	mov    %rbp,%rdx
    739c:	4c 89 fe             	mov    %r15,%rsi
    739f:	41 54                	push   %r12
    73a1:	48 89 df             	mov    %rbx,%rdi
    73a4:	e8 f7 fe ff ff       	callq  72a0 <_ZSt16__introsort_loopIN9__gnu_cxx17__normal_iteratorIPN4util2io4ElemIidEESt6vectorIS5_SaIS5_EEEElNS0_5__ops15_Iter_comp_iterINS3_10ElemSorterIidEEEEEvT_SG_T0_T1_>
    73a9:	48 89 d8             	mov    %rbx,%rax
    73ac:	5a                   	pop    %rdx
    73ad:	59                   	pop    %rcx
    73ae:	4c 29 f0             	sub    %r14,%rax
    73b1:	4c 8b 44 24 08       	mov    0x8(%rsp),%r8
    73b6:	48 3d 00 01 00 00    	cmp    $0x100,%rax
    73bc:	0f 8e a1 00 00 00    	jle    7463 <_ZSt16__introsort_loopIN9__gnu_cxx17__normal_iteratorIPN4util2io4ElemIidEESt6vectorIS5_SaIS5_EEEElNS0_5__ops15_Iter_comp_iterINS3_10ElemSorterIidEEEEEvT_SG_T0_T1_+0x1c3>
    73c2:	49 89 df             	mov    %rbx,%r15
    73c5:	48 85 ed             	test   %rbp,%rbp
    73c8:	0f 85 11 ff ff ff    	jne    72df <_ZSt16__introsort_loopIN9__gnu_cxx17__normal_iteratorIPN4util2io4ElemIidEESt6vectorIS5_SaIS5_EEEElNS0_5__ops15_Iter_comp_iterINS3_10ElemSorterIidEEEEEvT_SG_T0_T1_+0x3f>
    73ce:	48 c1 f8 04          	sar    $0x4,%rax
    73d2:	4c 8d 68 fe          	lea    -0x2(%rax),%r13
    73d6:	48 89 c5             	mov    %rax,%rbp
    73d9:	49 d1 fd             	sar    %r13
    73dc:	4c 89 eb             	mov    %r13,%rbx
    73df:	48 c1 e3 04          	shl    $0x4,%rbx
    73e3:	4c 01 f3             	add    %r14,%rbx
    73e6:	eb 04                	jmp    73ec <_ZSt16__introsort_loopIN9__gnu_cxx17__normal_iteratorIPN4util2io4ElemIidEESt6vectorIS5_SaIS5_EEEElNS0_5__ops15_Iter_comp_iterINS3_10ElemSorterIidEEEEEvT_SG_T0_T1_+0x14c>
    73e8:	49 83 ed 01          	sub    $0x1,%r13
    73ec:	4c 89 44 24 08       	mov    %r8,0x8(%rsp)
    73f1:	48 83 ec 08          	sub    $0x8,%rsp
    73f5:	48 8b 0b             	mov    (%rbx),%rcx
    73f8:	48 89 ea             	mov    %rbp,%rdx
    73fb:	c5 fb 10 43 08       	vmovsd 0x8(%rbx),%xmm0
    7400:	41 54                	push   %r12
    7402:	4c 89 ee             	mov    %r13,%rsi
    7405:	4c 89 f7             	mov    %r14,%rdi
    7408:	48 83 eb 10          	sub    $0x10,%rbx
    740c:	e8 1f fd ff ff       	callq  7130 <_ZSt13__adjust_heapIN9__gnu_cxx17__normal_iteratorIPN4util2io4ElemIidEESt6vectorIS5_SaIS5_EEEElS5_NS0_5__ops15_Iter_comp_iterINS3_10ElemSorterIidEEEEEvT_T0_SH_T1_T2_>
    7411:	4d 85 ed             	test   %r13,%r13
    7414:	41 5a                	pop    %r10
    7416:	41 5b                	pop    %r11
    7418:	4c 8b 44 24 08       	mov    0x8(%rsp),%r8
    741d:	75 c9                	jne    73e8 <_ZSt16__introsort_loopIN9__gnu_cxx17__normal_iteratorIPN4util2io4ElemIidEESt6vectorIS5_SaIS5_EEEElNS0_5__ops15_Iter_comp_iterINS3_10ElemSorterIidEEEEEvT_SG_T0_T1_+0x148>
    741f:	49 8d 58 f0          	lea    -0x10(%r8),%rbx
    7423:	c4 c1 7a 6f 06       	vmovdqu (%r14),%xmm0
    7428:	48 83 ec 08          	sub    $0x8,%rsp
    742c:	48 89 dd             	mov    %rbx,%rbp
    742f:	48 8b 43 08          	mov    0x8(%rbx),%rax
    7433:	48 8b 0b             	mov    (%rbx),%rcx
    7436:	4c 29 f5             	sub    %r14,%rbp
    7439:	31 f6                	xor    %esi,%esi
    743b:	4c 89 f7             	mov    %r14,%rdi
    743e:	c5 f8 11 03          	vmovups %xmm0,(%rbx)
    7442:	48 89 ea             	mov    %rbp,%rdx
    7445:	c4 e1 f9 6e c0       	vmovq  %rax,%xmm0
    744a:	48 83 eb 10          	sub    $0x10,%rbx
    744e:	41 54                	push   %r12
    7450:	48 c1 fa 04          	sar    $0x4,%rdx
    7454:	e8 d7 fc ff ff       	callq  7130 <_ZSt13__adjust_heapIN9__gnu_cxx17__normal_iteratorIPN4util2io4ElemIidEESt6vectorIS5_SaIS5_EEEElS5_NS0_5__ops15_Iter_comp_iterINS3_10ElemSorterIidEEEEEvT_T0_SH_T1_T2_>
    7459:	41 58                	pop    %r8
    745b:	41 59                	pop    %r9
    745d:	48 83 fd 10          	cmp    $0x10,%rbp
    7461:	7f c0                	jg     7423 <_ZSt16__introsort_loopIN9__gnu_cxx17__normal_iteratorIPN4util2io4ElemIidEESt6vectorIS5_SaIS5_EEEElNS0_5__ops15_Iter_comp_iterINS3_10ElemSorterIidEEEEEvT_SG_T0_T1_+0x183>
    7463:	48 83 c4 18          	add    $0x18,%rsp
    7467:	5b                   	pop    %rbx
    7468:	5d                   	pop    %rbp
    7469:	41 5c                	pop    %r12
    746b:	41 5d                	pop    %r13
    746d:	41 5e                	pop    %r14
    746f:	41 5f                	pop    %r15
    7471:	c3                   	retq   
    7472:	49 89 f0             	mov    %rsi,%r8
    7475:	e9 54 ff ff ff       	jmpq   73ce <_ZSt16__introsort_loopIN9__gnu_cxx17__normal_iteratorIPN4util2io4ElemIidEESt6vectorIS5_SaIS5_EEEElNS0_5__ops15_Iter_comp_iterINS3_10ElemSorterIidEEEEEvT_SG_T0_T1_+0x12e>
    747a:	66 0f 1f 44 00 00    	nopw   0x0(%rax,%rax,1)

0000000000007480 <_ZN4util2io3MMFIidE15DoLoadMmfMatrixEv>:
    7480:	41 57                	push   %r15
    7482:	41 56                	push   %r14
    7484:	41 55                	push   %r13
    7486:	41 54                	push   %r12
    7488:	4c 8d a7 20 02 00 00 	lea    0x220(%rdi),%r12
    748f:	55                   	push   %rbp
    7490:	53                   	push   %rbx
    7491:	48 89 fb             	mov    %rdi,%rbx
    7494:	48 83 ec 38          	sub    $0x38,%rsp
    7498:	64 48 8b 04 25 28 00 	mov    %fs:0x28,%rax
    749f:	00 00 
    74a1:	48 89 44 24 28       	mov    %rax,0x28(%rsp)
    74a6:	31 c0                	xor    %eax,%eax
    74a8:	80 bf 18 02 00 00 00 	cmpb   $0x0,0x218(%rdi)
    74af:	8b 47 08             	mov    0x8(%rdi),%eax
    74b2:	0f 84 c8 01 00 00    	je     7680 <_ZN4util2io3MMFIidE15DoLoadMmfMatrixEv+0x200>
    74b8:	48 ba ff ff ff ff ff 	movabs $0xfffffffffffffff,%rdx
    74bf:	ff ff 0f 
    74c2:	8d 0c 00             	lea    (%rax,%rax,1),%ecx
    74c5:	48 63 c9             	movslq %ecx,%rcx
    74c8:	48 39 d1             	cmp    %rdx,%rcx
    74cb:	0f 87 e9 03 00 00    	ja     78ba <_ZN4util2io3MMFIidE15DoLoadMmfMatrixEv+0x43a>
    74d1:	48 8b af 20 02 00 00 	mov    0x220(%rdi),%rbp
    74d8:	48 8b 97 30 02 00 00 	mov    0x230(%rdi),%rdx
    74df:	48 29 ea             	sub    %rbp,%rdx
    74e2:	48 c1 fa 04          	sar    $0x4,%rdx
    74e6:	48 39 d1             	cmp    %rdx,%rcx
    74e9:	0f 87 09 03 00 00    	ja     77f8 <_ZN4util2io3MMFIidE15DoLoadMmfMatrixEv+0x378>
    74ef:	85 c0                	test   %eax,%eax
    74f1:	0f 8e c0 00 00 00    	jle    75b7 <_ZN4util2io3MMFIidE15DoLoadMmfMatrixEv+0x137>
    74f7:	48 8d 6c 24 10       	lea    0x10(%rsp),%rbp
    74fc:	45 31 f6             	xor    %r14d,%r14d
    74ff:	4c 8d 6d 08          	lea    0x8(%rbp),%r13
    7503:	eb 69                	jmp    756e <_ZN4util2io3MMFIidE15DoLoadMmfMatrixEv+0xee>
    7505:	0f 1f 00             	nopl   (%rax)
    7508:	48 85 f6             	test   %rsi,%rsi
    750b:	74 0a                	je     7517 <_ZN4util2io3MMFIidE15DoLoadMmfMatrixEv+0x97>
    750d:	c5 f9 6f 44 24 10    	vmovdqa 0x10(%rsp),%xmm0
    7513:	c5 f8 11 06          	vmovups %xmm0,(%rsi)
    7517:	48 83 c6 10          	add    $0x10,%rsi
    751b:	48 89 b3 28 02 00 00 	mov    %rsi,0x228(%rbx)
    7522:	8b 44 24 10          	mov    0x10(%rsp),%eax
    7526:	8b 54 24 14          	mov    0x14(%rsp),%edx
    752a:	39 d0                	cmp    %edx,%eax
    752c:	74 36                	je     7564 <_ZN4util2io3MMFIidE15DoLoadMmfMatrixEv+0xe4>
    752e:	89 54 24 10          	mov    %edx,0x10(%rsp)
    7532:	48 8b b3 28 02 00 00 	mov    0x228(%rbx),%rsi
    7539:	89 44 24 14          	mov    %eax,0x14(%rsp)
    753d:	48 3b b3 30 02 00 00 	cmp    0x230(%rbx),%rsi
    7544:	0f 84 06 02 00 00    	je     7750 <_ZN4util2io3MMFIidE15DoLoadMmfMatrixEv+0x2d0>
    754a:	48 85 f6             	test   %rsi,%rsi
    754d:	74 0a                	je     7559 <_ZN4util2io3MMFIidE15DoLoadMmfMatrixEv+0xd9>
    754f:	c5 f9 6f 44 24 10    	vmovdqa 0x10(%rsp),%xmm0
    7555:	c5 f8 11 06          	vmovups %xmm0,(%rsi)
    7559:	48 83 c6 10          	add    $0x10,%rsi
    755d:	48 89 b3 28 02 00 00 	mov    %rsi,0x228(%rbx)
    7564:	41 83 c6 01          	add    $0x1,%r14d
    7568:	44 39 73 08          	cmp    %r14d,0x8(%rbx)
    756c:	7e 42                	jle    75b0 <_ZN4util2io3MMFIidE15DoLoadMmfMatrixEv+0x130>
    756e:	48 8d 55 04          	lea    0x4(%rbp),%rdx
    7572:	4c 89 e9             	mov    %r13,%rcx
    7575:	48 89 ee             	mov    %rbp,%rsi
    7578:	48 89 df             	mov    %rbx,%rdi
    757b:	e8 00 e7 ff ff       	callq  5c80 <_ZN4util2io3MMFIidE7GetNextERiS3_Rd>
    7580:	84 c0                	test   %al,%al
    7582:	0f 84 10 03 00 00    	je     7898 <_ZN4util2io3MMFIidE15DoLoadMmfMatrixEv+0x418>
    7588:	48 8b b3 28 02 00 00 	mov    0x228(%rbx),%rsi
    758f:	48 3b b3 30 02 00 00 	cmp    0x230(%rbx),%rsi
    7596:	0f 85 6c ff ff ff    	jne    7508 <_ZN4util2io3MMFIidE15DoLoadMmfMatrixEv+0x88>
    759c:	48 89 ea             	mov    %rbp,%rdx
    759f:	4c 89 e7             	mov    %r12,%rdi
    75a2:	e8 f9 ea ff ff       	callq  60a0 <_ZNSt6vectorIN4util2io4ElemIidEESaIS3_EE17_M_realloc_insertIJRKS3_EEEvN9__gnu_cxx17__normal_iteratorIPS3_S5_EEDpOT_>
    75a7:	e9 76 ff ff ff       	jmpq   7522 <_ZN4util2io3MMFIidE15DoLoadMmfMatrixEv+0xa2>
    75ac:	0f 1f 40 00          	nopl   0x0(%rax)
    75b0:	48 8b ab 20 02 00 00 	mov    0x220(%rbx),%rbp
    75b7:	4c 8b a3 28 02 00 00 	mov    0x228(%rbx),%r12
    75be:	49 39 ec             	cmp    %rbp,%r12
    75c1:	0f 84 96 00 00 00    	je     765d <_ZN4util2io3MMFIidE15DoLoadMmfMatrixEv+0x1dd>
    75c7:	4c 89 e3             	mov    %r12,%rbx
    75ca:	48 83 ec 08          	sub    $0x8,%rsp
    75ce:	48 89 ef             	mov    %rbp,%rdi
    75d1:	4c 89 e6             	mov    %r12,%rsi
    75d4:	48 29 eb             	sub    %rbp,%rbx
    75d7:	6a 00                	pushq  $0x0
    75d9:	48 89 da             	mov    %rbx,%rdx
    75dc:	48 c1 fa 04          	sar    $0x4,%rdx
    75e0:	48 0f bd d2          	bsr    %rdx,%rdx
    75e4:	48 01 d2             	add    %rdx,%rdx
    75e7:	e8 b4 fc ff ff       	callq  72a0 <_ZSt16__introsort_loopIN9__gnu_cxx17__normal_iteratorIPN4util2io4ElemIidEESt6vectorIS5_SaIS5_EEEElNS0_5__ops15_Iter_comp_iterINS3_10ElemSorterIidEEEEEvT_SG_T0_T1_>
    75ec:	5f                   	pop    %rdi
    75ed:	41 58                	pop    %r8
    75ef:	48 81 fb 00 01 00 00 	cmp    $0x100,%rbx
    75f6:	0f 8e 34 01 00 00    	jle    7730 <_ZN4util2io3MMFIidE15DoLoadMmfMatrixEv+0x2b0>
    75fc:	48 83 ec 08          	sub    $0x8,%rsp
    7600:	48 8d 9d 00 01 00 00 	lea    0x100(%rbp),%rbx
    7607:	48 89 ef             	mov    %rbp,%rdi
    760a:	6a 00                	pushq  $0x0
    760c:	48 89 de             	mov    %rbx,%rsi
    760f:	e8 ac ec ff ff       	callq  62c0 <_ZSt16__insertion_sortIN9__gnu_cxx17__normal_iteratorIPN4util2io4ElemIidEESt6vectorIS5_SaIS5_EEEENS0_5__ops15_Iter_comp_iterINS3_10ElemSorterIidEEEEEvT_SG_T0_>
    7614:	59                   	pop    %rcx
    7615:	5e                   	pop    %rsi
    7616:	49 39 dc             	cmp    %rbx,%r12
    7619:	74 42                	je     765d <_ZN4util2io3MMFIidE15DoLoadMmfMatrixEv+0x1dd>
    761b:	48 89 df             	mov    %rbx,%rdi
    761e:	66 90                	xchg   %ax,%ax
    7620:	8b 17                	mov    (%rdi),%edx
    7622:	8b 4f 04             	mov    0x4(%rdi),%ecx
    7625:	48 89 f8             	mov    %rdi,%rax
    7628:	c5 fb 10 4f 08       	vmovsd 0x8(%rdi),%xmm1
    762d:	eb 14                	jmp    7643 <_ZN4util2io3MMFIidE15DoLoadMmfMatrixEv+0x1c3>
    762f:	90                   	nop
    7630:	3b 48 f4             	cmp    -0xc(%rax),%ecx
    7633:	7d 15                	jge    764a <_ZN4util2io3MMFIidE15DoLoadMmfMatrixEv+0x1ca>
    7635:	c5 fa 6f 40 f0       	vmovdqu -0x10(%rax),%xmm0
    763a:	48 83 e8 10          	sub    $0x10,%rax
    763e:	c5 f8 11 40 10       	vmovups %xmm0,0x10(%rax)
    7643:	3b 50 f0             	cmp    -0x10(%rax),%edx
    7646:	7c ed                	jl     7635 <_ZN4util2io3MMFIidE15DoLoadMmfMatrixEv+0x1b5>
    7648:	7e e6                	jle    7630 <_ZN4util2io3MMFIidE15DoLoadMmfMatrixEv+0x1b0>
    764a:	48 83 c7 10          	add    $0x10,%rdi
    764e:	89 10                	mov    %edx,(%rax)
    7650:	89 48 04             	mov    %ecx,0x4(%rax)
    7653:	c5 fb 11 48 08       	vmovsd %xmm1,0x8(%rax)
    7658:	4c 39 e7             	cmp    %r12,%rdi
    765b:	75 c3                	jne    7620 <_ZN4util2io3MMFIidE15DoLoadMmfMatrixEv+0x1a0>
    765d:	48 8b 44 24 28       	mov    0x28(%rsp),%rax
    7662:	64 48 33 04 25 28 00 	xor    %fs:0x28,%rax
    7669:	00 00 
    766b:	0f 85 55 02 00 00    	jne    78c6 <_ZN4util2io3MMFIidE15DoLoadMmfMatrixEv+0x446>
    7671:	48 83 c4 38          	add    $0x38,%rsp
    7675:	5b                   	pop    %rbx
    7676:	5d                   	pop    %rbp
    7677:	41 5c                	pop    %r12
    7679:	41 5d                	pop    %r13
    767b:	41 5e                	pop    %r14
    767d:	41 5f                	pop    %r15
    767f:	c3                   	retq   
    7680:	48 ba ff ff ff ff ff 	movabs $0xfffffffffffffff,%rdx
    7687:	ff ff 0f 
    768a:	48 63 c8             	movslq %eax,%rcx
    768d:	48 39 d1             	cmp    %rdx,%rcx
    7690:	0f 87 24 02 00 00    	ja     78ba <_ZN4util2io3MMFIidE15DoLoadMmfMatrixEv+0x43a>
    7696:	48 8b af 20 02 00 00 	mov    0x220(%rdi),%rbp
    769d:	48 8b 97 30 02 00 00 	mov    0x230(%rdi),%rdx
    76a4:	48 29 ea             	sub    %rbp,%rdx
    76a7:	48 c1 fa 04          	sar    $0x4,%rdx
    76ab:	48 39 d1             	cmp    %rdx,%rcx
    76ae:	0f 87 ac 00 00 00    	ja     7760 <_ZN4util2io3MMFIidE15DoLoadMmfMatrixEv+0x2e0>
    76b4:	85 c0                	test   %eax,%eax
    76b6:	0f 8e fb fe ff ff    	jle    75b7 <_ZN4util2io3MMFIidE15DoLoadMmfMatrixEv+0x137>
    76bc:	48 8d 6c 24 10       	lea    0x10(%rsp),%rbp
    76c1:	45 31 f6             	xor    %r14d,%r14d
    76c4:	4c 8d 6d 08          	lea    0x8(%rbp),%r13
    76c8:	eb 2e                	jmp    76f8 <_ZN4util2io3MMFIidE15DoLoadMmfMatrixEv+0x278>
    76ca:	66 0f 1f 44 00 00    	nopw   0x0(%rax,%rax,1)
    76d0:	48 85 f6             	test   %rsi,%rsi
    76d3:	74 0a                	je     76df <_ZN4util2io3MMFIidE15DoLoadMmfMatrixEv+0x25f>
    76d5:	c5 f9 6f 44 24 10    	vmovdqa 0x10(%rsp),%xmm0
    76db:	c5 f8 11 06          	vmovups %xmm0,(%rsi)
    76df:	48 83 c6 10          	add    $0x10,%rsi
    76e3:	48 89 b3 28 02 00 00 	mov    %rsi,0x228(%rbx)
    76ea:	41 83 c6 01          	add    $0x1,%r14d
    76ee:	44 39 73 08          	cmp    %r14d,0x8(%rbx)
    76f2:	0f 8e b8 fe ff ff    	jle    75b0 <_ZN4util2io3MMFIidE15DoLoadMmfMatrixEv+0x130>
    76f8:	48 8d 55 04          	lea    0x4(%rbp),%rdx
    76fc:	4c 89 e9             	mov    %r13,%rcx
    76ff:	48 89 ee             	mov    %rbp,%rsi
    7702:	48 89 df             	mov    %rbx,%rdi
    7705:	e8 76 e5 ff ff       	callq  5c80 <_ZN4util2io3MMFIidE7GetNextERiS3_Rd>
    770a:	84 c0                	test   %al,%al
    770c:	0f 84 86 01 00 00    	je     7898 <_ZN4util2io3MMFIidE15DoLoadMmfMatrixEv+0x418>
    7712:	48 8b b3 28 02 00 00 	mov    0x228(%rbx),%rsi
    7719:	48 3b b3 30 02 00 00 	cmp    0x230(%rbx),%rsi
    7720:	75 ae                	jne    76d0 <_ZN4util2io3MMFIidE15DoLoadMmfMatrixEv+0x250>
    7722:	48 89 ea             	mov    %rbp,%rdx
    7725:	4c 89 e7             	mov    %r12,%rdi
    7728:	e8 73 e9 ff ff       	callq  60a0 <_ZNSt6vectorIN4util2io4ElemIidEESaIS3_EE17_M_realloc_insertIJRKS3_EEEvN9__gnu_cxx17__normal_iteratorIPS3_S5_EEDpOT_>
    772d:	eb bb                	jmp    76ea <_ZN4util2io3MMFIidE15DoLoadMmfMatrixEv+0x26a>
    772f:	90                   	nop
    7730:	48 83 ec 08          	sub    $0x8,%rsp
    7734:	4c 89 e6             	mov    %r12,%rsi
    7737:	48 89 ef             	mov    %rbp,%rdi
    773a:	6a 00                	pushq  $0x0
    773c:	e8 7f eb ff ff       	callq  62c0 <_ZSt16__insertion_sortIN9__gnu_cxx17__normal_iteratorIPN4util2io4ElemIidEESt6vectorIS5_SaIS5_EEEENS0_5__ops15_Iter_comp_iterINS3_10ElemSorterIidEEEEEvT_SG_T0_>
    7741:	58                   	pop    %rax
    7742:	5a                   	pop    %rdx
    7743:	e9 15 ff ff ff       	jmpq   765d <_ZN4util2io3MMFIidE15DoLoadMmfMatrixEv+0x1dd>
    7748:	0f 1f 84 00 00 00 00 	nopl   0x0(%rax,%rax,1)
    774f:	00 
    7750:	48 89 ea             	mov    %rbp,%rdx
    7753:	4c 89 e7             	mov    %r12,%rdi
    7756:	e8 45 e9 ff ff       	callq  60a0 <_ZNSt6vectorIN4util2io4ElemIidEESaIS3_EE17_M_realloc_insertIJRKS3_EEEvN9__gnu_cxx17__normal_iteratorIPS3_S5_EEDpOT_>
    775b:	e9 04 fe ff ff       	jmpq   7564 <_ZN4util2io3MMFIidE15DoLoadMmfMatrixEv+0xe4>
    7760:	48 8b 97 28 02 00 00 	mov    0x228(%rdi),%rdx
    7767:	49 89 cd             	mov    %rcx,%r13
    776a:	49 c1 e5 04          	shl    $0x4,%r13
    776e:	49 89 d6             	mov    %rdx,%r14
    7771:	49 29 ee             	sub    %rbp,%r14
    7774:	48 85 c9             	test   %rcx,%rcx
    7777:	0f 84 08 01 00 00    	je     7885 <_ZN4util2io3MMFIidE15DoLoadMmfMatrixEv+0x405>
    777d:	4c 89 ef             	mov    %r13,%rdi
    7780:	48 89 54 24 08       	mov    %rdx,0x8(%rsp)
    7785:	e8 56 b6 ff ff       	callq  2de0 <_Znwm@plt>
    778a:	48 8b 8b 20 02 00 00 	mov    0x220(%rbx),%rcx
    7791:	48 8b 54 24 08       	mov    0x8(%rsp),%rdx
    7796:	49 89 c7             	mov    %rax,%r15
    7799:	48 39 d5             	cmp    %rdx,%rbp
    779c:	74 18                	je     77b6 <_ZN4util2io3MMFIidE15DoLoadMmfMatrixEv+0x336>
    779e:	4c 89 f2             	mov    %r14,%rdx
    77a1:	48 89 ee             	mov    %rbp,%rsi
    77a4:	4c 89 ff             	mov    %r15,%rdi
    77a7:	48 89 4c 24 08       	mov    %rcx,0x8(%rsp)
    77ac:	e8 af b7 ff ff       	callq  2f60 <memmove@plt>
    77b1:	48 8b 4c 24 08       	mov    0x8(%rsp),%rcx
    77b6:	48 85 c9             	test   %rcx,%rcx
    77b9:	74 08                	je     77c3 <_ZN4util2io3MMFIidE15DoLoadMmfMatrixEv+0x343>
    77bb:	48 89 cf             	mov    %rcx,%rdi
    77be:	e8 fd b5 ff ff       	callq  2dc0 <_ZdlPv@plt>
    77c3:	8b 43 08             	mov    0x8(%rbx),%eax
    77c6:	4d 01 fe             	add    %r15,%r14
    77c9:	4d 01 fd             	add    %r15,%r13
    77cc:	4c 89 bb 20 02 00 00 	mov    %r15,0x220(%rbx)
    77d3:	4c 89 b3 28 02 00 00 	mov    %r14,0x228(%rbx)
    77da:	4c 89 fd             	mov    %r15,%rbp
    77dd:	4c 89 ab 30 02 00 00 	mov    %r13,0x230(%rbx)
    77e4:	85 c0                	test   %eax,%eax
    77e6:	0f 8f d0 fe ff ff    	jg     76bc <_ZN4util2io3MMFIidE15DoLoadMmfMatrixEv+0x23c>
    77ec:	e9 c6 fd ff ff       	jmpq   75b7 <_ZN4util2io3MMFIidE15DoLoadMmfMatrixEv+0x137>
    77f1:	0f 1f 80 00 00 00 00 	nopl   0x0(%rax)
    77f8:	48 8b 97 28 02 00 00 	mov    0x228(%rdi),%rdx
    77ff:	49 89 cd             	mov    %rcx,%r13
    7802:	49 c1 e5 04          	shl    $0x4,%r13
    7806:	49 89 d6             	mov    %rdx,%r14
    7809:	49 29 ee             	sub    %rbp,%r14
    780c:	48 85 c9             	test   %rcx,%rcx
    780f:	74 7f                	je     7890 <_ZN4util2io3MMFIidE15DoLoadMmfMatrixEv+0x410>
    7811:	4c 89 ef             	mov    %r13,%rdi
    7814:	48 89 54 24 08       	mov    %rdx,0x8(%rsp)
    7819:	e8 c2 b5 ff ff       	callq  2de0 <_Znwm@plt>
    781e:	48 8b 8b 20 02 00 00 	mov    0x220(%rbx),%rcx
    7825:	48 8b 54 24 08       	mov    0x8(%rsp),%rdx
    782a:	49 89 c7             	mov    %rax,%r15
    782d:	48 39 d5             	cmp    %rdx,%rbp
    7830:	74 18                	je     784a <_ZN4util2io3MMFIidE15DoLoadMmfMatrixEv+0x3ca>
    7832:	4c 89 f2             	mov    %r14,%rdx
    7835:	48 89 ee             	mov    %rbp,%rsi
    7838:	4c 89 ff             	mov    %r15,%rdi
    783b:	48 89 4c 24 08       	mov    %rcx,0x8(%rsp)
    7840:	e8 1b b7 ff ff       	callq  2f60 <memmove@plt>
    7845:	48 8b 4c 24 08       	mov    0x8(%rsp),%rcx
    784a:	48 85 c9             	test   %rcx,%rcx
    784d:	74 08                	je     7857 <_ZN4util2io3MMFIidE15DoLoadMmfMatrixEv+0x3d7>
    784f:	48 89 cf             	mov    %rcx,%rdi
    7852:	e8 69 b5 ff ff       	callq  2dc0 <_ZdlPv@plt>
    7857:	8b 43 08             	mov    0x8(%rbx),%eax
    785a:	4d 01 fe             	add    %r15,%r14
    785d:	4d 01 fd             	add    %r15,%r13
    7860:	4c 89 bb 20 02 00 00 	mov    %r15,0x220(%rbx)
    7867:	4c 89 b3 28 02 00 00 	mov    %r14,0x228(%rbx)
    786e:	4c 89 fd             	mov    %r15,%rbp
    7871:	4c 89 ab 30 02 00 00 	mov    %r13,0x230(%rbx)
    7878:	85 c0                	test   %eax,%eax
    787a:	0f 8f 77 fc ff ff    	jg     74f7 <_ZN4util2io3MMFIidE15DoLoadMmfMatrixEv+0x77>
    7880:	e9 32 fd ff ff       	jmpq   75b7 <_ZN4util2io3MMFIidE15DoLoadMmfMatrixEv+0x137>
    7885:	48 89 e9             	mov    %rbp,%rcx
    7888:	45 31 ff             	xor    %r15d,%r15d
    788b:	e9 09 ff ff ff       	jmpq   7799 <_ZN4util2io3MMFIidE15DoLoadMmfMatrixEv+0x319>
    7890:	48 89 e9             	mov    %rbp,%rcx
    7893:	45 31 ff             	xor    %r15d,%r15d
    7896:	eb 95                	jmp    782d <_ZN4util2io3MMFIidE15DoLoadMmfMatrixEv+0x3ad>
    7898:	48 8d 3d 81 97 20 00 	lea    0x209781(%rip),%rdi        # 211020 <_ZSt4cout@@GLIBCXX_3.4>
    789f:	ba 27 00 00 00       	mov    $0x27,%edx
    78a4:	48 8d 35 45 50 00 00 	lea    0x5045(%rip),%rsi        # c8f0 <_IO_stdin_used+0x230>
    78ab:	e8 70 b5 ff ff       	callq  2e20 <_ZSt16__ostream_insertIcSt11char_traitsIcEERSt13basic_ostreamIT_T0_ES6_PKS3_l@plt>
    78b0:	bf 01 00 00 00       	mov    $0x1,%edi
    78b5:	e8 a6 b5 ff ff       	callq  2e60 <exit@plt>
    78ba:	48 8d 3d 1f 50 00 00 	lea    0x501f(%rip),%rdi        # c8e0 <_IO_stdin_used+0x220>
    78c1:	e8 0a b4 ff ff       	callq  2cd0 <_ZSt20__throw_length_errorPKc@plt>
    78c6:	e8 35 b5 ff ff       	callq  2e00 <__stack_chk_fail@plt>
    78cb:	0f 1f 44 00 00       	nopl   0x0(%rax,%rax,1)

00000000000078d0 <_ZN4util2io3MMFIidEC1ERKNSt7__cxx1112basic_stringIcSt11char_traitsIcESaIcEEE>:
    78d0:	55                   	push   %rbp
    78d1:	48 89 e5             	mov    %rsp,%rbp
    78d4:	41 57                	push   %r15
    78d6:	4c 8d bf 10 01 00 00 	lea    0x110(%rdi),%r15
    78dd:	41 56                	push   %r14
    78df:	41 55                	push   %r13
    78e1:	4c 8d 6f 10          	lea    0x10(%rdi),%r13
    78e5:	41 54                	push   %r12
    78e7:	41 52                	push   %r10
    78e9:	53                   	push   %rbx
    78ea:	48 89 fb             	mov    %rdi,%rbx
    78ed:	48 83 ec 30          	sub    $0x30,%rsp
    78f1:	48 c7 07 00 00 00 00 	movq   $0x0,(%rdi)
    78f8:	64 48 8b 04 25 28 00 	mov    %fs:0x28,%rax
    78ff:	00 00 
    7901:	48 89 45 c8          	mov    %rax,-0x38(%rbp)
    7905:	31 c0                	xor    %eax,%eax
    7907:	c7 47 08 00 00 00 00 	movl   $0x0,0x8(%rdi)
    790e:	4c 89 ff             	mov    %r15,%rdi
    7911:	48 89 75 a8          	mov    %rsi,-0x58(%rbp)
    7915:	e8 16 b3 ff ff       	callq  2c30 <_ZNSt8ios_baseC2Ev@plt>
    791a:	4c 8b 25 6f 90 20 00 	mov    0x20906f(%rip),%r12        # 210990 <_ZTTSt14basic_ifstreamIcSt11char_traitsIcEE@@GLIBCXX_3.4+0x8>
    7921:	c5 f9 ef c0          	vpxor  %xmm0,%xmm0,%xmm0
    7925:	31 f6                	xor    %esi,%esi
    7927:	48 8d 05 fa 8e 20 00 	lea    0x208efa(%rip),%rax        # 210828 <_ZTVSt9basic_iosIcSt11char_traitsIcEE@@GLIBCXX_3.4+0x10>
    792e:	c6 83 f0 01 00 00 00 	movb   $0x0,0x1f0(%rbx)
    7935:	48 8b 0d 5c 90 20 00 	mov    0x20905c(%rip),%rcx        # 210998 <_ZTTSt14basic_ifstreamIcSt11char_traitsIcEE@@GLIBCXX_3.4+0x10>
    793c:	c5 fe 7f 83 f8 01 00 	vmovdqu %ymm0,0x1f8(%rbx)
    7943:	00 
    7944:	48 89 83 10 01 00 00 	mov    %rax,0x110(%rbx)
    794b:	49 8b 44 24 e8       	mov    -0x18(%r12),%rax
    7950:	48 c7 83 e8 01 00 00 	movq   $0x0,0x1e8(%rbx)
    7957:	00 00 00 00 
    795b:	c6 83 f1 01 00 00 00 	movb   $0x0,0x1f1(%rbx)
    7962:	4c 89 63 10          	mov    %r12,0x10(%rbx)
    7966:	48 89 4c 03 10       	mov    %rcx,0x10(%rbx,%rax,1)
    796b:	48 c7 43 18 00 00 00 	movq   $0x0,0x18(%rbx)
    7972:	00 
    7973:	49 8b 7c 24 e8       	mov    -0x18(%r12),%rdi
    7978:	4c 01 ef             	add    %r13,%rdi
    797b:	c5 f8 77             	vzeroupper 
    797e:	e8 0d b5 ff ff       	callq  2e90 <_ZNSt9basic_iosIcSt11char_traitsIcEE4initEPSt15basic_streambufIcS1_E@plt>
    7983:	48 8d 05 46 8f 20 00 	lea    0x208f46(%rip),%rax        # 2108d0 <_ZTVSt14basic_ifstreamIcSt11char_traitsIcEE@@GLIBCXX_3.4+0x18>
    798a:	4c 8d 73 20          	lea    0x20(%rbx),%r14
    798e:	48 89 43 10          	mov    %rax,0x10(%rbx)
    7992:	48 83 c0 28          	add    $0x28,%rax
    7996:	4c 89 f7             	mov    %r14,%rdi
    7999:	48 89 83 10 01 00 00 	mov    %rax,0x110(%rbx)
    79a0:	e8 4b b4 ff ff       	callq  2df0 <_ZNSt13basic_filebufIcSt11char_traitsIcEEC1Ev@plt>
    79a5:	4c 89 f6             	mov    %r14,%rsi
    79a8:	4c 89 ff             	mov    %r15,%rdi
    79ab:	e8 e0 b4 ff ff       	callq  2e90 <_ZNSt9basic_iosIcSt11char_traitsIcEE4initEPSt15basic_streambufIcS1_E@plt>
    79b0:	48 8b 45 a8          	mov    -0x58(%rbp),%rax
    79b4:	ba 08 00 00 00       	mov    $0x8,%edx
    79b9:	4c 89 f7             	mov    %r14,%rdi
    79bc:	c6 83 18 02 00 00 00 	movb   $0x0,0x218(%rbx)
    79c3:	c6 83 19 02 00 00 01 	movb   $0x1,0x219(%rbx)
    79ca:	c6 83 1a 02 00 00 00 	movb   $0x0,0x21a(%rbx)
    79d1:	c7 83 1c 02 00 00 00 	movl   $0x0,0x21c(%rbx)
    79d8:	00 00 00 
    79db:	48 c7 83 20 02 00 00 	movq   $0x0,0x220(%rbx)
    79e2:	00 00 00 00 
    79e6:	48 c7 83 28 02 00 00 	movq   $0x0,0x228(%rbx)
    79ed:	00 00 00 00 
    79f1:	48 c7 83 30 02 00 00 	movq   $0x0,0x230(%rbx)
    79f8:	00 00 00 00 
    79fc:	48 8b 30             	mov    (%rax),%rsi
    79ff:	e8 8c b3 ff ff       	callq  2d90 <_ZNSt13basic_filebufIcSt11char_traitsIcEE4openEPKcSt13_Ios_Openmode@plt>
    7a04:	48 8b 53 10          	mov    0x10(%rbx),%rdx
    7a08:	48 8b 7a e8          	mov    -0x18(%rdx),%rdi
    7a0c:	4c 01 ef             	add    %r13,%rdi
    7a0f:	48 85 c0             	test   %rax,%rax
    7a12:	0f 84 d8 00 00 00    	je     7af0 <_ZN4util2io3MMFIidEC1ERKNSt7__cxx1112basic_stringIcSt11char_traitsIcESaIcEEE+0x220>
    7a18:	31 f6                	xor    %esi,%esi
    7a1a:	e8 91 b5 ff ff       	callq  2fb0 <_ZNSt9basic_iosIcSt11char_traitsIcEE5clearESt12_Ios_Iostate@plt>
    7a1f:	48 8d bb 88 00 00 00 	lea    0x88(%rbx),%rdi
    7a26:	e8 d5 b1 ff ff       	callq  2c00 <_ZNKSt12__basic_fileIcE7is_openEv@plt>
    7a2b:	84 c0                	test   %al,%al
    7a2d:	0f 84 d2 00 00 00    	je     7b05 <_ZN4util2io3MMFIidEC1ERKNSt7__cxx1112basic_stringIcSt11char_traitsIcESaIcEEE+0x235>
    7a33:	4c 8d 65 b0          	lea    -0x50(%rbp),%r12
    7a37:	c5 f9 ef c0          	vpxor  %xmm0,%xmm0,%xmm0
    7a3b:	4c 89 ef             	mov    %r13,%rdi
    7a3e:	48 c7 45 c0 00 00 00 	movq   $0x0,-0x40(%rbp)
    7a45:	00 
    7a46:	4c 89 e6             	mov    %r12,%rsi
    7a49:	c5 f8 29 45 b0       	vmovaps %xmm0,-0x50(%rbp)
    7a4e:	e8 7d c8 ff ff       	callq  42d0 <_ZN4util2io6DoReadERSt14basic_ifstreamIcSt11char_traitsIcEERSt6vectorINSt7__cxx1112basic_stringIcS3_SaIcEEESaISA_EE>
    7a53:	4c 89 e6             	mov    %r12,%rsi
    7a56:	48 89 df             	mov    %rbx,%rdi
    7a59:	e8 62 d5 ff ff       	callq  4fc0 <_ZN4util2io3MMFIidE18ParseMmfHeaderLineERSt6vectorINSt7__cxx1112basic_stringIcSt11char_traitsIcESaIcEEESaIS9_EE>
    7a5e:	4c 89 e6             	mov    %r12,%rsi
    7a61:	48 89 df             	mov    %rbx,%rdi
    7a64:	e8 97 e0 ff ff       	callq  5b00 <_ZN4util2io3MMFIidE16ParseMmfSizeLineERSt6vectorINSt7__cxx1112basic_stringIcSt11char_traitsIcESaIcEEESaIS9_EE>
    7a69:	80 bb 18 02 00 00 00 	cmpb   $0x0,0x218(%rbx)
    7a70:	75 09                	jne    7a7b <_ZN4util2io3MMFIidEC1ERKNSt7__cxx1112basic_stringIcSt11char_traitsIcESaIcEEE+0x1ab>
    7a72:	80 bb 19 02 00 00 00 	cmpb   $0x0,0x219(%rbx)
    7a79:	74 08                	je     7a83 <_ZN4util2io3MMFIidEC1ERKNSt7__cxx1112basic_stringIcSt11char_traitsIcESaIcEEE+0x1b3>
    7a7b:	48 89 df             	mov    %rbx,%rdi
    7a7e:	e8 fd f9 ff ff       	callq  7480 <_ZN4util2io3MMFIidE15DoLoadMmfMatrixEv>
    7a83:	4c 8b 65 b8          	mov    -0x48(%rbp),%r12
    7a87:	48 8b 5d b0          	mov    -0x50(%rbp),%rbx
    7a8b:	49 39 dc             	cmp    %rbx,%r12
    7a8e:	74 1e                	je     7aae <_ZN4util2io3MMFIidEC1ERKNSt7__cxx1112basic_stringIcSt11char_traitsIcESaIcEEE+0x1de>
    7a90:	48 8b 3b             	mov    (%rbx),%rdi
    7a93:	48 8d 43 10          	lea    0x10(%rbx),%rax
    7a97:	48 39 c7             	cmp    %rax,%rdi
    7a9a:	74 44                	je     7ae0 <_ZN4util2io3MMFIidEC1ERKNSt7__cxx1112basic_stringIcSt11char_traitsIcESaIcEEE+0x210>
    7a9c:	e8 1f b3 ff ff       	callq  2dc0 <_ZdlPv@plt>
    7aa1:	48 83 c3 20          	add    $0x20,%rbx
    7aa5:	49 39 dc             	cmp    %rbx,%r12
    7aa8:	75 e6                	jne    7a90 <_ZN4util2io3MMFIidEC1ERKNSt7__cxx1112basic_stringIcSt11char_traitsIcESaIcEEE+0x1c0>
    7aaa:	48 8b 5d b0          	mov    -0x50(%rbp),%rbx
    7aae:	48 85 db             	test   %rbx,%rbx
    7ab1:	74 08                	je     7abb <_ZN4util2io3MMFIidEC1ERKNSt7__cxx1112basic_stringIcSt11char_traitsIcESaIcEEE+0x1eb>
    7ab3:	48 89 df             	mov    %rbx,%rdi
    7ab6:	e8 05 b3 ff ff       	callq  2dc0 <_ZdlPv@plt>
    7abb:	48 8b 45 c8          	mov    -0x38(%rbp),%rax
    7abf:	64 48 33 04 25 28 00 	xor    %fs:0x28,%rax
    7ac6:	00 00 
    7ac8:	75 36                	jne    7b00 <_ZN4util2io3MMFIidEC1ERKNSt7__cxx1112basic_stringIcSt11char_traitsIcESaIcEEE+0x230>
    7aca:	48 83 c4 30          	add    $0x30,%rsp
    7ace:	5b                   	pop    %rbx
    7acf:	41 5a                	pop    %r10
    7ad1:	41 5c                	pop    %r12
    7ad3:	41 5d                	pop    %r13
    7ad5:	41 5e                	pop    %r14
    7ad7:	41 5f                	pop    %r15
    7ad9:	5d                   	pop    %rbp
    7ada:	c3                   	retq   
    7adb:	0f 1f 44 00 00       	nopl   0x0(%rax,%rax,1)
    7ae0:	48 83 c3 20          	add    $0x20,%rbx
    7ae4:	49 39 dc             	cmp    %rbx,%r12
    7ae7:	75 a7                	jne    7a90 <_ZN4util2io3MMFIidEC1ERKNSt7__cxx1112basic_stringIcSt11char_traitsIcESaIcEEE+0x1c0>
    7ae9:	eb bf                	jmp    7aaa <_ZN4util2io3MMFIidEC1ERKNSt7__cxx1112basic_stringIcSt11char_traitsIcESaIcEEE+0x1da>
    7aeb:	0f 1f 44 00 00       	nopl   0x0(%rax,%rax,1)
    7af0:	8b 77 20             	mov    0x20(%rdi),%esi
    7af3:	83 ce 04             	or     $0x4,%esi
    7af6:	e8 b5 b4 ff ff       	callq  2fb0 <_ZNSt9basic_iosIcSt11char_traitsIcEE5clearESt12_Ios_Iostate@plt>
    7afb:	e9 1f ff ff ff       	jmpq   7a1f <_ZN4util2io3MMFIidEC1ERKNSt7__cxx1112basic_stringIcSt11char_traitsIcESaIcEEE+0x14f>
    7b00:	e8 fb b2 ff ff       	callq  2e00 <__stack_chk_fail@plt>
    7b05:	bf 20 00 00 00       	mov    $0x20,%edi
    7b0a:	e8 a1 b1 ff ff       	callq  2cb0 <__cxa_allocate_exception@plt>
    7b0f:	49 89 c7             	mov    %rax,%r15
    7b12:	e8 89 b2 ff ff       	callq  2da0 <_ZSt17iostream_categoryv@plt>
    7b17:	48 8d 55 b0          	lea    -0x50(%rbp),%rdx
    7b1b:	4c 89 ff             	mov    %r15,%rdi
    7b1e:	48 8d 35 07 4d 00 00 	lea    0x4d07(%rip),%rsi        # c82c <_IO_stdin_used+0x16c>
    7b25:	c7 45 b0 01 00 00 00 	movl   $0x1,-0x50(%rbp)
    7b2c:	48 89 45 b8          	mov    %rax,-0x48(%rbp)
    7b30:	e8 1b b1 ff ff       	callq  2c50 <_ZNSt8ios_base7failureB5cxx11C1EPKcRKSt10error_code@plt>
    7b35:	48 8b 15 94 94 20 00 	mov    0x209494(%rip),%rdx        # 210fd0 <_ZNSt8ios_base7failureB5cxx11D1Ev@GLIBCXX_3.4.21>
    7b3c:	48 8d 35 bd 8c 20 00 	lea    0x208cbd(%rip),%rsi        # 210800 <_ZTINSt8ios_base7failureB5cxx11E@@GLIBCXX_3.4.21>
    7b43:	4c 89 ff             	mov    %r15,%rdi
    7b46:	e8 75 b4 ff ff       	callq  2fc0 <__cxa_throw@plt>
    7b4b:	49 89 c4             	mov    %rax,%r12
    7b4e:	c5 f8 77             	vzeroupper 
    7b51:	48 83 ea 01          	sub    $0x1,%rdx
    7b55:	75 46                	jne    7b9d <_ZN4util2io3MMFIidEC1ERKNSt7__cxx1112basic_stringIcSt11char_traitsIcESaIcEEE+0x2cd>
    7b57:	4c 89 e7             	mov    %r12,%rdi
    7b5a:	e8 21 b1 ff ff       	callq  2c80 <__cxa_begin_catch@plt>
    7b5f:	48 8d 35 b2 4d 00 00 	lea    0x4db2(%rip),%rsi        # c918 <_IO_stdin_used+0x258>
    7b66:	48 8d 3d b3 94 20 00 	lea    0x2094b3(%rip),%rdi        # 211020 <_ZSt4cout@@GLIBCXX_3.4>
    7b6d:	e8 5e b2 ff ff       	callq  2dd0 <_ZStlsISt11char_traitsIcEERSt13basic_ostreamIcT_ES5_PKc@plt>
    7b72:	bf 01 00 00 00       	mov    $0x1,%edi
    7b77:	e8 e4 b2 ff ff       	callq  2e60 <exit@plt>
    7b7c:	49 89 c4             	mov    %rax,%r12
    7b7f:	49 89 d6             	mov    %rdx,%r14
    7b82:	4c 89 ff             	mov    %r15,%rdi
    7b85:	c5 f8 77             	vzeroupper 
    7b88:	e8 a3 b1 ff ff       	callq  2d30 <__cxa_free_exception@plt>
    7b8d:	4c 89 f2             	mov    %r14,%rdx
    7b90:	eb bf                	jmp    7b51 <_ZN4util2io3MMFIidEC1ERKNSt7__cxx1112basic_stringIcSt11char_traitsIcESaIcEEE+0x281>
    7b92:	49 89 c4             	mov    %rax,%r12
    7b95:	c5 f8 77             	vzeroupper 
    7b98:	e8 d3 b3 ff ff       	callq  2f70 <__cxa_end_catch@plt>
    7b9d:	48 8b bb 20 02 00 00 	mov    0x220(%rbx),%rdi
    7ba4:	48 85 ff             	test   %rdi,%rdi
    7ba7:	74 05                	je     7bae <_ZN4util2io3MMFIidEC1ERKNSt7__cxx1112basic_stringIcSt11char_traitsIcESaIcEEE+0x2de>
    7ba9:	e8 12 b2 ff ff       	callq  2dc0 <_ZdlPv@plt>
    7bae:	4c 89 ef             	mov    %r13,%rdi
    7bb1:	e8 5a b0 ff ff       	callq  2c10 <_ZNSt14basic_ifstreamIcSt11char_traitsIcEED1Ev@plt>
    7bb6:	4c 89 e7             	mov    %r12,%rdi
    7bb9:	e8 32 b4 ff ff       	callq  2ff0 <_Unwind_Resume@plt>
    7bbe:	49 89 c5             	mov    %rax,%r13
    7bc1:	4c 89 f7             	mov    %r14,%rdi
    7bc4:	c5 f8 77             	vzeroupper 
    7bc7:	e8 54 b3 ff ff       	callq  2f20 <_ZNSt13basic_filebufIcSt11char_traitsIcEED1Ev@plt>
    7bcc:	4c 89 e8             	mov    %r13,%rax
    7bcf:	49 8b 54 24 e8       	mov    -0x18(%r12),%rdx
    7bd4:	48 8b 0d bd 8d 20 00 	mov    0x208dbd(%rip),%rcx        # 210998 <_ZTTSt14basic_ifstreamIcSt11char_traitsIcEE@@GLIBCXX_3.4+0x10>
    7bdb:	4c 89 63 10          	mov    %r12,0x10(%rbx)
    7bdf:	49 89 c4             	mov    %rax,%r12
    7be2:	48 89 4c 13 10       	mov    %rcx,0x10(%rbx,%rdx,1)
    7be7:	48 c7 43 18 00 00 00 	movq   $0x0,0x18(%rbx)
    7bee:	00 
    7bef:	48 8d 05 32 8c 20 00 	lea    0x208c32(%rip),%rax        # 210828 <_ZTVSt9basic_iosIcSt11char_traitsIcEE@@GLIBCXX_3.4+0x10>
    7bf6:	4c 89 ff             	mov    %r15,%rdi
    7bf9:	48 89 83 10 01 00 00 	mov    %rax,0x110(%rbx)
    7c00:	e8 3b b0 ff ff       	callq  2c40 <_ZNSt8ios_baseD2Ev@plt>
    7c05:	4c 89 e7             	mov    %r12,%rdi
    7c08:	e8 e3 b3 ff ff       	callq  2ff0 <_Unwind_Resume@plt>
    7c0d:	c5 f8 77             	vzeroupper 
    7c10:	eb bd                	jmp    7bcf <_ZN4util2io3MMFIidEC1ERKNSt7__cxx1112basic_stringIcSt11char_traitsIcESaIcEEE+0x2ff>
    7c12:	49 89 c6             	mov    %rax,%r14
    7c15:	4c 89 e7             	mov    %r12,%rdi
    7c18:	c5 f8 77             	vzeroupper 
    7c1b:	e8 70 d6 ff ff       	callq  5290 <_ZNSt6vectorINSt7__cxx1112basic_stringIcSt11char_traitsIcESaIcEEESaIS5_EED1Ev>
    7c20:	4d 89 f4             	mov    %r14,%r12
    7c23:	e9 75 ff ff ff       	jmpq   7b9d <_ZN4util2io3MMFIidEC1ERKNSt7__cxx1112basic_stringIcSt11char_traitsIcESaIcEEE+0x2cd>
    7c28:	49 89 c4             	mov    %rax,%r12
    7c2b:	c5 f8 77             	vzeroupper 
    7c2e:	eb bf                	jmp    7bef <_ZN4util2io3MMFIidEC1ERKNSt7__cxx1112basic_stringIcSt11char_traitsIcESaIcEEE+0x31f>

0000000000007c30 <_ZN4util7runtime11get_threadsEv>:
    7c30:	48 83 ec 08          	sub    $0x8,%rsp
    7c34:	48 8d 3d fd 4c 00 00 	lea    0x4cfd(%rip),%rdi        # c938 <_IO_stdin_used+0x278>
    7c3b:	e8 30 b2 ff ff       	callq  2e70 <getenv@plt>
    7c40:	48 85 c0             	test   %rax,%rax
    7c43:	74 1b                	je     7c60 <_ZN4util7runtime11get_threadsEv+0x30>
    7c45:	31 f6                	xor    %esi,%esi
    7c47:	ba 0a 00 00 00       	mov    $0xa,%edx
    7c4c:	48 89 c7             	mov    %rax,%rdi
    7c4f:	e8 5c b2 ff ff       	callq  2eb0 <strtol@plt>
    7c54:	85 c0                	test   %eax,%eax
    7c56:	78 08                	js     7c60 <_ZN4util7runtime11get_threadsEv+0x30>
    7c58:	48 98                	cltq   
    7c5a:	48 83 c4 08          	add    $0x8,%rsp
    7c5e:	c3                   	retq   
    7c5f:	90                   	nop
    7c60:	b8 01 00 00 00       	mov    $0x1,%eax
    7c65:	48 83 c4 08          	add    $0x8,%rsp
    7c69:	c3                   	retq   
    7c6a:	66 0f 1f 44 00 00    	nopw   0x0(%rax,%rax,1)

0000000000007c70 <_ZN4util7runtime17setaffinity_oncpuEj>:
    7c70:	48 81 ec 98 00 00 00 	sub    $0x98,%rsp
    7c77:	89 fe                	mov    %edi,%esi
    7c79:	b9 10 00 00 00       	mov    $0x10,%ecx
    7c7e:	64 48 8b 04 25 28 00 	mov    %fs:0x28,%rax
    7c85:	00 00 
    7c87:	48 89 84 24 88 00 00 	mov    %rax,0x88(%rsp)
    7c8e:	00 
    7c8f:	31 c0                	xor    %eax,%eax
    7c91:	48 89 e2             	mov    %rsp,%rdx
    7c94:	48 89 d7             	mov    %rdx,%rdi
    7c97:	f3 48 ab             	rep stos %rax,%es:(%rdi)
    7c9a:	89 f0                	mov    %esi,%eax
    7c9c:	48 3d ff 03 00 00    	cmp    $0x3ff,%rax
    7ca2:	77 12                	ja     7cb6 <_ZN4util7runtime17setaffinity_oncpuEj+0x46>
    7ca4:	48 c1 e8 06          	shr    $0x6,%rax
    7ca8:	b9 01 00 00 00       	mov    $0x1,%ecx
    7cad:	c4 e2 c9 f7 f1       	shlx   %rsi,%rcx,%rsi
    7cb2:	48 09 34 c2          	or     %rsi,(%rdx,%rax,8)
    7cb6:	31 ff                	xor    %edi,%edi
    7cb8:	be 80 00 00 00       	mov    $0x80,%esi
    7cbd:	e8 9e b0 ff ff       	callq  2d60 <sched_setaffinity@plt>
    7cc2:	85 c0                	test   %eax,%eax
    7cc4:	75 1b                	jne    7ce1 <_ZN4util7runtime17setaffinity_oncpuEj+0x71>
    7cc6:	48 8b 84 24 88 00 00 	mov    0x88(%rsp),%rax
    7ccd:	00 
    7cce:	64 48 33 04 25 28 00 	xor    %fs:0x28,%rax
    7cd5:	00 00 
    7cd7:	75 36                	jne    7d0f <_ZN4util7runtime17setaffinity_oncpuEj+0x9f>
    7cd9:	48 81 c4 98 00 00 00 	add    $0x98,%rsp
    7ce0:	c3                   	retq   
    7ce1:	ba 1a 00 00 00       	mov    $0x1a,%edx
    7ce6:	48 8d 35 5b 4c 00 00 	lea    0x4c5b(%rip),%rsi        # c948 <_IO_stdin_used+0x288>
    7ced:	48 8d 3d 2c 93 20 00 	lea    0x20932c(%rip),%rdi        # 211020 <_ZSt4cout@@GLIBCXX_3.4>
    7cf4:	e8 27 b1 ff ff       	callq  2e20 <_ZSt16__ostream_insertIcSt11char_traitsIcEERSt13basic_ostreamIT_T0_ES6_PKS3_l@plt>
    7cf9:	48 8d 3d 20 93 20 00 	lea    0x209320(%rip),%rdi        # 211020 <_ZSt4cout@@GLIBCXX_3.4>
    7d00:	e8 9b af ff ff       	callq  2ca0 <_ZSt4endlIcSt11char_traitsIcEERSt13basic_ostreamIT_T0_ES6_@plt>
    7d05:	bf 01 00 00 00       	mov    $0x1,%edi
    7d0a:	e8 51 b1 ff ff       	callq  2e60 <exit@plt>
    7d0f:	e8 ec b0 ff ff       	callq  2e00 <__stack_chk_fail@plt>
    7d14:	66 2e 0f 1f 84 00 00 	nopw   %cs:0x0(%rax,%rax,1)
    7d1b:	00 00 00 
    7d1e:	66 90                	xchg   %ax,%ax

0000000000007d20 <_ZNK6matrix6sparse9COOMatrixIifE5nrowsEv>:
    7d20:	8b 47 10             	mov    0x10(%rdi),%eax
    7d23:	c3                   	retq   
    7d24:	66 2e 0f 1f 84 00 00 	nopw   %cs:0x0(%rax,%rax,1)
    7d2b:	00 00 00 
    7d2e:	66 90                	xchg   %ax,%ax

0000000000007d30 <_ZNK6matrix6sparse9COOMatrixIifE5ncolsEv>:
    7d30:	8b 47 14             	mov    0x14(%rdi),%eax
    7d33:	c3                   	retq   
    7d34:	66 2e 0f 1f 84 00 00 	nopw   %cs:0x0(%rax,%rax,1)
    7d3b:	00 00 00 
    7d3e:	66 90                	xchg   %ax,%ax

0000000000007d40 <_ZNK6matrix6sparse9COOMatrixIifE3nnzEv>:
    7d40:	8b 47 18             	mov    0x18(%rdi),%eax
    7d43:	c3                   	retq   
    7d44:	66 2e 0f 1f 84 00 00 	nopw   %cs:0x0(%rax,%rax,1)
    7d4b:	00 00 00 
    7d4e:	66 90                	xchg   %ax,%ax

0000000000007d50 <_ZNK6matrix6sparse9COOMatrixIifE4sizeEv>:
    7d50:	48 63 47 18          	movslq 0x18(%rdi),%rax
    7d54:	48 8d 14 c5 00 00 00 	lea    0x0(,%rax,8),%rdx
    7d5b:	00 
    7d5c:	48 8d 04 82          	lea    (%rdx,%rax,4),%rax
    7d60:	c3                   	retq   
    7d61:	66 2e 0f 1f 84 00 00 	nopw   %cs:0x0(%rax,%rax,1)
    7d68:	00 00 00 
    7d6b:	0f 1f 44 00 00       	nopl   0x0(%rax,%rax,1)

0000000000007d70 <_ZNK6matrix6sparse9COOMatrixIifE8platformEv>:
    7d70:	8b 47 08             	mov    0x8(%rdi),%eax
    7d73:	c3                   	retq   
    7d74:	66 2e 0f 1f 84 00 00 	nopw   %cs:0x0(%rax,%rax,1)
    7d7b:	00 00 00 
    7d7e:	66 90                	xchg   %ax,%ax

0000000000007d80 <_ZNK6matrix6sparse9COOMatrixIidE5nrowsEv>:
    7d80:	8b 47 10             	mov    0x10(%rdi),%eax
    7d83:	c3                   	retq   
    7d84:	66 2e 0f 1f 84 00 00 	nopw   %cs:0x0(%rax,%rax,1)
    7d8b:	00 00 00 
    7d8e:	66 90                	xchg   %ax,%ax

0000000000007d90 <_ZNK6matrix6sparse9COOMatrixIidE5ncolsEv>:
    7d90:	8b 47 14             	mov    0x14(%rdi),%eax
    7d93:	c3                   	retq   
    7d94:	66 2e 0f 1f 84 00 00 	nopw   %cs:0x0(%rax,%rax,1)
    7d9b:	00 00 00 
    7d9e:	66 90                	xchg   %ax,%ax

0000000000007da0 <_ZNK6matrix6sparse9COOMatrixIidE3nnzEv>:
    7da0:	8b 47 18             	mov    0x18(%rdi),%eax
    7da3:	c3                   	retq   
    7da4:	66 2e 0f 1f 84 00 00 	nopw   %cs:0x0(%rax,%rax,1)
    7dab:	00 00 00 
    7dae:	66 90                	xchg   %ax,%ax

0000000000007db0 <_ZNK6matrix6sparse9COOMatrixIidE4sizeEv>:
    7db0:	48 63 47 18          	movslq 0x18(%rdi),%rax
    7db4:	48 c1 e0 04          	shl    $0x4,%rax
    7db8:	c3                   	retq   
    7db9:	0f 1f 80 00 00 00 00 	nopl   0x0(%rax)

0000000000007dc0 <_ZNK6matrix6sparse9COOMatrixIidE8platformEv>:
    7dc0:	8b 47 08             	mov    0x8(%rdi),%eax
    7dc3:	c3                   	retq   
    7dc4:	66 2e 0f 1f 84 00 00 	nopw   %cs:0x0(%rax,%rax,1)
    7dcb:	00 00 00 
    7dce:	66 90                	xchg   %ax,%ax

0000000000007dd0 <_ZN6matrix6sparse9COOMatrixIifE4tuneEN4util6KernelENS3_6TuningE>:
    7dd0:	53                   	push   %rbx
    7dd1:	48 89 fb             	mov    %rdi,%rbx
    7dd4:	bf 18 00 00 00       	mov    $0x18,%edi
    7dd9:	48 83 ec 30          	sub    $0x30,%rsp
    7ddd:	64 48 8b 04 25 28 00 	mov    %fs:0x28,%rax
    7de4:	00 00 
    7de6:	48 89 44 24 28       	mov    %rax,0x28(%rsp)
    7deb:	31 c0                	xor    %eax,%eax
    7ded:	48 c7 44 24 10 00 00 	movq   $0x0,0x10(%rsp)
    7df4:	00 00 
    7df6:	e8 e5 af ff ff       	callq  2de0 <_Znwm@plt>
    7dfb:	48 8d 0d ee 03 00 00 	lea    0x3ee(%rip),%rcx        # 81f0 <_ZN6matrix6sparse9COOMatrixIifE14cpu_mv_vanillaEPfPKf>
    7e02:	48 89 04 24          	mov    %rax,(%rsp)
    7e06:	48 8b 53 50          	mov    0x50(%rbx),%rdx
    7e0a:	48 8d 35 7f 05 00 00 	lea    0x57f(%rip),%rsi        # 8390 <_ZNSt14_Function_base13_Base_managerISt5_BindIFMN6matrix6sparse9COOMatrixIifEEFvPfPKfEPS5_St12_PlaceholderILi1EESC_ILi2EEEEE10_M_managerERSt9_Any_dataRKSI_St18_Manager_operation>
    7e11:	c5 f9 6f 04 24       	vmovdqa (%rsp),%xmm0
    7e16:	c5 fa 6f 4b 38       	vmovdqu 0x38(%rbx),%xmm1
    7e1b:	48 89 08             	mov    %rcx,(%rax)
    7e1e:	48 8d 0d 6b 06 00 00 	lea    0x66b(%rip),%rcx        # 8490 <_ZNSt17_Function_handlerIFvPfPKfESt5_BindIFMN6matrix6sparse9COOMatrixIifEEFvS0_S2_EPS8_St12_PlaceholderILi1EESC_ILi2EEEEE9_M_invokeERKSt9_Any_dataOS0_OS2_>
    7e25:	48 c7 40 08 00 00 00 	movq   $0x0,0x8(%rax)
    7e2c:	00 
    7e2d:	48 89 58 10          	mov    %rbx,0x10(%rax)
    7e31:	48 8b 43 48          	mov    0x48(%rbx),%rax
    7e35:	c5 f8 29 0c 24       	vmovaps %xmm1,(%rsp)
    7e3a:	c5 f8 11 43 38       	vmovups %xmm0,0x38(%rbx)
    7e3f:	48 89 44 24 10       	mov    %rax,0x10(%rsp)
    7e44:	48 89 73 48          	mov    %rsi,0x48(%rbx)
    7e48:	48 89 54 24 18       	mov    %rdx,0x18(%rsp)
    7e4d:	48 89 4b 50          	mov    %rcx,0x50(%rbx)
    7e51:	48 85 c0             	test   %rax,%rax
    7e54:	74 0d                	je     7e63 <_ZN6matrix6sparse9COOMatrixIifE4tuneEN4util6KernelENS3_6TuningE+0x93>
    7e56:	48 89 e7             	mov    %rsp,%rdi
    7e59:	ba 03 00 00 00       	mov    $0x3,%edx
    7e5e:	48 89 fe             	mov    %rdi,%rsi
    7e61:	ff d0                	callq  *%rax
    7e63:	31 c0                	xor    %eax,%eax
    7e65:	48 8b 54 24 28       	mov    0x28(%rsp),%rdx
    7e6a:	64 48 33 14 25 28 00 	xor    %fs:0x28,%rdx
    7e71:	00 00 
    7e73:	75 06                	jne    7e7b <_ZN6matrix6sparse9COOMatrixIifE4tuneEN4util6KernelENS3_6TuningE+0xab>
    7e75:	48 83 c4 30          	add    $0x30,%rsp
    7e79:	5b                   	pop    %rbx
    7e7a:	c3                   	retq   
    7e7b:	e8 80 af ff ff       	callq  2e00 <__stack_chk_fail@plt>
    7e80:	48 89 c3             	mov    %rax,%rbx
    7e83:	48 8b 44 24 10       	mov    0x10(%rsp),%rax
    7e88:	48 85 c0             	test   %rax,%rax
    7e8b:	74 18                	je     7ea5 <_ZN6matrix6sparse9COOMatrixIifE4tuneEN4util6KernelENS3_6TuningE+0xd5>
    7e8d:	48 89 e7             	mov    %rsp,%rdi
    7e90:	ba 03 00 00 00       	mov    $0x3,%edx
    7e95:	48 89 fe             	mov    %rdi,%rsi
    7e98:	c5 f8 77             	vzeroupper 
    7e9b:	ff d0                	callq  *%rax
    7e9d:	48 89 df             	mov    %rbx,%rdi
    7ea0:	e8 4b b1 ff ff       	callq  2ff0 <_Unwind_Resume@plt>
    7ea5:	c5 f8 77             	vzeroupper 
    7ea8:	eb f3                	jmp    7e9d <_ZN6matrix6sparse9COOMatrixIifE4tuneEN4util6KernelENS3_6TuningE+0xcd>
    7eaa:	66 0f 1f 44 00 00    	nopw   0x0(%rax,%rax,1)

0000000000007eb0 <_ZN6matrix6sparse9COOMatrixIidE4tuneEN4util6KernelENS3_6TuningE>:
    7eb0:	53                   	push   %rbx
    7eb1:	48 89 fb             	mov    %rdi,%rbx
    7eb4:	bf 18 00 00 00       	mov    $0x18,%edi
    7eb9:	48 83 ec 30          	sub    $0x30,%rsp
    7ebd:	64 48 8b 04 25 28 00 	mov    %fs:0x28,%rax
    7ec4:	00 00 
    7ec6:	48 89 44 24 28       	mov    %rax,0x28(%rsp)
    7ecb:	31 c0                	xor    %eax,%eax
    7ecd:	48 c7 44 24 10 00 00 	movq   $0x0,0x10(%rsp)
    7ed4:	00 00 
    7ed6:	e8 05 af ff ff       	callq  2de0 <_Znwm@plt>
    7edb:	48 8d 0d 8e 03 00 00 	lea    0x38e(%rip),%rcx        # 8270 <_ZN6matrix6sparse9COOMatrixIidE14cpu_mv_vanillaEPdPKd>
    7ee2:	48 89 04 24          	mov    %rax,(%rsp)
    7ee6:	48 8b 53 50          	mov    0x50(%rbx),%rdx
    7eea:	48 8d 35 1f 05 00 00 	lea    0x51f(%rip),%rsi        # 8410 <_ZNSt14_Function_base13_Base_managerISt5_BindIFMN6matrix6sparse9COOMatrixIidEEFvPdPKdEPS5_St12_PlaceholderILi1EESC_ILi2EEEEE10_M_managerERSt9_Any_dataRKSI_St18_Manager_operation>
    7ef1:	c5 f9 6f 04 24       	vmovdqa (%rsp),%xmm0
    7ef6:	c5 fa 6f 4b 38       	vmovdqu 0x38(%rbx),%xmm1
    7efb:	48 89 08             	mov    %rcx,(%rax)
    7efe:	48 8d 0d bb 05 00 00 	lea    0x5bb(%rip),%rcx        # 84c0 <_ZNSt17_Function_handlerIFvPdPKdESt5_BindIFMN6matrix6sparse9COOMatrixIidEEFvS0_S2_EPS8_St12_PlaceholderILi1EESC_ILi2EEEEE9_M_invokeERKSt9_Any_dataOS0_OS2_>
    7f05:	48 c7 40 08 00 00 00 	movq   $0x0,0x8(%rax)
    7f0c:	00 
    7f0d:	48 89 58 10          	mov    %rbx,0x10(%rax)
    7f11:	48 8b 43 48          	mov    0x48(%rbx),%rax
    7f15:	c5 f8 29 0c 24       	vmovaps %xmm1,(%rsp)
    7f1a:	c5 f8 11 43 38       	vmovups %xmm0,0x38(%rbx)
    7f1f:	48 89 44 24 10       	mov    %rax,0x10(%rsp)
    7f24:	48 89 73 48          	mov    %rsi,0x48(%rbx)
    7f28:	48 89 54 24 18       	mov    %rdx,0x18(%rsp)
    7f2d:	48 89 4b 50          	mov    %rcx,0x50(%rbx)
    7f31:	48 85 c0             	test   %rax,%rax
    7f34:	74 0d                	je     7f43 <_ZN6matrix6sparse9COOMatrixIidE4tuneEN4util6KernelENS3_6TuningE+0x93>
    7f36:	48 89 e7             	mov    %rsp,%rdi
    7f39:	ba 03 00 00 00       	mov    $0x3,%edx
    7f3e:	48 89 fe             	mov    %rdi,%rsi
    7f41:	ff d0                	callq  *%rax
    7f43:	31 c0                	xor    %eax,%eax
    7f45:	48 8b 54 24 28       	mov    0x28(%rsp),%rdx
    7f4a:	64 48 33 14 25 28 00 	xor    %fs:0x28,%rdx
    7f51:	00 00 
    7f53:	75 06                	jne    7f5b <_ZN6matrix6sparse9COOMatrixIidE4tuneEN4util6KernelENS3_6TuningE+0xab>
    7f55:	48 83 c4 30          	add    $0x30,%rsp
    7f59:	5b                   	pop    %rbx
    7f5a:	c3                   	retq   
    7f5b:	e8 a0 ae ff ff       	callq  2e00 <__stack_chk_fail@plt>
    7f60:	48 89 c3             	mov    %rax,%rbx
    7f63:	48 8b 44 24 10       	mov    0x10(%rsp),%rax
    7f68:	48 85 c0             	test   %rax,%rax
    7f6b:	74 18                	je     7f85 <_ZN6matrix6sparse9COOMatrixIidE4tuneEN4util6KernelENS3_6TuningE+0xd5>
    7f6d:	48 89 e7             	mov    %rsp,%rdi
    7f70:	ba 03 00 00 00       	mov    $0x3,%edx
    7f75:	48 89 fe             	mov    %rdi,%rsi
    7f78:	c5 f8 77             	vzeroupper 
    7f7b:	ff d0                	callq  *%rax
    7f7d:	48 89 df             	mov    %rbx,%rdi
    7f80:	e8 6b b0 ff ff       	callq  2ff0 <_Unwind_Resume@plt>
    7f85:	c5 f8 77             	vzeroupper 
    7f88:	eb f3                	jmp    7f7d <_ZN6matrix6sparse9COOMatrixIidE4tuneEN4util6KernelENS3_6TuningE+0xcd>
    7f8a:	66 0f 1f 44 00 00    	nopw   0x0(%rax,%rax,1)

0000000000007f90 <_ZN6matrix6sparse9COOMatrixIifED1Ev>:
    7f90:	53                   	push   %rbx
    7f91:	48 8d 05 18 87 20 00 	lea    0x208718(%rip),%rax        # 2106b0 <_ZTVN6matrix6sparse9COOMatrixIifEE+0x10>
    7f98:	80 7f 1c 00          	cmpb   $0x0,0x1c(%rdi)
    7f9c:	48 89 fb             	mov    %rdi,%rbx
    7f9f:	48 89 07             	mov    %rax,(%rdi)
    7fa2:	75 34                	jne    7fd8 <_ZN6matrix6sparse9COOMatrixIifED1Ev+0x48>
    7fa4:	48 c7 47 20 00 00 00 	movq   $0x0,0x20(%rdi)
    7fab:	00 
    7fac:	48 c7 47 28 00 00 00 	movq   $0x0,0x28(%rdi)
    7fb3:	00 
    7fb4:	48 c7 47 30 00 00 00 	movq   $0x0,0x30(%rdi)
    7fbb:	00 
    7fbc:	48 8b 43 48          	mov    0x48(%rbx),%rax
    7fc0:	48 85 c0             	test   %rax,%rax
    7fc3:	74 3b                	je     8000 <_ZN6matrix6sparse9COOMatrixIifED1Ev+0x70>
    7fc5:	48 8d 7b 38          	lea    0x38(%rbx),%rdi
    7fc9:	ba 03 00 00 00       	mov    $0x3,%edx
    7fce:	5b                   	pop    %rbx
    7fcf:	48 89 fe             	mov    %rdi,%rsi
    7fd2:	ff e0                	jmpq   *%rax
    7fd4:	0f 1f 40 00          	nopl   0x0(%rax)
    7fd8:	8b 77 08             	mov    0x8(%rdi),%esi
    7fdb:	48 8b 7f 20          	mov    0x20(%rdi),%rdi
    7fdf:	e8 cc 37 00 00       	callq  b7b0 <_ZN4util13internal_freeEPvNS_8PlatformE>
    7fe4:	8b 73 08             	mov    0x8(%rbx),%esi
    7fe7:	48 8b 7b 28          	mov    0x28(%rbx),%rdi
    7feb:	e8 c0 37 00 00       	callq  b7b0 <_ZN4util13internal_freeEPvNS_8PlatformE>
    7ff0:	8b 73 08             	mov    0x8(%rbx),%esi
    7ff3:	48 8b 7b 30          	mov    0x30(%rbx),%rdi
    7ff7:	e8 b4 37 00 00       	callq  b7b0 <_ZN4util13internal_freeEPvNS_8PlatformE>
    7ffc:	eb be                	jmp    7fbc <_ZN6matrix6sparse9COOMatrixIifED1Ev+0x2c>
    7ffe:	66 90                	xchg   %ax,%ax
    8000:	5b                   	pop    %rbx
    8001:	c3                   	retq   
    8002:	66 2e 0f 1f 84 00 00 	nopw   %cs:0x0(%rax,%rax,1)
    8009:	00 00 00 
    800c:	0f 1f 40 00          	nopl   0x0(%rax)

0000000000008010 <_ZN6matrix6sparse9COOMatrixIidED1Ev>:
    8010:	53                   	push   %rbx
    8011:	48 8d 05 f0 86 20 00 	lea    0x2086f0(%rip),%rax        # 210708 <_ZTVN6matrix6sparse9COOMatrixIidEE+0x10>
    8018:	80 7f 1c 00          	cmpb   $0x0,0x1c(%rdi)
    801c:	48 89 fb             	mov    %rdi,%rbx
    801f:	48 89 07             	mov    %rax,(%rdi)
    8022:	75 34                	jne    8058 <_ZN6matrix6sparse9COOMatrixIidED1Ev+0x48>
    8024:	48 c7 47 20 00 00 00 	movq   $0x0,0x20(%rdi)
    802b:	00 
    802c:	48 c7 47 28 00 00 00 	movq   $0x0,0x28(%rdi)
    8033:	00 
    8034:	48 c7 47 30 00 00 00 	movq   $0x0,0x30(%rdi)
    803b:	00 
    803c:	48 8b 43 48          	mov    0x48(%rbx),%rax
    8040:	48 85 c0             	test   %rax,%rax
    8043:	74 3b                	je     8080 <_ZN6matrix6sparse9COOMatrixIidED1Ev+0x70>
    8045:	48 8d 7b 38          	lea    0x38(%rbx),%rdi
    8049:	ba 03 00 00 00       	mov    $0x3,%edx
    804e:	5b                   	pop    %rbx
    804f:	48 89 fe             	mov    %rdi,%rsi
    8052:	ff e0                	jmpq   *%rax
    8054:	0f 1f 40 00          	nopl   0x0(%rax)
    8058:	8b 77 08             	mov    0x8(%rdi),%esi
    805b:	48 8b 7f 20          	mov    0x20(%rdi),%rdi
    805f:	e8 4c 37 00 00       	callq  b7b0 <_ZN4util13internal_freeEPvNS_8PlatformE>
    8064:	8b 73 08             	mov    0x8(%rbx),%esi
    8067:	48 8b 7b 28          	mov    0x28(%rbx),%rdi
    806b:	e8 40 37 00 00       	callq  b7b0 <_ZN4util13internal_freeEPvNS_8PlatformE>
    8070:	8b 73 08             	mov    0x8(%rbx),%esi
    8073:	48 8b 7b 30          	mov    0x30(%rbx),%rdi
    8077:	e8 34 37 00 00       	callq  b7b0 <_ZN4util13internal_freeEPvNS_8PlatformE>
    807c:	eb be                	jmp    803c <_ZN6matrix6sparse9COOMatrixIidED1Ev+0x2c>
    807e:	66 90                	xchg   %ax,%ax
    8080:	5b                   	pop    %rbx
    8081:	c3                   	retq   
    8082:	66 2e 0f 1f 84 00 00 	nopw   %cs:0x0(%rax,%rax,1)
    8089:	00 00 00 
    808c:	0f 1f 40 00          	nopl   0x0(%rax)

0000000000008090 <_ZN6matrix6sparse9COOMatrixIifE21dense_vector_multiplyEPfPKf>:
    8090:	48 83 ec 28          	sub    $0x28,%rsp
    8094:	64 48 8b 0c 25 28 00 	mov    %fs:0x28,%rcx
    809b:	00 00 
    809d:	48 89 4c 24 18       	mov    %rcx,0x18(%rsp)
    80a2:	31 c9                	xor    %ecx,%ecx
    80a4:	48 83 7f 48 00       	cmpq   $0x0,0x48(%rdi)
    80a9:	48 89 74 24 08       	mov    %rsi,0x8(%rsp)
    80ae:	48 89 54 24 10       	mov    %rdx,0x10(%rsp)
    80b3:	74 29                	je     80de <_ZN6matrix6sparse9COOMatrixIifE21dense_vector_multiplyEPfPKf+0x4e>
    80b5:	48 89 f8             	mov    %rdi,%rax
    80b8:	48 8d 54 24 10       	lea    0x10(%rsp),%rdx
    80bd:	48 8d 74 24 08       	lea    0x8(%rsp),%rsi
    80c2:	48 8d 7f 38          	lea    0x38(%rdi),%rdi
    80c6:	ff 50 50             	callq  *0x50(%rax)
    80c9:	48 8b 44 24 18       	mov    0x18(%rsp),%rax
    80ce:	64 48 33 04 25 28 00 	xor    %fs:0x28,%rax
    80d5:	00 00 
    80d7:	75 0a                	jne    80e3 <_ZN6matrix6sparse9COOMatrixIifE21dense_vector_multiplyEPfPKf+0x53>
    80d9:	48 83 c4 28          	add    $0x28,%rsp
    80dd:	c3                   	retq   
    80de:	e8 7d ab ff ff       	callq  2c60 <_ZSt25__throw_bad_function_callv@plt>
    80e3:	e8 18 ad ff ff       	callq  2e00 <__stack_chk_fail@plt>
    80e8:	0f 1f 84 00 00 00 00 	nopl   0x0(%rax,%rax,1)
    80ef:	00 

00000000000080f0 <_ZN6matrix6sparse9COOMatrixIidE21dense_vector_multiplyEPdPKd>:
    80f0:	48 83 ec 28          	sub    $0x28,%rsp
    80f4:	64 48 8b 0c 25 28 00 	mov    %fs:0x28,%rcx
    80fb:	00 00 
    80fd:	48 89 4c 24 18       	mov    %rcx,0x18(%rsp)
    8102:	31 c9                	xor    %ecx,%ecx
    8104:	48 83 7f 48 00       	cmpq   $0x0,0x48(%rdi)
    8109:	48 89 74 24 08       	mov    %rsi,0x8(%rsp)
    810e:	48 89 54 24 10       	mov    %rdx,0x10(%rsp)
    8113:	74 29                	je     813e <_ZN6matrix6sparse9COOMatrixIidE21dense_vector_multiplyEPdPKd+0x4e>
    8115:	48 89 f8             	mov    %rdi,%rax
    8118:	48 8d 54 24 10       	lea    0x10(%rsp),%rdx
    811d:	48 8d 74 24 08       	lea    0x8(%rsp),%rsi
    8122:	48 8d 7f 38          	lea    0x38(%rdi),%rdi
    8126:	ff 50 50             	callq  *0x50(%rax)
    8129:	48 8b 44 24 18       	mov    0x18(%rsp),%rax
    812e:	64 48 33 04 25 28 00 	xor    %fs:0x28,%rax
    8135:	00 00 
    8137:	75 0a                	jne    8143 <_ZN6matrix6sparse9COOMatrixIidE21dense_vector_multiplyEPdPKd+0x53>
    8139:	48 83 c4 28          	add    $0x28,%rsp
    813d:	c3                   	retq   
    813e:	e8 1d ab ff ff       	callq  2c60 <_ZSt25__throw_bad_function_callv@plt>
    8143:	e8 b8 ac ff ff       	callq  2e00 <__stack_chk_fail@plt>
    8148:	0f 1f 84 00 00 00 00 	nopl   0x0(%rax,%rax,1)
    814f:	00 

0000000000008150 <_ZN6matrix6sparse9COOMatrixIifE14cpu_mv_vanillaEPfPKf._omp_fn.0>:
    8150:	41 54                	push   %r12
    8152:	55                   	push   %rbp
    8153:	48 89 fd             	mov    %rdi,%rbp
    8156:	53                   	push   %rbx
    8157:	48 8b 1f             	mov    (%rdi),%rbx
    815a:	e8 f1 ae ff ff       	callq  3050 <omp_get_num_threads@plt>
    815f:	41 89 c4             	mov    %eax,%r12d
    8162:	e8 c9 ad ff ff       	callq  2f30 <omp_get_thread_num@plt>
    8167:	89 c1                	mov    %eax,%ecx
    8169:	8b 43 18             	mov    0x18(%rbx),%eax
    816c:	99                   	cltd   
    816d:	41 f7 fc             	idiv   %r12d
    8170:	39 d1                	cmp    %edx,%ecx
    8172:	7d 05                	jge    8179 <_ZN6matrix6sparse9COOMatrixIifE14cpu_mv_vanillaEPfPKf._omp_fn.0+0x29>
    8174:	83 c0 01             	add    $0x1,%eax
    8177:	31 d2                	xor    %edx,%edx
    8179:	0f af c8             	imul   %eax,%ecx
    817c:	01 ca                	add    %ecx,%edx
    817e:	01 d0                	add    %edx,%eax
    8180:	39 c2                	cmp    %eax,%edx
    8182:	7d 58                	jge    81dc <_ZN6matrix6sparse9COOMatrixIifE14cpu_mv_vanillaEPfPKf._omp_fn.0+0x8c>
    8184:	29 d0                	sub    %edx,%eax
    8186:	48 63 f2             	movslq %edx,%rsi
    8189:	4c 8b 4d 10          	mov    0x10(%rbp),%r9
    818d:	4c 8b 45 08          	mov    0x8(%rbp),%r8
    8191:	83 e8 01             	sub    $0x1,%eax
    8194:	48 8d 0c b5 00 00 00 	lea    0x0(,%rsi,4),%rcx
    819b:	00 
    819c:	48 8d 7c 06 01       	lea    0x1(%rsi,%rax,1),%rdi
    81a1:	48 c1 e7 02          	shl    $0x2,%rdi
    81a5:	0f 1f 00             	nopl   (%rax)
    81a8:	48 8b 43 20          	mov    0x20(%rbx),%rax
    81ac:	48 8b 53 28          	mov    0x28(%rbx),%rdx
    81b0:	48 8b 73 30          	mov    0x30(%rbx),%rsi
    81b4:	48 63 04 08          	movslq (%rax,%rcx,1),%rax
    81b8:	48 63 14 0a          	movslq (%rdx,%rcx,1),%rdx
    81bc:	c5 fa 10 04 0e       	vmovss (%rsi,%rcx,1),%xmm0
    81c1:	48 83 c1 04          	add    $0x4,%rcx
    81c5:	49 8d 04 80          	lea    (%r8,%rax,4),%rax
    81c9:	c5 fa 10 08          	vmovss (%rax),%xmm1
    81cd:	c4 c2 71 99 04 91    	vfmadd132ss (%r9,%rdx,4),%xmm1,%xmm0
    81d3:	c5 fa 11 00          	vmovss %xmm0,(%rax)
    81d7:	48 39 cf             	cmp    %rcx,%rdi
    81da:	75 cc                	jne    81a8 <_ZN6matrix6sparse9COOMatrixIifE14cpu_mv_vanillaEPfPKf._omp_fn.0+0x58>
    81dc:	5b                   	pop    %rbx
    81dd:	5d                   	pop    %rbp
    81de:	41 5c                	pop    %r12
    81e0:	c3                   	retq   
    81e1:	66 2e 0f 1f 84 00 00 	nopw   %cs:0x0(%rax,%rax,1)
    81e8:	00 00 00 
    81eb:	0f 1f 44 00 00       	nopl   0x0(%rax,%rax,1)

00000000000081f0 <_ZN6matrix6sparse9COOMatrixIifE14cpu_mv_vanillaEPfPKf>:
    81f0:	55                   	push   %rbp
    81f1:	48 89 d5             	mov    %rdx,%rbp
    81f4:	48 89 f1             	mov    %rsi,%rcx
    81f7:	31 f6                	xor    %esi,%esi
    81f9:	53                   	push   %rbx
    81fa:	48 89 fb             	mov    %rdi,%rbx
    81fd:	48 83 ec 28          	sub    $0x28,%rsp
    8201:	48 63 57 10          	movslq 0x10(%rdi),%rdx
    8205:	48 89 cf             	mov    %rcx,%rdi
    8208:	64 48 8b 04 25 28 00 	mov    %fs:0x28,%rax
    820f:	00 00 
    8211:	48 89 44 24 18       	mov    %rax,0x18(%rsp)
    8216:	31 c0                	xor    %eax,%eax
    8218:	48 c1 e2 02          	shl    $0x2,%rdx
    821c:	e8 bf aa ff ff       	callq  2ce0 <memset@plt>
    8221:	c4 e1 f9 6e cb       	vmovq  %rbx,%xmm1
    8226:	8b 53 0c             	mov    0xc(%rbx),%edx
    8229:	31 c9                	xor    %ecx,%ecx
    822b:	c4 e3 f1 22 c0 01    	vpinsrq $0x1,%rax,%xmm1,%xmm0
    8231:	48 89 e6             	mov    %rsp,%rsi
    8234:	48 89 6c 24 10       	mov    %rbp,0x10(%rsp)
    8239:	48 8d 3d 10 ff ff ff 	lea    -0xf0(%rip),%rdi        # 8150 <_ZN6matrix6sparse9COOMatrixIifE14cpu_mv_vanillaEPfPKf._omp_fn.0>
    8240:	c5 f8 29 04 24       	vmovaps %xmm0,(%rsp)
    8245:	e8 a6 ac ff ff       	callq  2ef0 <GOMP_parallel@plt>
    824a:	48 8b 44 24 18       	mov    0x18(%rsp),%rax
    824f:	64 48 33 04 25 28 00 	xor    %fs:0x28,%rax
    8256:	00 00 
    8258:	75 07                	jne    8261 <_ZN6matrix6sparse9COOMatrixIifE14cpu_mv_vanillaEPfPKf+0x71>
    825a:	48 83 c4 28          	add    $0x28,%rsp
    825e:	5b                   	pop    %rbx
    825f:	5d                   	pop    %rbp
    8260:	c3                   	retq   
    8261:	e8 9a ab ff ff       	callq  2e00 <__stack_chk_fail@plt>
    8266:	66 2e 0f 1f 84 00 00 	nopw   %cs:0x0(%rax,%rax,1)
    826d:	00 00 00 

0000000000008270 <_ZN6matrix6sparse9COOMatrixIidE14cpu_mv_vanillaEPdPKd>:
    8270:	55                   	push   %rbp
    8271:	48 89 d5             	mov    %rdx,%rbp
    8274:	48 89 f1             	mov    %rsi,%rcx
    8277:	31 f6                	xor    %esi,%esi
    8279:	53                   	push   %rbx
    827a:	48 89 fb             	mov    %rdi,%rbx
    827d:	48 83 ec 28          	sub    $0x28,%rsp
    8281:	48 63 57 10          	movslq 0x10(%rdi),%rdx
    8285:	48 89 cf             	mov    %rcx,%rdi
    8288:	64 48 8b 04 25 28 00 	mov    %fs:0x28,%rax
    828f:	00 00 
    8291:	48 89 44 24 18       	mov    %rax,0x18(%rsp)
    8296:	31 c0                	xor    %eax,%eax
    8298:	48 c1 e2 03          	shl    $0x3,%rdx
    829c:	e8 3f aa ff ff       	callq  2ce0 <memset@plt>
    82a1:	c4 e1 f9 6e cb       	vmovq  %rbx,%xmm1
    82a6:	8b 53 0c             	mov    0xc(%rbx),%edx
    82a9:	31 c9                	xor    %ecx,%ecx
    82ab:	c4 e3 f1 22 c0 01    	vpinsrq $0x1,%rax,%xmm1,%xmm0
    82b1:	48 89 e6             	mov    %rsp,%rsi
    82b4:	48 89 6c 24 10       	mov    %rbp,0x10(%rsp)
    82b9:	48 8d 3d 30 00 00 00 	lea    0x30(%rip),%rdi        # 82f0 <_ZN6matrix6sparse9COOMatrixIidE14cpu_mv_vanillaEPdPKd._omp_fn.1>
    82c0:	c5 f8 29 04 24       	vmovaps %xmm0,(%rsp)
    82c5:	e8 26 ac ff ff       	callq  2ef0 <GOMP_parallel@plt>
    82ca:	48 8b 44 24 18       	mov    0x18(%rsp),%rax
    82cf:	64 48 33 04 25 28 00 	xor    %fs:0x28,%rax
    82d6:	00 00 
    82d8:	75 07                	jne    82e1 <_ZN6matrix6sparse9COOMatrixIidE14cpu_mv_vanillaEPdPKd+0x71>
    82da:	48 83 c4 28          	add    $0x28,%rsp
    82de:	5b                   	pop    %rbx
    82df:	5d                   	pop    %rbp
    82e0:	c3                   	retq   
    82e1:	e8 1a ab ff ff       	callq  2e00 <__stack_chk_fail@plt>
    82e6:	66 2e 0f 1f 84 00 00 	nopw   %cs:0x0(%rax,%rax,1)
    82ed:	00 00 00 

00000000000082f0 <_ZN6matrix6sparse9COOMatrixIidE14cpu_mv_vanillaEPdPKd._omp_fn.1>:
    82f0:	41 54                	push   %r12
    82f2:	55                   	push   %rbp
    82f3:	48 89 fd             	mov    %rdi,%rbp
    82f6:	53                   	push   %rbx
    82f7:	48 8b 1f             	mov    (%rdi),%rbx
    82fa:	e8 51 ad ff ff       	callq  3050 <omp_get_num_threads@plt>
    82ff:	41 89 c4             	mov    %eax,%r12d
    8302:	e8 29 ac ff ff       	callq  2f30 <omp_get_thread_num@plt>
    8307:	89 c1                	mov    %eax,%ecx
    8309:	8b 43 18             	mov    0x18(%rbx),%eax
    830c:	99                   	cltd   
    830d:	41 f7 fc             	idiv   %r12d
    8310:	39 d1                	cmp    %edx,%ecx
    8312:	7d 05                	jge    8319 <_ZN6matrix6sparse9COOMatrixIidE14cpu_mv_vanillaEPdPKd._omp_fn.1+0x29>
    8314:	83 c0 01             	add    $0x1,%eax
    8317:	31 d2                	xor    %edx,%edx
    8319:	0f af c8             	imul   %eax,%ecx
    831c:	01 ca                	add    %ecx,%edx
    831e:	01 d0                	add    %edx,%eax
    8320:	39 c2                	cmp    %eax,%edx
    8322:	7d 64                	jge    8388 <_ZN6matrix6sparse9COOMatrixIidE14cpu_mv_vanillaEPdPKd._omp_fn.1+0x98>
    8324:	29 d0                	sub    %edx,%eax
    8326:	48 63 fa             	movslq %edx,%rdi
    8329:	4c 8b 4d 10          	mov    0x10(%rbp),%r9
    832d:	4c 8b 45 08          	mov    0x8(%rbp),%r8
    8331:	83 e8 01             	sub    $0x1,%eax
    8334:	48 8d 0c bd 00 00 00 	lea    0x0(,%rdi,4),%rcx
    833b:	00 
    833c:	48 8d 34 fd 00 00 00 	lea    0x0(,%rdi,8),%rsi
    8343:	00 
    8344:	4c 8d 54 07 01       	lea    0x1(%rdi,%rax,1),%r10
    8349:	49 c1 e2 02          	shl    $0x2,%r10
    834d:	0f 1f 00             	nopl   (%rax)
    8350:	48 8b 43 20          	mov    0x20(%rbx),%rax
    8354:	48 8b 53 28          	mov    0x28(%rbx),%rdx
    8358:	48 8b 7b 30          	mov    0x30(%rbx),%rdi
    835c:	48 63 04 08          	movslq (%rax,%rcx,1),%rax
    8360:	48 63 14 0a          	movslq (%rdx,%rcx,1),%rdx
    8364:	48 83 c1 04          	add    $0x4,%rcx
    8368:	c5 fb 10 04 37       	vmovsd (%rdi,%rsi,1),%xmm0
    836d:	48 83 c6 08          	add    $0x8,%rsi
    8371:	49 8d 04 c0          	lea    (%r8,%rax,8),%rax
    8375:	c5 fb 10 08          	vmovsd (%rax),%xmm1
    8379:	c4 c2 f1 99 04 d1    	vfmadd132sd (%r9,%rdx,8),%xmm1,%xmm0
    837f:	c5 fb 11 00          	vmovsd %xmm0,(%rax)
    8383:	49 39 ca             	cmp    %rcx,%r10
    8386:	75 c8                	jne    8350 <_ZN6matrix6sparse9COOMatrixIidE14cpu_mv_vanillaEPdPKd._omp_fn.1+0x60>
    8388:	5b                   	pop    %rbx
    8389:	5d                   	pop    %rbp
    838a:	41 5c                	pop    %r12
    838c:	c3                   	retq   
    838d:	0f 1f 00             	nopl   (%rax)

0000000000008390 <_ZNSt14_Function_base13_Base_managerISt5_BindIFMN6matrix6sparse9COOMatrixIifEEFvPfPKfEPS5_St12_PlaceholderILi1EESC_ILi2EEEEE10_M_managerERSt9_Any_dataRKSI_St18_Manager_operation>:
    8390:	83 fa 01             	cmp    $0x1,%edx
    8393:	74 6b                	je     8400 <_ZNSt14_Function_base13_Base_managerISt5_BindIFMN6matrix6sparse9COOMatrixIifEEFvPfPKfEPS5_St12_PlaceholderILi1EESC_ILi2EEEEE10_M_managerERSt9_Any_dataRKSI_St18_Manager_operation+0x70>
    8395:	72 59                	jb     83f0 <_ZNSt14_Function_base13_Base_managerISt5_BindIFMN6matrix6sparse9COOMatrixIifEEFvPfPKfEPS5_St12_PlaceholderILi1EESC_ILi2EEEEE10_M_managerERSt9_Any_dataRKSI_St18_Manager_operation+0x60>
    8397:	55                   	push   %rbp
    8398:	53                   	push   %rbx
    8399:	48 89 fb             	mov    %rdi,%rbx
    839c:	48 83 ec 08          	sub    $0x8,%rsp
    83a0:	83 fa 02             	cmp    $0x2,%edx
    83a3:	74 1b                	je     83c0 <_ZNSt14_Function_base13_Base_managerISt5_BindIFMN6matrix6sparse9COOMatrixIifEEFvPfPKfEPS5_St12_PlaceholderILi1EESC_ILi2EEEEE10_M_managerERSt9_Any_dataRKSI_St18_Manager_operation+0x30>
    83a5:	83 fa 03             	cmp    $0x3,%edx
    83a8:	75 08                	jne    83b2 <_ZNSt14_Function_base13_Base_managerISt5_BindIFMN6matrix6sparse9COOMatrixIifEEFvPfPKfEPS5_St12_PlaceholderILi1EESC_ILi2EEEEE10_M_managerERSt9_Any_dataRKSI_St18_Manager_operation+0x22>
    83aa:	48 8b 3f             	mov    (%rdi),%rdi
    83ad:	e8 0e aa ff ff       	callq  2dc0 <_ZdlPv@plt>
    83b2:	48 83 c4 08          	add    $0x8,%rsp
    83b6:	31 c0                	xor    %eax,%eax
    83b8:	5b                   	pop    %rbx
    83b9:	5d                   	pop    %rbp
    83ba:	c3                   	retq   
    83bb:	0f 1f 44 00 00       	nopl   0x0(%rax,%rax,1)
    83c0:	48 8b 2e             	mov    (%rsi),%rbp
    83c3:	bf 18 00 00 00       	mov    $0x18,%edi
    83c8:	e8 13 aa ff ff       	callq  2de0 <_Znwm@plt>
    83cd:	c5 fa 6f 45 00       	vmovdqu 0x0(%rbp),%xmm0
    83d2:	c5 f8 11 00          	vmovups %xmm0,(%rax)
    83d6:	48 8b 55 10          	mov    0x10(%rbp),%rdx
    83da:	48 89 03             	mov    %rax,(%rbx)
    83dd:	48 89 50 10          	mov    %rdx,0x10(%rax)
    83e1:	48 83 c4 08          	add    $0x8,%rsp
    83e5:	31 c0                	xor    %eax,%eax
    83e7:	5b                   	pop    %rbx
    83e8:	5d                   	pop    %rbp
    83e9:	c3                   	retq   
    83ea:	66 0f 1f 44 00 00    	nopw   0x0(%rax,%rax,1)
    83f0:	48 8d 05 51 86 20 00 	lea    0x208651(%rip),%rax        # 210a48 <_ZTVN10__cxxabiv120__si_class_type_infoE@CXXABI_1.3>
    83f7:	48 89 07             	mov    %rax,(%rdi)
    83fa:	31 c0                	xor    %eax,%eax
    83fc:	c3                   	retq   
    83fd:	0f 1f 00             	nopl   (%rax)
    8400:	48 8b 06             	mov    (%rsi),%rax
    8403:	48 89 07             	mov    %rax,(%rdi)
    8406:	31 c0                	xor    %eax,%eax
    8408:	c3                   	retq   
    8409:	0f 1f 80 00 00 00 00 	nopl   0x0(%rax)

0000000000008410 <_ZNSt14_Function_base13_Base_managerISt5_BindIFMN6matrix6sparse9COOMatrixIidEEFvPdPKdEPS5_St12_PlaceholderILi1EESC_ILi2EEEEE10_M_managerERSt9_Any_dataRKSI_St18_Manager_operation>:
    8410:	83 fa 01             	cmp    $0x1,%edx
    8413:	74 6b                	je     8480 <_ZNSt14_Function_base13_Base_managerISt5_BindIFMN6matrix6sparse9COOMatrixIidEEFvPdPKdEPS5_St12_PlaceholderILi1EESC_ILi2EEEEE10_M_managerERSt9_Any_dataRKSI_St18_Manager_operation+0x70>
    8415:	72 59                	jb     8470 <_ZNSt14_Function_base13_Base_managerISt5_BindIFMN6matrix6sparse9COOMatrixIidEEFvPdPKdEPS5_St12_PlaceholderILi1EESC_ILi2EEEEE10_M_managerERSt9_Any_dataRKSI_St18_Manager_operation+0x60>
    8417:	55                   	push   %rbp
    8418:	53                   	push   %rbx
    8419:	48 89 fb             	mov    %rdi,%rbx
    841c:	48 83 ec 08          	sub    $0x8,%rsp
    8420:	83 fa 02             	cmp    $0x2,%edx
    8423:	74 1b                	je     8440 <_ZNSt14_Function_base13_Base_managerISt5_BindIFMN6matrix6sparse9COOMatrixIidEEFvPdPKdEPS5_St12_PlaceholderILi1EESC_ILi2EEEEE10_M_managerERSt9_Any_dataRKSI_St18_Manager_operation+0x30>
    8425:	83 fa 03             	cmp    $0x3,%edx
    8428:	75 08                	jne    8432 <_ZNSt14_Function_base13_Base_managerISt5_BindIFMN6matrix6sparse9COOMatrixIidEEFvPdPKdEPS5_St12_PlaceholderILi1EESC_ILi2EEEEE10_M_managerERSt9_Any_dataRKSI_St18_Manager_operation+0x22>
    842a:	48 8b 3f             	mov    (%rdi),%rdi
    842d:	e8 8e a9 ff ff       	callq  2dc0 <_ZdlPv@plt>
    8432:	48 83 c4 08          	add    $0x8,%rsp
    8436:	31 c0                	xor    %eax,%eax
    8438:	5b                   	pop    %rbx
    8439:	5d                   	pop    %rbp
    843a:	c3                   	retq   
    843b:	0f 1f 44 00 00       	nopl   0x0(%rax,%rax,1)
    8440:	48 8b 2e             	mov    (%rsi),%rbp
    8443:	bf 18 00 00 00       	mov    $0x18,%edi
    8448:	e8 93 a9 ff ff       	callq  2de0 <_Znwm@plt>
    844d:	c5 fa 6f 45 00       	vmovdqu 0x0(%rbp),%xmm0
    8452:	c5 f8 11 00          	vmovups %xmm0,(%rax)
    8456:	48 8b 55 10          	mov    0x10(%rbp),%rdx
    845a:	48 89 03             	mov    %rax,(%rbx)
    845d:	48 89 50 10          	mov    %rdx,0x10(%rax)
    8461:	48 83 c4 08          	add    $0x8,%rsp
    8465:	31 c0                	xor    %eax,%eax
    8467:	5b                   	pop    %rbx
    8468:	5d                   	pop    %rbp
    8469:	c3                   	retq   
    846a:	66 0f 1f 44 00 00    	nopw   0x0(%rax,%rax,1)
    8470:	48 8d 05 e9 85 20 00 	lea    0x2085e9(%rip),%rax        # 210a60 <_ZTVN10__cxxabiv120__si_class_type_infoE@CXXABI_1.3>
    8477:	48 89 07             	mov    %rax,(%rdi)
    847a:	31 c0                	xor    %eax,%eax
    847c:	c3                   	retq   
    847d:	0f 1f 00             	nopl   (%rax)
    8480:	48 8b 06             	mov    (%rsi),%rax
    8483:	48 89 07             	mov    %rax,(%rdi)
    8486:	31 c0                	xor    %eax,%eax
    8488:	c3                   	retq   
    8489:	0f 1f 80 00 00 00 00 	nopl   0x0(%rax)

0000000000008490 <_ZNSt17_Function_handlerIFvPfPKfESt5_BindIFMN6matrix6sparse9COOMatrixIifEEFvS0_S2_EPS8_St12_PlaceholderILi1EESC_ILi2EEEEE9_M_invokeERKSt9_Any_dataOS0_OS2_>:
    8490:	48 8b 07             	mov    (%rdi),%rax
    8493:	48 8b 36             	mov    (%rsi),%rsi
    8496:	48 8b 12             	mov    (%rdx),%rdx
    8499:	48 8b 78 08          	mov    0x8(%rax),%rdi
    849d:	48 03 78 10          	add    0x10(%rax),%rdi
    84a1:	48 8b 00             	mov    (%rax),%rax
    84a4:	a8 01                	test   $0x1,%al
    84a6:	74 08                	je     84b0 <_ZNSt17_Function_handlerIFvPfPKfESt5_BindIFMN6matrix6sparse9COOMatrixIifEEFvS0_S2_EPS8_St12_PlaceholderILi1EESC_ILi2EEEEE9_M_invokeERKSt9_Any_dataOS0_OS2_+0x20>
    84a8:	48 8b 0f             	mov    (%rdi),%rcx
    84ab:	48 8b 44 01 ff       	mov    -0x1(%rcx,%rax,1),%rax
    84b0:	ff e0                	jmpq   *%rax
    84b2:	66 2e 0f 1f 84 00 00 	nopw   %cs:0x0(%rax,%rax,1)
    84b9:	00 00 00 
    84bc:	0f 1f 40 00          	nopl   0x0(%rax)

00000000000084c0 <_ZNSt17_Function_handlerIFvPdPKdESt5_BindIFMN6matrix6sparse9COOMatrixIidEEFvS0_S2_EPS8_St12_PlaceholderILi1EESC_ILi2EEEEE9_M_invokeERKSt9_Any_dataOS0_OS2_>:
    84c0:	48 8b 07             	mov    (%rdi),%rax
    84c3:	48 8b 36             	mov    (%rsi),%rsi
    84c6:	48 8b 12             	mov    (%rdx),%rdx
    84c9:	48 8b 78 08          	mov    0x8(%rax),%rdi
    84cd:	48 03 78 10          	add    0x10(%rax),%rdi
    84d1:	48 8b 00             	mov    (%rax),%rax
    84d4:	a8 01                	test   $0x1,%al
    84d6:	74 08                	je     84e0 <_ZNSt17_Function_handlerIFvPdPKdESt5_BindIFMN6matrix6sparse9COOMatrixIidEEFvS0_S2_EPS8_St12_PlaceholderILi1EESC_ILi2EEEEE9_M_invokeERKSt9_Any_dataOS0_OS2_+0x20>
    84d8:	48 8b 0f             	mov    (%rdi),%rcx
    84db:	48 8b 44 01 ff       	mov    -0x1(%rcx,%rax,1),%rax
    84e0:	ff e0                	jmpq   *%rax
    84e2:	66 2e 0f 1f 84 00 00 	nopw   %cs:0x0(%rax,%rax,1)
    84e9:	00 00 00 
    84ec:	0f 1f 40 00          	nopl   0x0(%rax)

00000000000084f0 <_ZN6matrix6sparse9COOMatrixIifED0Ev>:
    84f0:	53                   	push   %rbx
    84f1:	48 8d 05 b8 81 20 00 	lea    0x2081b8(%rip),%rax        # 2106b0 <_ZTVN6matrix6sparse9COOMatrixIifEE+0x10>
    84f8:	80 7f 1c 00          	cmpb   $0x0,0x1c(%rdi)
    84fc:	48 89 fb             	mov    %rdi,%rbx
    84ff:	48 89 07             	mov    %rax,(%rdi)
    8502:	75 3c                	jne    8540 <_ZN6matrix6sparse9COOMatrixIifED0Ev+0x50>
    8504:	48 c7 47 20 00 00 00 	movq   $0x0,0x20(%rdi)
    850b:	00 
    850c:	48 c7 47 28 00 00 00 	movq   $0x0,0x28(%rdi)
    8513:	00 
    8514:	48 c7 47 30 00 00 00 	movq   $0x0,0x30(%rdi)
    851b:	00 
    851c:	48 8b 43 48          	mov    0x48(%rbx),%rax
    8520:	48 85 c0             	test   %rax,%rax
    8523:	74 0e                	je     8533 <_ZN6matrix6sparse9COOMatrixIifED0Ev+0x43>
    8525:	48 8d 7b 38          	lea    0x38(%rbx),%rdi
    8529:	ba 03 00 00 00       	mov    $0x3,%edx
    852e:	48 89 fe             	mov    %rdi,%rsi
    8531:	ff d0                	callq  *%rax
    8533:	48 89 df             	mov    %rbx,%rdi
    8536:	5b                   	pop    %rbx
    8537:	e9 84 a8 ff ff       	jmpq   2dc0 <_ZdlPv@plt>
    853c:	0f 1f 40 00          	nopl   0x0(%rax)
    8540:	8b 77 08             	mov    0x8(%rdi),%esi
    8543:	48 8b 7f 20          	mov    0x20(%rdi),%rdi
    8547:	e8 64 32 00 00       	callq  b7b0 <_ZN4util13internal_freeEPvNS_8PlatformE>
    854c:	8b 73 08             	mov    0x8(%rbx),%esi
    854f:	48 8b 7b 28          	mov    0x28(%rbx),%rdi
    8553:	e8 58 32 00 00       	callq  b7b0 <_ZN4util13internal_freeEPvNS_8PlatformE>
    8558:	8b 73 08             	mov    0x8(%rbx),%esi
    855b:	48 8b 7b 30          	mov    0x30(%rbx),%rdi
    855f:	e8 4c 32 00 00       	callq  b7b0 <_ZN4util13internal_freeEPvNS_8PlatformE>
    8564:	eb b6                	jmp    851c <_ZN6matrix6sparse9COOMatrixIifED0Ev+0x2c>
    8566:	66 2e 0f 1f 84 00 00 	nopw   %cs:0x0(%rax,%rax,1)
    856d:	00 00 00 

0000000000008570 <_ZN6matrix6sparse9COOMatrixIidED0Ev>:
    8570:	53                   	push   %rbx
    8571:	48 8d 05 90 81 20 00 	lea    0x208190(%rip),%rax        # 210708 <_ZTVN6matrix6sparse9COOMatrixIidEE+0x10>
    8578:	80 7f 1c 00          	cmpb   $0x0,0x1c(%rdi)
    857c:	48 89 fb             	mov    %rdi,%rbx
    857f:	48 89 07             	mov    %rax,(%rdi)
    8582:	75 3c                	jne    85c0 <_ZN6matrix6sparse9COOMatrixIidED0Ev+0x50>
    8584:	48 c7 47 20 00 00 00 	movq   $0x0,0x20(%rdi)
    858b:	00 
    858c:	48 c7 47 28 00 00 00 	movq   $0x0,0x28(%rdi)
    8593:	00 
    8594:	48 c7 47 30 00 00 00 	movq   $0x0,0x30(%rdi)
    859b:	00 
    859c:	48 8b 43 48          	mov    0x48(%rbx),%rax
    85a0:	48 85 c0             	test   %rax,%rax
    85a3:	74 0e                	je     85b3 <_ZN6matrix6sparse9COOMatrixIidED0Ev+0x43>
    85a5:	48 8d 7b 38          	lea    0x38(%rbx),%rdi
    85a9:	ba 03 00 00 00       	mov    $0x3,%edx
    85ae:	48 89 fe             	mov    %rdi,%rsi
    85b1:	ff d0                	callq  *%rax
    85b3:	48 89 df             	mov    %rbx,%rdi
    85b6:	5b                   	pop    %rbx
    85b7:	e9 04 a8 ff ff       	jmpq   2dc0 <_ZdlPv@plt>
    85bc:	0f 1f 40 00          	nopl   0x0(%rax)
    85c0:	8b 77 08             	mov    0x8(%rdi),%esi
    85c3:	48 8b 7f 20          	mov    0x20(%rdi),%rdi
    85c7:	e8 e4 31 00 00       	callq  b7b0 <_ZN4util13internal_freeEPvNS_8PlatformE>
    85cc:	8b 73 08             	mov    0x8(%rbx),%esi
    85cf:	48 8b 7b 28          	mov    0x28(%rbx),%rdi
    85d3:	e8 d8 31 00 00       	callq  b7b0 <_ZN4util13internal_freeEPvNS_8PlatformE>
    85d8:	8b 73 08             	mov    0x8(%rbx),%esi
    85db:	48 8b 7b 30          	mov    0x30(%rbx),%rdi
    85df:	e8 cc 31 00 00       	callq  b7b0 <_ZN4util13internal_freeEPvNS_8PlatformE>
    85e4:	eb b6                	jmp    859c <_ZN6matrix6sparse9COOMatrixIidED0Ev+0x2c>
    85e6:	66 2e 0f 1f 84 00 00 	nopw   %cs:0x0(%rax,%rax,1)
    85ed:	00 00 00 

00000000000085f0 <_ZN6matrix6sparse9COOMatrixIifEC1EPiS3_PfiiN4util8PlatformE>:
    85f0:	48 8d 05 b9 80 20 00 	lea    0x2080b9(%rip),%rax        # 2106b0 <_ZTVN6matrix6sparse9COOMatrixIifEE+0x10>
    85f7:	44 89 47 10          	mov    %r8d,0x10(%rdi)
    85fb:	4d 63 c0             	movslq %r8d,%r8
    85fe:	48 89 07             	mov    %rax,(%rdi)
    8601:	8b 44 24 08          	mov    0x8(%rsp),%eax
    8605:	44 89 4f 14          	mov    %r9d,0x14(%rdi)
    8609:	89 47 08             	mov    %eax,0x8(%rdi)
    860c:	c6 47 1c 00          	movb   $0x0,0x1c(%rdi)
    8610:	48 c7 47 48 00 00 00 	movq   $0x0,0x48(%rdi)
    8617:	00 
    8618:	48 89 77 20          	mov    %rsi,0x20(%rdi)
    861c:	48 89 57 28          	mov    %rdx,0x28(%rdi)
    8620:	48 89 4f 30          	mov    %rcx,0x30(%rdi)
    8624:	42 8b 04 86          	mov    (%rsi,%r8,4),%eax
    8628:	89 47 18             	mov    %eax,0x18(%rdi)
    862b:	c3                   	retq   
    862c:	0f 1f 40 00          	nopl   0x0(%rax)

0000000000008630 <_ZN6matrix6sparse9COOMatrixIidEC1EPiS3_PdiiN4util8PlatformE>:
    8630:	48 8d 05 d1 80 20 00 	lea    0x2080d1(%rip),%rax        # 210708 <_ZTVN6matrix6sparse9COOMatrixIidEE+0x10>
    8637:	44 89 47 10          	mov    %r8d,0x10(%rdi)
    863b:	4d 63 c0             	movslq %r8d,%r8
    863e:	48 89 07             	mov    %rax,(%rdi)
    8641:	8b 44 24 08          	mov    0x8(%rsp),%eax
    8645:	44 89 4f 14          	mov    %r9d,0x14(%rdi)
    8649:	89 47 08             	mov    %eax,0x8(%rdi)
    864c:	c6 47 1c 00          	movb   $0x0,0x1c(%rdi)
    8650:	48 c7 47 48 00 00 00 	movq   $0x0,0x48(%rdi)
    8657:	00 
    8658:	48 89 77 20          	mov    %rsi,0x20(%rdi)
    865c:	48 89 57 28          	mov    %rdx,0x28(%rdi)
    8660:	48 89 4f 30          	mov    %rcx,0x30(%rdi)
    8664:	42 8b 04 86          	mov    (%rsi,%r8,4),%eax
    8668:	89 47 18             	mov    %eax,0x18(%rdi)
    866b:	c3                   	retq   
    866c:	0f 1f 40 00          	nopl   0x0(%rax)

0000000000008670 <_ZN4util2io12ParseElementIiiEEvRSt6vectorINSt7__cxx1112basic_stringIcSt11char_traitsIcESaIcEEESaIS8_EERT_SD_RT0_>:
    8670:	41 55                	push   %r13
    8672:	49 89 f5             	mov    %rsi,%r13
    8675:	41 54                	push   %r12
    8677:	49 89 d4             	mov    %rdx,%r12
    867a:	55                   	push   %rbp
    867b:	48 89 cd             	mov    %rcx,%rbp
    867e:	53                   	push   %rbx
    867f:	48 89 fb             	mov    %rdi,%rbx
    8682:	48 83 ec 08          	sub    $0x8,%rsp
    8686:	48 8b 17             	mov    (%rdi),%rdx
    8689:	48 8b 47 08          	mov    0x8(%rdi),%rax
    868d:	48 29 d0             	sub    %rdx,%rax
    8690:	48 8b 3a             	mov    (%rdx),%rdi
    8693:	48 83 f8 5f          	cmp    $0x5f,%rax
    8697:	77 47                	ja     86e0 <_ZN4util2io12ParseElementIiiEEvRSt6vectorINSt7__cxx1112basic_stringIcSt11char_traitsIcESaIcEEESaIS8_EERT_SD_RT0_+0x70>
    8699:	48 83 f8 40          	cmp    $0x40,%rax
    869d:	0f 85 84 00 00 00    	jne    8727 <_ZN4util2io12ParseElementIiiEEvRSt6vectorINSt7__cxx1112basic_stringIcSt11char_traitsIcESaIcEEESaIS8_EERT_SD_RT0_+0xb7>
    86a3:	ba 0a 00 00 00       	mov    $0xa,%edx
    86a8:	31 f6                	xor    %esi,%esi
    86aa:	e8 01 a8 ff ff       	callq  2eb0 <strtol@plt>
    86af:	ba 0a 00 00 00       	mov    $0xa,%edx
    86b4:	31 f6                	xor    %esi,%esi
    86b6:	41 89 45 00          	mov    %eax,0x0(%r13)
    86ba:	48 8b 03             	mov    (%rbx),%rax
    86bd:	48 8b 78 20          	mov    0x20(%rax),%rdi
    86c1:	e8 ea a7 ff ff       	callq  2eb0 <strtol@plt>
    86c6:	41 89 04 24          	mov    %eax,(%r12)
    86ca:	c7 45 00 00 00 00 00 	movl   $0x0,0x0(%rbp)
    86d1:	48 83 c4 08          	add    $0x8,%rsp
    86d5:	5b                   	pop    %rbx
    86d6:	5d                   	pop    %rbp
    86d7:	41 5c                	pop    %r12
    86d9:	41 5d                	pop    %r13
    86db:	c3                   	retq   
    86dc:	0f 1f 40 00          	nopl   0x0(%rax)
    86e0:	ba 0a 00 00 00       	mov    $0xa,%edx
    86e5:	31 f6                	xor    %esi,%esi
    86e7:	e8 c4 a7 ff ff       	callq  2eb0 <strtol@plt>
    86ec:	ba 0a 00 00 00       	mov    $0xa,%edx
    86f1:	31 f6                	xor    %esi,%esi
    86f3:	41 89 45 00          	mov    %eax,0x0(%r13)
    86f7:	48 8b 03             	mov    (%rbx),%rax
    86fa:	48 8b 78 20          	mov    0x20(%rax),%rdi
    86fe:	e8 ad a7 ff ff       	callq  2eb0 <strtol@plt>
    8703:	31 f6                	xor    %esi,%esi
    8705:	41 89 04 24          	mov    %eax,(%r12)
    8709:	48 8b 03             	mov    (%rbx),%rax
    870c:	48 8b 78 40          	mov    0x40(%rax),%rdi
    8710:	e8 3b a6 ff ff       	callq  2d50 <strtod@plt>
    8715:	c5 fb 2c c0          	vcvttsd2si %xmm0,%eax
    8719:	89 45 00             	mov    %eax,0x0(%rbp)
    871c:	48 83 c4 08          	add    $0x8,%rsp
    8720:	5b                   	pop    %rbx
    8721:	5d                   	pop    %rbp
    8722:	41 5c                	pop    %r12
    8724:	41 5d                	pop    %r13
    8726:	c3                   	retq   
    8727:	48 8b 52 08          	mov    0x8(%rdx),%rdx
    872b:	48 89 fe             	mov    %rdi,%rsi
    872e:	48 8d 3d eb 88 20 00 	lea    0x2088eb(%rip),%rdi        # 211020 <_ZSt4cout@@GLIBCXX_3.4>
    8735:	e8 e6 a6 ff ff       	callq  2e20 <_ZSt16__ostream_insertIcSt11char_traitsIcEERSt13basic_ostreamIT_T0_ES6_PKS3_l@plt>
    873a:	48 89 c7             	mov    %rax,%rdi
    873d:	e8 5e a5 ff ff       	callq  2ca0 <_ZSt4endlIcSt11char_traitsIcEERSt13basic_ostreamIT_T0_ES6_@plt>
    8742:	48 8d 3d d7 88 20 00 	lea    0x2088d7(%rip),%rdi        # 211020 <_ZSt4cout@@GLIBCXX_3.4>
    8749:	48 8d 35 60 41 00 00 	lea    0x4160(%rip),%rsi        # c8b0 <_IO_stdin_used+0x1f0>
    8750:	e8 7b a6 ff ff       	callq  2dd0 <_ZStlsISt11char_traitsIcEERSt13basic_ostreamIcT_ES5_PKc@plt>
    8755:	bf 01 00 00 00       	mov    $0x1,%edi
    875a:	e8 01 a7 ff ff       	callq  2e60 <exit@plt>
    875f:	90                   	nop

0000000000008760 <_ZN6matrix6sparse9COOMatrixIifEC1ERKNSt7__cxx1112basic_stringIcSt11char_traitsIcESaIcEEEN4util8PlatformE>:
    8760:	41 56                	push   %r14
    8762:	41 55                	push   %r13
    8764:	41 54                	push   %r12
    8766:	55                   	push   %rbp
    8767:	48 89 fd             	mov    %rdi,%rbp
    876a:	53                   	push   %rbx
    876b:	48 89 f3             	mov    %rsi,%rbx
    876e:	48 81 ec 80 02 00 00 	sub    $0x280,%rsp
    8775:	89 57 08             	mov    %edx,0x8(%rdi)
    8778:	64 48 8b 04 25 28 00 	mov    %fs:0x28,%rax
    877f:	00 00 
    8781:	48 89 84 24 78 02 00 	mov    %rax,0x278(%rsp)
    8788:	00 
    8789:	31 c0                	xor    %eax,%eax
    878b:	48 8d 05 1e 7f 20 00 	lea    0x207f1e(%rip),%rax        # 2106b0 <_ZTVN6matrix6sparse9COOMatrixIifEE+0x10>
    8792:	4c 8d 64 24 40       	lea    0x40(%rsp),%r12
    8797:	48 89 07             	mov    %rax,(%rdi)
    879a:	e8 e1 a7 ff ff       	callq  2f80 <omp_get_max_threads@plt>
    879f:	c6 45 1c 01          	movb   $0x1,0x1c(%rbp)
    87a3:	48 89 de             	mov    %rbx,%rsi
    87a6:	4c 89 e7             	mov    %r12,%rdi
    87a9:	89 45 0c             	mov    %eax,0xc(%rbp)
    87ac:	48 c7 45 48 00 00 00 	movq   $0x0,0x48(%rbp)
    87b3:	00 
    87b4:	e8 17 e6 ff ff       	callq  6dd0 <_ZN4util2io3MMFIifEC1ERKNSt7__cxx1112basic_stringIcSt11char_traitsIcESaIcEEE>
    87b9:	8b 44 24 40          	mov    0x40(%rsp),%eax
    87bd:	80 bc 24 58 02 00 00 	cmpb   $0x0,0x258(%rsp)
    87c4:	00 
    87c5:	89 45 10             	mov    %eax,0x10(%rbp)
    87c8:	8b 44 24 44          	mov    0x44(%rsp),%eax
    87cc:	89 45 14             	mov    %eax,0x14(%rbp)
    87cf:	75 0e                	jne    87df <_ZN6matrix6sparse9COOMatrixIifEC1ERKNSt7__cxx1112basic_stringIcSt11char_traitsIcESaIcEEEN4util8PlatformE+0x7f>
    87d1:	80 bc 24 59 02 00 00 	cmpb   $0x0,0x259(%rsp)
    87d8:	00 
    87d9:	0f 84 21 03 00 00    	je     8b00 <_ZN6matrix6sparse9COOMatrixIifEC1ERKNSt7__cxx1112basic_stringIcSt11char_traitsIcESaIcEEEN4util8PlatformE+0x3a0>
    87df:	48 8b bc 24 68 02 00 	mov    0x268(%rsp),%rdi
    87e6:	00 
    87e7:	48 2b bc 24 60 02 00 	sub    0x260(%rsp),%rdi
    87ee:	00 
    87ef:	48 c1 ff 02          	sar    $0x2,%rdi
    87f3:	69 ff ab aa aa aa    	imul   $0xaaaaaaab,%edi,%edi
    87f9:	89 7d 18             	mov    %edi,0x18(%rbp)
    87fc:	8b 75 08             	mov    0x8(%rbp),%esi
    87ff:	48 63 ff             	movslq %edi,%rdi
    8802:	48 c1 e7 02          	shl    $0x2,%rdi
    8806:	e8 c5 2f 00 00       	callq  b7d0 <_ZN4util14internal_allocEmNS_8PlatformE>
    880b:	48 63 7d 18          	movslq 0x18(%rbp),%rdi
    880f:	8b 75 08             	mov    0x8(%rbp),%esi
    8812:	48 89 45 20          	mov    %rax,0x20(%rbp)
    8816:	48 c1 e7 02          	shl    $0x2,%rdi
    881a:	e8 b1 2f 00 00       	callq  b7d0 <_ZN4util14internal_allocEmNS_8PlatformE>
    881f:	48 63 7d 18          	movslq 0x18(%rbp),%rdi
    8823:	8b 75 08             	mov    0x8(%rbp),%esi
    8826:	48 89 45 28          	mov    %rax,0x28(%rbp)
    882a:	48 c1 e7 02          	shl    $0x2,%rdi
    882e:	e8 9d 2f 00 00       	callq  b7d0 <_ZN4util14internal_allocEmNS_8PlatformE>
    8833:	48 89 45 30          	mov    %rax,0x30(%rbp)
    8837:	49 89 e5             	mov    %rsp,%r13
    883a:	31 d2                	xor    %edx,%edx
    883c:	4c 89 e6             	mov    %r12,%rsi
    883f:	4c 89 ef             	mov    %r13,%rdi
    8842:	e8 c9 d1 ff ff       	callq  5a10 <_ZN4util2io3MMFIifE8iteratorC1EPS2_m>
    8847:	80 bc 24 58 02 00 00 	cmpb   $0x0,0x258(%rsp)
    884e:	00 
    884f:	75 0e                	jne    885f <_ZN6matrix6sparse9COOMatrixIifEC1ERKNSt7__cxx1112basic_stringIcSt11char_traitsIcESaIcEEEN4util8PlatformE+0xff>
    8851:	80 bc 24 59 02 00 00 	cmpb   $0x0,0x259(%rsp)
    8858:	00 
    8859:	0f 84 81 02 00 00    	je     8ae0 <_ZN6matrix6sparse9COOMatrixIifEC1ERKNSt7__cxx1112basic_stringIcSt11char_traitsIcESaIcEEEN4util8PlatformE+0x380>
    885f:	48 8b 94 24 68 02 00 	mov    0x268(%rsp),%rdx
    8866:	00 
    8867:	48 2b 94 24 60 02 00 	sub    0x260(%rsp),%rdx
    886e:	00 
    886f:	48 8d 7c 24 20       	lea    0x20(%rsp),%rdi
    8874:	4c 89 e6             	mov    %r12,%rsi
    8877:	48 b8 ab aa aa aa aa 	movabs $0xaaaaaaaaaaaaaaab,%rax
    887e:	aa aa aa 
    8881:	48 c1 fa 02          	sar    $0x2,%rdx
    8885:	48 0f af d0          	imul   %rax,%rdx
    8889:	e8 82 d1 ff ff       	callq  5a10 <_ZN4util2io3MMFIifE8iteratorC1EPS2_m>
    888e:	48 8b 3c 24          	mov    (%rsp),%rdi
    8892:	48 8b 74 24 20       	mov    0x20(%rsp),%rsi
    8897:	31 db                	xor    %ebx,%ebx
    8899:	4d 8d 75 18          	lea    0x18(%r13),%r14
    889d:	e9 86 00 00 00       	jmpq   8928 <_ZN6matrix6sparse9COOMatrixIifEC1ERKNSt7__cxx1112basic_stringIcSt11char_traitsIcESaIcEEEN4util8PlatformE+0x1c8>
    88a2:	66 0f 1f 44 00 00    	nopw   0x0(%rax,%rax,1)
    88a8:	80 bf 18 02 00 00 00 	cmpb   $0x0,0x218(%rdi)
    88af:	0f 85 7b 01 00 00    	jne    8a30 <_ZN6matrix6sparse9COOMatrixIifEC1ERKNSt7__cxx1112basic_stringIcSt11char_traitsIcESaIcEEEN4util8PlatformE+0x2d0>
    88b5:	80 bf 19 02 00 00 00 	cmpb   $0x0,0x219(%rdi)
    88bc:	0f 85 be 01 00 00    	jne    8a80 <_ZN6matrix6sparse9COOMatrixIifEC1ERKNSt7__cxx1112basic_stringIcSt11char_traitsIcESaIcEEEN4util8PlatformE+0x320>
    88c2:	80 7c 24 1c 00       	cmpb   $0x0,0x1c(%rsp)
    88c7:	0f 84 7f 02 00 00    	je     8b4c <_ZN6matrix6sparse9COOMatrixIifEC1ERKNSt7__cxx1112basic_stringIcSt11char_traitsIcESaIcEEEN4util8PlatformE+0x3ec>
    88cd:	8b 44 24 10          	mov    0x10(%rsp),%eax
    88d1:	48 8b 55 20          	mov    0x20(%rbp),%rdx
    88d5:	4c 8d 04 9d 00 00 00 	lea    0x0(,%rbx,4),%r8
    88dc:	00 
    88dd:	83 e8 01             	sub    $0x1,%eax
    88e0:	89 04 9a             	mov    %eax,(%rdx,%rbx,4)
    88e3:	8b 44 24 14          	mov    0x14(%rsp),%eax
    88e7:	48 8b 55 28          	mov    0x28(%rbp),%rdx
    88eb:	83 e8 01             	sub    $0x1,%eax
    88ee:	89 04 9a             	mov    %eax,(%rdx,%rbx,4)
    88f1:	48 8b 45 30          	mov    0x30(%rbp),%rax
    88f5:	49 8d 55 14          	lea    0x14(%r13),%rdx
    88f9:	49 8d 75 10          	lea    0x10(%r13),%rsi
    88fd:	4c 89 f1             	mov    %r14,%rcx
    8900:	c5 fa 10 44 24 18    	vmovss 0x18(%rsp),%xmm0
    8906:	c4 a1 7a 11 04 00    	vmovss %xmm0,(%rax,%r8,1)
    890c:	48 83 44 24 08 01    	addq   $0x1,0x8(%rsp)
    8912:	e8 e9 ce ff ff       	callq  5800 <_ZN4util2io3MMFIifE7GetNextERiS3_Rf>
    8917:	48 8b 3c 24          	mov    (%rsp),%rdi
    891b:	48 8b 74 24 20       	mov    0x20(%rsp),%rsi
    8920:	88 44 24 1c          	mov    %al,0x1c(%rsp)
    8924:	48 83 c3 01          	add    $0x1,%rbx
    8928:	48 39 fe             	cmp    %rdi,%rsi
    892b:	0f 85 77 ff ff ff    	jne    88a8 <_ZN6matrix6sparse9COOMatrixIifEC1ERKNSt7__cxx1112basic_stringIcSt11char_traitsIcESaIcEEEN4util8PlatformE+0x148>
    8931:	48 8b 4c 24 28       	mov    0x28(%rsp),%rcx
    8936:	48 39 4c 24 08       	cmp    %rcx,0x8(%rsp)
    893b:	0f 85 67 ff ff ff    	jne    88a8 <_ZN6matrix6sparse9COOMatrixIifEC1ERKNSt7__cxx1112basic_stringIcSt11char_traitsIcESaIcEEEN4util8PlatformE+0x148>
    8941:	39 5d 18             	cmp    %ebx,0x18(%rbp)
    8944:	0f 85 1f 02 00 00    	jne    8b69 <_ZN6matrix6sparse9COOMatrixIifEC1ERKNSt7__cxx1112basic_stringIcSt11char_traitsIcESaIcEEEN4util8PlatformE+0x409>
    894a:	49 8d bc 24 88 00 00 	lea    0x88(%r12),%rdi
    8951:	00 
    8952:	e8 a9 a2 ff ff       	callq  2c00 <_ZNKSt12__basic_fileIcE7is_openEv@plt>
    8957:	84 c0                	test   %al,%al
    8959:	0f 85 b1 01 00 00    	jne    8b10 <_ZN6matrix6sparse9COOMatrixIifEC1ERKNSt7__cxx1112basic_stringIcSt11char_traitsIcESaIcEEEN4util8PlatformE+0x3b0>
    895f:	48 8b bc 24 60 02 00 	mov    0x260(%rsp),%rdi
    8966:	00 
    8967:	48 85 ff             	test   %rdi,%rdi
    896a:	74 05                	je     8971 <_ZN6matrix6sparse9COOMatrixIifEC1ERKNSt7__cxx1112basic_stringIcSt11char_traitsIcESaIcEEEN4util8PlatformE+0x211>
    896c:	e8 4f a4 ff ff       	callq  2dc0 <_ZdlPv@plt>
    8971:	48 8d 05 58 7f 20 00 	lea    0x207f58(%rip),%rax        # 2108d0 <_ZTVSt14basic_ifstreamIcSt11char_traitsIcEE@@GLIBCXX_3.4+0x18>
    8978:	49 8d 7c 24 20       	lea    0x20(%r12),%rdi
    897d:	48 89 44 24 50       	mov    %rax,0x50(%rsp)
    8982:	48 83 c0 28          	add    $0x28,%rax
    8986:	48 89 84 24 50 01 00 	mov    %rax,0x150(%rsp)
    898d:	00 
    898e:	48 8d 05 83 7f 20 00 	lea    0x207f83(%rip),%rax        # 210918 <_ZTVSt13basic_filebufIcSt11char_traitsIcEE@@GLIBCXX_3.4+0x10>
    8995:	48 89 44 24 60       	mov    %rax,0x60(%rsp)
    899a:	e8 51 a2 ff ff       	callq  2bf0 <_ZNSt13basic_filebufIcSt11char_traitsIcEE5closeEv@plt>
    899f:	49 8d bc 24 88 00 00 	lea    0x88(%r12),%rdi
    89a6:	00 
    89a7:	e8 94 a6 ff ff       	callq  3040 <_ZNSt12__basic_fileIcED1Ev@plt>
    89ac:	48 8d 05 95 7e 20 00 	lea    0x207e95(%rip),%rax        # 210848 <_ZTVSt15basic_streambufIcSt11char_traitsIcEE@@GLIBCXX_3.4+0x10>
    89b3:	49 8d 7c 24 58       	lea    0x58(%r12),%rdi
    89b8:	48 89 44 24 60       	mov    %rax,0x60(%rsp)
    89bd:	e8 fe a4 ff ff       	callq  2ec0 <_ZNSt6localeD1Ev@plt>
    89c2:	48 8b 05 c7 7f 20 00 	mov    0x207fc7(%rip),%rax        # 210990 <_ZTTSt14basic_ifstreamIcSt11char_traitsIcEE@@GLIBCXX_3.4+0x8>
    89c9:	48 8b 15 c8 7f 20 00 	mov    0x207fc8(%rip),%rdx        # 210998 <_ZTTSt14basic_ifstreamIcSt11char_traitsIcEE@@GLIBCXX_3.4+0x10>
    89d0:	49 8d bc 24 10 01 00 	lea    0x110(%r12),%rdi
    89d7:	00 
    89d8:	48 89 44 24 50       	mov    %rax,0x50(%rsp)
    89dd:	48 8b 40 e8          	mov    -0x18(%rax),%rax
    89e1:	48 89 54 04 50       	mov    %rdx,0x50(%rsp,%rax,1)
    89e6:	48 8d 05 3b 7e 20 00 	lea    0x207e3b(%rip),%rax        # 210828 <_ZTVSt9basic_iosIcSt11char_traitsIcEE@@GLIBCXX_3.4+0x10>
    89ed:	48 89 84 24 50 01 00 	mov    %rax,0x150(%rsp)
    89f4:	00 
    89f5:	48 c7 44 24 58 00 00 	movq   $0x0,0x58(%rsp)
    89fc:	00 00 
    89fe:	e8 3d a2 ff ff       	callq  2c40 <_ZNSt8ios_baseD2Ev@plt>
    8a03:	48 8b 84 24 78 02 00 	mov    0x278(%rsp),%rax
    8a0a:	00 
    8a0b:	64 48 33 04 25 28 00 	xor    %fs:0x28,%rax
    8a12:	00 00 
    8a14:	0f 85 6e 01 00 00    	jne    8b88 <_ZN6matrix6sparse9COOMatrixIifEC1ERKNSt7__cxx1112basic_stringIcSt11char_traitsIcESaIcEEEN4util8PlatformE+0x428>
    8a1a:	48 81 c4 80 02 00 00 	add    $0x280,%rsp
    8a21:	5b                   	pop    %rbx
    8a22:	5d                   	pop    %rbp
    8a23:	41 5c                	pop    %r12
    8a25:	41 5d                	pop    %r13
    8a27:	41 5e                	pop    %r14
    8a29:	c3                   	retq   
    8a2a:	66 0f 1f 44 00 00    	nopw   0x0(%rax,%rax,1)
    8a30:	48 8b 44 24 08       	mov    0x8(%rsp),%rax
    8a35:	48 8b 97 20 02 00 00 	mov    0x220(%rdi),%rdx
    8a3c:	4c 8b 45 20          	mov    0x20(%rbp),%r8
    8a40:	48 8d 0c 40          	lea    (%rax,%rax,2),%rcx
    8a44:	48 83 c0 01          	add    $0x1,%rax
    8a48:	48 8d 14 8a          	lea    (%rdx,%rcx,4),%rdx
    8a4c:	8b 0a                	mov    (%rdx),%ecx
    8a4e:	c5 fa 10 42 08       	vmovss 0x8(%rdx),%xmm0
    8a53:	83 e9 01             	sub    $0x1,%ecx
    8a56:	41 89 0c 98          	mov    %ecx,(%r8,%rbx,4)
    8a5a:	8b 4a 04             	mov    0x4(%rdx),%ecx
    8a5d:	4c 8b 45 28          	mov    0x28(%rbp),%r8
    8a61:	83 e9 01             	sub    $0x1,%ecx
    8a64:	41 89 0c 98          	mov    %ecx,(%r8,%rbx,4)
    8a68:	48 8b 55 30          	mov    0x30(%rbp),%rdx
    8a6c:	c5 fa 11 04 9a       	vmovss %xmm0,(%rdx,%rbx,4)
    8a71:	48 89 44 24 08       	mov    %rax,0x8(%rsp)
    8a76:	e9 a9 fe ff ff       	jmpq   8924 <_ZN6matrix6sparse9COOMatrixIifEC1ERKNSt7__cxx1112basic_stringIcSt11char_traitsIcESaIcEEEN4util8PlatformE+0x1c4>
    8a7b:	0f 1f 44 00 00       	nopl   0x0(%rax,%rax,1)
    8a80:	48 8b 44 24 08       	mov    0x8(%rsp),%rax
    8a85:	48 8b 97 20 02 00 00 	mov    0x220(%rdi),%rdx
    8a8c:	4c 8d 04 9d 00 00 00 	lea    0x0(,%rbx,4),%r8
    8a93:	00 
    8a94:	4c 8b 4d 20          	mov    0x20(%rbp),%r9
    8a98:	48 8d 0c 40          	lea    (%rax,%rax,2),%rcx
    8a9c:	48 8d 0c 8a          	lea    (%rdx,%rcx,4),%rcx
    8aa0:	8b 11                	mov    (%rcx),%edx
    8aa2:	83 ea 01             	sub    $0x1,%edx
    8aa5:	41 89 14 99          	mov    %edx,(%r9,%rbx,4)
    8aa9:	8b 51 04             	mov    0x4(%rcx),%edx
    8aac:	4c 8b 4d 28          	mov    0x28(%rbp),%r9
    8ab0:	83 ea 01             	sub    $0x1,%edx
    8ab3:	80 bf 19 02 00 00 00 	cmpb   $0x0,0x219(%rdi)
    8aba:	41 89 14 99          	mov    %edx,(%r9,%rbx,4)
    8abe:	0f 84 7d 00 00 00    	je     8b41 <_ZN6matrix6sparse9COOMatrixIifEC1ERKNSt7__cxx1112basic_stringIcSt11char_traitsIcESaIcEEEN4util8PlatformE+0x3e1>
    8ac4:	c5 fa 10 41 08       	vmovss 0x8(%rcx),%xmm0
    8ac9:	48 8b 55 30          	mov    0x30(%rbp),%rdx
    8acd:	48 83 c0 01          	add    $0x1,%rax
    8ad1:	c5 fa 11 04 9a       	vmovss %xmm0,(%rdx,%rbx,4)
    8ad6:	48 89 44 24 08       	mov    %rax,0x8(%rsp)
    8adb:	e9 44 fe ff ff       	jmpq   8924 <_ZN6matrix6sparse9COOMatrixIifEC1ERKNSt7__cxx1112basic_stringIcSt11char_traitsIcESaIcEEEN4util8PlatformE+0x1c4>
    8ae0:	48 63 54 24 48       	movslq 0x48(%rsp),%rdx
    8ae5:	48 8d 7c 24 20       	lea    0x20(%rsp),%rdi
    8aea:	4c 89 e6             	mov    %r12,%rsi
    8aed:	e8 1e cf ff ff       	callq  5a10 <_ZN4util2io3MMFIifE8iteratorC1EPS2_m>
    8af2:	e9 97 fd ff ff       	jmpq   888e <_ZN6matrix6sparse9COOMatrixIifEC1ERKNSt7__cxx1112basic_stringIcSt11char_traitsIcESaIcEEEN4util8PlatformE+0x12e>
    8af7:	66 0f 1f 84 00 00 00 	nopw   0x0(%rax,%rax,1)
    8afe:	00 00 
    8b00:	8b 7c 24 48          	mov    0x48(%rsp),%edi
    8b04:	e9 f0 fc ff ff       	jmpq   87f9 <_ZN6matrix6sparse9COOMatrixIifEC1ERKNSt7__cxx1112basic_stringIcSt11char_traitsIcESaIcEEEN4util8PlatformE+0x99>
    8b09:	0f 1f 80 00 00 00 00 	nopl   0x0(%rax)
    8b10:	49 8d 7c 24 20       	lea    0x20(%r12),%rdi
    8b15:	e8 d6 a0 ff ff       	callq  2bf0 <_ZNSt13basic_filebufIcSt11char_traitsIcEE5closeEv@plt>
    8b1a:	48 85 c0             	test   %rax,%rax
    8b1d:	0f 85 3c fe ff ff    	jne    895f <_ZN6matrix6sparse9COOMatrixIifEC1ERKNSt7__cxx1112basic_stringIcSt11char_traitsIcESaIcEEEN4util8PlatformE+0x1ff>
    8b23:	48 8b 44 24 50       	mov    0x50(%rsp),%rax
    8b28:	48 8b 40 e8          	mov    -0x18(%rax),%rax
    8b2c:	49 8d 7c 04 10       	lea    0x10(%r12,%rax,1),%rdi
    8b31:	8b 77 20             	mov    0x20(%rdi),%esi
    8b34:	83 ce 04             	or     $0x4,%esi
    8b37:	e8 74 a4 ff ff       	callq  2fb0 <_ZNSt9basic_iosIcSt11char_traitsIcEE5clearESt12_Ios_Iostate@plt>
    8b3c:	e9 1e fe ff ff       	jmpq   895f <_ZN6matrix6sparse9COOMatrixIifEC1ERKNSt7__cxx1112basic_stringIcSt11char_traitsIcESaIcEEEN4util8PlatformE+0x1ff>
    8b41:	80 7c 24 1c 00       	cmpb   $0x0,0x1c(%rsp)
    8b46:	0f 85 a5 fd ff ff    	jne    88f1 <_ZN6matrix6sparse9COOMatrixIifEC1ERKNSt7__cxx1112basic_stringIcSt11char_traitsIcESaIcEEEN4util8PlatformE+0x191>
    8b4c:	48 8d 35 85 3c 00 00 	lea    0x3c85(%rip),%rsi        # c7d8 <_IO_stdin_used+0x118>
    8b53:	48 8d 3d c6 84 20 00 	lea    0x2084c6(%rip),%rdi        # 211020 <_ZSt4cout@@GLIBCXX_3.4>
    8b5a:	e8 71 a2 ff ff       	callq  2dd0 <_ZStlsISt11char_traitsIcEERSt13basic_ostreamIcT_ES5_PKc@plt>
    8b5f:	bf 01 00 00 00       	mov    $0x1,%edi
    8b64:	e8 f7 a2 ff ff       	callq  2e60 <exit@plt>
    8b69:	48 8d 0d d0 3e 00 00 	lea    0x3ed0(%rip),%rcx        # ca40 <_ZZN6matrix6sparse9COOMatrixIifEC4ERKNSt7__cxx1112basic_stringIcSt11char_traitsIcESaIcEEEN4util8PlatformEE19__PRETTY_FUNCTION__>
    8b70:	ba 38 00 00 00       	mov    $0x38,%edx
    8b75:	48 8d 35 e7 3d 00 00 	lea    0x3de7(%rip),%rsi        # c963 <_IO_stdin_used+0x2a3>
    8b7c:	48 8d 3d ef 3d 00 00 	lea    0x3def(%rip),%rdi        # c972 <_IO_stdin_used+0x2b2>
    8b83:	e8 78 a1 ff ff       	callq  2d00 <__assert_fail@plt>
    8b88:	e8 73 a2 ff ff       	callq  2e00 <__stack_chk_fail@plt>
    8b8d:	48 89 c3             	mov    %rax,%rbx
    8b90:	c5 f8 77             	vzeroupper 
    8b93:	48 8b 45 48          	mov    0x48(%rbp),%rax
    8b97:	48 85 c0             	test   %rax,%rax
    8b9a:	74 0e                	je     8baa <_ZN6matrix6sparse9COOMatrixIifEC1ERKNSt7__cxx1112basic_stringIcSt11char_traitsIcESaIcEEEN4util8PlatformE+0x44a>
    8b9c:	48 8d 7d 38          	lea    0x38(%rbp),%rdi
    8ba0:	ba 03 00 00 00       	mov    $0x3,%edx
    8ba5:	48 89 fe             	mov    %rdi,%rsi
    8ba8:	ff d0                	callq  *%rax
    8baa:	48 89 df             	mov    %rbx,%rdi
    8bad:	e8 3e a4 ff ff       	callq  2ff0 <_Unwind_Resume@plt>
    8bb2:	48 89 c3             	mov    %rax,%rbx
    8bb5:	4c 89 e7             	mov    %r12,%rdi
    8bb8:	c5 f8 77             	vzeroupper 
    8bbb:	e8 10 be ff ff       	callq  49d0 <_ZN4util2io3MMFIifED1Ev>
    8bc0:	eb d1                	jmp    8b93 <_ZN6matrix6sparse9COOMatrixIifEC1ERKNSt7__cxx1112basic_stringIcSt11char_traitsIcESaIcEEEN4util8PlatformE+0x433>
    8bc2:	66 2e 0f 1f 84 00 00 	nopw   %cs:0x0(%rax,%rax,1)
    8bc9:	00 00 00 
    8bcc:	0f 1f 40 00          	nopl   0x0(%rax)

0000000000008bd0 <_ZN6matrix6sparse9COOMatrixIidEC1ERKNSt7__cxx1112basic_stringIcSt11char_traitsIcESaIcEEEN4util8PlatformE>:
    8bd0:	41 56                	push   %r14
    8bd2:	41 55                	push   %r13
    8bd4:	41 54                	push   %r12
    8bd6:	55                   	push   %rbp
    8bd7:	48 89 fd             	mov    %rdi,%rbp
    8bda:	53                   	push   %rbx
    8bdb:	48 89 f3             	mov    %rsi,%rbx
    8bde:	48 81 ec a0 02 00 00 	sub    $0x2a0,%rsp
    8be5:	89 57 08             	mov    %edx,0x8(%rdi)
    8be8:	64 48 8b 04 25 28 00 	mov    %fs:0x28,%rax
    8bef:	00 00 
    8bf1:	48 89 84 24 98 02 00 	mov    %rax,0x298(%rsp)
    8bf8:	00 
    8bf9:	31 c0                	xor    %eax,%eax
    8bfb:	48 8d 05 06 7b 20 00 	lea    0x207b06(%rip),%rax        # 210708 <_ZTVN6matrix6sparse9COOMatrixIidEE+0x10>
    8c02:	4c 8d 64 24 60       	lea    0x60(%rsp),%r12
    8c07:	48 89 07             	mov    %rax,(%rdi)
    8c0a:	e8 71 a3 ff ff       	callq  2f80 <omp_get_max_threads@plt>
    8c0f:	c6 45 1c 01          	movb   $0x1,0x1c(%rbp)
    8c13:	48 89 de             	mov    %rbx,%rsi
    8c16:	4c 89 e7             	mov    %r12,%rdi
    8c19:	89 45 0c             	mov    %eax,0xc(%rbp)
    8c1c:	48 c7 45 48 00 00 00 	movq   $0x0,0x48(%rbp)
    8c23:	00 
    8c24:	e8 a7 ec ff ff       	callq  78d0 <_ZN4util2io3MMFIidEC1ERKNSt7__cxx1112basic_stringIcSt11char_traitsIcESaIcEEE>
    8c29:	8b 44 24 60          	mov    0x60(%rsp),%eax
    8c2d:	80 bc 24 78 02 00 00 	cmpb   $0x0,0x278(%rsp)
    8c34:	00 
    8c35:	89 45 10             	mov    %eax,0x10(%rbp)
    8c38:	8b 44 24 64          	mov    0x64(%rsp),%eax
    8c3c:	89 45 14             	mov    %eax,0x14(%rbp)
    8c3f:	75 0e                	jne    8c4f <_ZN6matrix6sparse9COOMatrixIidEC1ERKNSt7__cxx1112basic_stringIcSt11char_traitsIcESaIcEEEN4util8PlatformE+0x7f>
    8c41:	80 bc 24 79 02 00 00 	cmpb   $0x0,0x279(%rsp)
    8c48:	00 
    8c49:	0f 84 01 03 00 00    	je     8f50 <_ZN6matrix6sparse9COOMatrixIidEC1ERKNSt7__cxx1112basic_stringIcSt11char_traitsIcESaIcEEEN4util8PlatformE+0x380>
    8c4f:	48 8b bc 24 88 02 00 	mov    0x288(%rsp),%rdi
    8c56:	00 
    8c57:	48 2b bc 24 80 02 00 	sub    0x280(%rsp),%rdi
    8c5e:	00 
    8c5f:	48 c1 ff 04          	sar    $0x4,%rdi
    8c63:	89 7d 18             	mov    %edi,0x18(%rbp)
    8c66:	8b 75 08             	mov    0x8(%rbp),%esi
    8c69:	48 63 ff             	movslq %edi,%rdi
    8c6c:	48 c1 e7 02          	shl    $0x2,%rdi
    8c70:	e8 5b 2b 00 00       	callq  b7d0 <_ZN4util14internal_allocEmNS_8PlatformE>
    8c75:	48 63 7d 18          	movslq 0x18(%rbp),%rdi
    8c79:	8b 75 08             	mov    0x8(%rbp),%esi
    8c7c:	48 89 45 20          	mov    %rax,0x20(%rbp)
    8c80:	48 c1 e7 02          	shl    $0x2,%rdi
    8c84:	e8 47 2b 00 00       	callq  b7d0 <_ZN4util14internal_allocEmNS_8PlatformE>
    8c89:	48 63 7d 18          	movslq 0x18(%rbp),%rdi
    8c8d:	8b 75 08             	mov    0x8(%rbp),%esi
    8c90:	48 89 45 28          	mov    %rax,0x28(%rbp)
    8c94:	48 c1 e7 03          	shl    $0x3,%rdi
    8c98:	e8 33 2b 00 00       	callq  b7d0 <_ZN4util14internal_allocEmNS_8PlatformE>
    8c9d:	48 89 45 30          	mov    %rax,0x30(%rbp)
    8ca1:	49 89 e5             	mov    %rsp,%r13
    8ca4:	31 d2                	xor    %edx,%edx
    8ca6:	4c 89 e6             	mov    %r12,%rsi
    8ca9:	4c 89 ef             	mov    %r13,%rdi
    8cac:	e8 cf d1 ff ff       	callq  5e80 <_ZN4util2io3MMFIidE8iteratorC1EPS2_m>
    8cb1:	80 bc 24 78 02 00 00 	cmpb   $0x0,0x278(%rsp)
    8cb8:	00 
    8cb9:	75 0e                	jne    8cc9 <_ZN6matrix6sparse9COOMatrixIidEC1ERKNSt7__cxx1112basic_stringIcSt11char_traitsIcESaIcEEEN4util8PlatformE+0xf9>
    8cbb:	80 bc 24 79 02 00 00 	cmpb   $0x0,0x279(%rsp)
    8cc2:	00 
    8cc3:	0f 84 67 02 00 00    	je     8f30 <_ZN6matrix6sparse9COOMatrixIidEC1ERKNSt7__cxx1112basic_stringIcSt11char_traitsIcESaIcEEEN4util8PlatformE+0x360>
    8cc9:	48 8b 94 24 88 02 00 	mov    0x288(%rsp),%rdx
    8cd0:	00 
    8cd1:	48 8d 7c 24 30       	lea    0x30(%rsp),%rdi
    8cd6:	4c 89 e6             	mov    %r12,%rsi
    8cd9:	48 2b 94 24 80 02 00 	sub    0x280(%rsp),%rdx
    8ce0:	00 
    8ce1:	48 c1 fa 04          	sar    $0x4,%rdx
    8ce5:	e8 96 d1 ff ff       	callq  5e80 <_ZN4util2io3MMFIidE8iteratorC1EPS2_m>
    8cea:	48 8b 3c 24          	mov    (%rsp),%rdi
    8cee:	48 8b 74 24 30       	mov    0x30(%rsp),%rsi
    8cf3:	31 db                	xor    %ebx,%ebx
    8cf5:	4d 8d 75 18          	lea    0x18(%r13),%r14
    8cf9:	eb 7c                	jmp    8d77 <_ZN6matrix6sparse9COOMatrixIidEC1ERKNSt7__cxx1112basic_stringIcSt11char_traitsIcESaIcEEEN4util8PlatformE+0x1a7>
    8cfb:	0f 1f 44 00 00       	nopl   0x0(%rax,%rax,1)
    8d00:	80 bf 18 02 00 00 00 	cmpb   $0x0,0x218(%rdi)
    8d07:	0f 85 73 01 00 00    	jne    8e80 <_ZN6matrix6sparse9COOMatrixIidEC1ERKNSt7__cxx1112basic_stringIcSt11char_traitsIcESaIcEEEN4util8PlatformE+0x2b0>
    8d0d:	80 bf 19 02 00 00 00 	cmpb   $0x0,0x219(%rdi)
    8d14:	0f 85 b6 01 00 00    	jne    8ed0 <_ZN6matrix6sparse9COOMatrixIidEC1ERKNSt7__cxx1112basic_stringIcSt11char_traitsIcESaIcEEEN4util8PlatformE+0x300>
    8d1a:	80 7c 24 20 00       	cmpb   $0x0,0x20(%rsp)
    8d1f:	0f 84 ed 01 00 00    	je     8f12 <_ZN6matrix6sparse9COOMatrixIidEC1ERKNSt7__cxx1112basic_stringIcSt11char_traitsIcESaIcEEEN4util8PlatformE+0x342>
    8d25:	8b 44 24 10          	mov    0x10(%rsp),%eax
    8d29:	48 8b 55 20          	mov    0x20(%rbp),%rdx
    8d2d:	83 e8 01             	sub    $0x1,%eax
    8d30:	89 04 9a             	mov    %eax,(%rdx,%rbx,4)
    8d33:	8b 44 24 14          	mov    0x14(%rsp),%eax
    8d37:	48 8b 55 28          	mov    0x28(%rbp),%rdx
    8d3b:	83 e8 01             	sub    $0x1,%eax
    8d3e:	89 04 9a             	mov    %eax,(%rdx,%rbx,4)
    8d41:	48 8b 45 30          	mov    0x30(%rbp),%rax
    8d45:	49 8d 55 14          	lea    0x14(%r13),%rdx
    8d49:	49 8d 75 10          	lea    0x10(%r13),%rsi
    8d4d:	4c 89 f1             	mov    %r14,%rcx
    8d50:	c5 fb 10 44 24 18    	vmovsd 0x18(%rsp),%xmm0
    8d56:	c5 fb 11 04 d8       	vmovsd %xmm0,(%rax,%rbx,8)
    8d5b:	48 83 44 24 08 01    	addq   $0x1,0x8(%rsp)
    8d61:	e8 1a cf ff ff       	callq  5c80 <_ZN4util2io3MMFIidE7GetNextERiS3_Rd>
    8d66:	48 8b 3c 24          	mov    (%rsp),%rdi
    8d6a:	48 8b 74 24 30       	mov    0x30(%rsp),%rsi
    8d6f:	88 44 24 20          	mov    %al,0x20(%rsp)
    8d73:	48 83 c3 01          	add    $0x1,%rbx
    8d77:	48 39 fe             	cmp    %rdi,%rsi
    8d7a:	75 84                	jne    8d00 <_ZN6matrix6sparse9COOMatrixIidEC1ERKNSt7__cxx1112basic_stringIcSt11char_traitsIcESaIcEEEN4util8PlatformE+0x130>
    8d7c:	48 8b 4c 24 38       	mov    0x38(%rsp),%rcx
    8d81:	48 39 4c 24 08       	cmp    %rcx,0x8(%rsp)
    8d86:	0f 85 74 ff ff ff    	jne    8d00 <_ZN6matrix6sparse9COOMatrixIidEC1ERKNSt7__cxx1112basic_stringIcSt11char_traitsIcESaIcEEEN4util8PlatformE+0x130>
    8d8c:	39 5d 18             	cmp    %ebx,0x18(%rbp)
    8d8f:	0f 85 fc 01 00 00    	jne    8f91 <_ZN6matrix6sparse9COOMatrixIidEC1ERKNSt7__cxx1112basic_stringIcSt11char_traitsIcESaIcEEEN4util8PlatformE+0x3c1>
    8d95:	49 8d bc 24 88 00 00 	lea    0x88(%r12),%rdi
    8d9c:	00 
    8d9d:	e8 5e 9e ff ff       	callq  2c00 <_ZNKSt12__basic_fileIcE7is_openEv@plt>
    8da2:	84 c0                	test   %al,%al
    8da4:	0f 85 b6 01 00 00    	jne    8f60 <_ZN6matrix6sparse9COOMatrixIidEC1ERKNSt7__cxx1112basic_stringIcSt11char_traitsIcESaIcEEEN4util8PlatformE+0x390>
    8daa:	48 8b bc 24 80 02 00 	mov    0x280(%rsp),%rdi
    8db1:	00 
    8db2:	48 85 ff             	test   %rdi,%rdi
    8db5:	74 05                	je     8dbc <_ZN6matrix6sparse9COOMatrixIidEC1ERKNSt7__cxx1112basic_stringIcSt11char_traitsIcESaIcEEEN4util8PlatformE+0x1ec>
    8db7:	e8 04 a0 ff ff       	callq  2dc0 <_ZdlPv@plt>
    8dbc:	48 8d 05 0d 7b 20 00 	lea    0x207b0d(%rip),%rax        # 2108d0 <_ZTVSt14basic_ifstreamIcSt11char_traitsIcEE@@GLIBCXX_3.4+0x18>
    8dc3:	49 8d 7c 24 20       	lea    0x20(%r12),%rdi
    8dc8:	48 89 44 24 70       	mov    %rax,0x70(%rsp)
    8dcd:	48 83 c0 28          	add    $0x28,%rax
    8dd1:	48 89 84 24 70 01 00 	mov    %rax,0x170(%rsp)
    8dd8:	00 
    8dd9:	48 8d 05 38 7b 20 00 	lea    0x207b38(%rip),%rax        # 210918 <_ZTVSt13basic_filebufIcSt11char_traitsIcEE@@GLIBCXX_3.4+0x10>
    8de0:	48 89 84 24 80 00 00 	mov    %rax,0x80(%rsp)
    8de7:	00 
    8de8:	e8 03 9e ff ff       	callq  2bf0 <_ZNSt13basic_filebufIcSt11char_traitsIcEE5closeEv@plt>
    8ded:	49 8d bc 24 88 00 00 	lea    0x88(%r12),%rdi
    8df4:	00 
    8df5:	e8 46 a2 ff ff       	callq  3040 <_ZNSt12__basic_fileIcED1Ev@plt>
    8dfa:	48 8d 05 47 7a 20 00 	lea    0x207a47(%rip),%rax        # 210848 <_ZTVSt15basic_streambufIcSt11char_traitsIcEE@@GLIBCXX_3.4+0x10>
    8e01:	49 8d 7c 24 58       	lea    0x58(%r12),%rdi
    8e06:	48 89 84 24 80 00 00 	mov    %rax,0x80(%rsp)
    8e0d:	00 
    8e0e:	e8 ad a0 ff ff       	callq  2ec0 <_ZNSt6localeD1Ev@plt>
    8e13:	48 8b 05 76 7b 20 00 	mov    0x207b76(%rip),%rax        # 210990 <_ZTTSt14basic_ifstreamIcSt11char_traitsIcEE@@GLIBCXX_3.4+0x8>
    8e1a:	48 8b 15 77 7b 20 00 	mov    0x207b77(%rip),%rdx        # 210998 <_ZTTSt14basic_ifstreamIcSt11char_traitsIcEE@@GLIBCXX_3.4+0x10>
    8e21:	49 8d bc 24 10 01 00 	lea    0x110(%r12),%rdi
    8e28:	00 
    8e29:	48 89 44 24 70       	mov    %rax,0x70(%rsp)
    8e2e:	48 8b 40 e8          	mov    -0x18(%rax),%rax
    8e32:	48 89 54 04 70       	mov    %rdx,0x70(%rsp,%rax,1)
    8e37:	48 8d 05 ea 79 20 00 	lea    0x2079ea(%rip),%rax        # 210828 <_ZTVSt9basic_iosIcSt11char_traitsIcEE@@GLIBCXX_3.4+0x10>
    8e3e:	48 89 84 24 70 01 00 	mov    %rax,0x170(%rsp)
    8e45:	00 
    8e46:	48 c7 44 24 78 00 00 	movq   $0x0,0x78(%rsp)
    8e4d:	00 00 
    8e4f:	e8 ec 9d ff ff       	callq  2c40 <_ZNSt8ios_baseD2Ev@plt>
    8e54:	48 8b 84 24 98 02 00 	mov    0x298(%rsp),%rax
    8e5b:	00 
    8e5c:	64 48 33 04 25 28 00 	xor    %fs:0x28,%rax
    8e63:	00 00 
    8e65:	0f 85 7a 01 00 00    	jne    8fe5 <_ZN6matrix6sparse9COOMatrixIidEC1ERKNSt7__cxx1112basic_stringIcSt11char_traitsIcESaIcEEEN4util8PlatformE+0x415>
    8e6b:	48 81 c4 a0 02 00 00 	add    $0x2a0,%rsp
    8e72:	5b                   	pop    %rbx
    8e73:	5d                   	pop    %rbp
    8e74:	41 5c                	pop    %r12
    8e76:	41 5d                	pop    %r13
    8e78:	41 5e                	pop    %r14
    8e7a:	c3                   	retq   
    8e7b:	0f 1f 44 00 00       	nopl   0x0(%rax,%rax,1)
    8e80:	48 8b 54 24 08       	mov    0x8(%rsp),%rdx
    8e85:	4c 8b 45 20          	mov    0x20(%rbp),%r8
    8e89:	48 89 d0             	mov    %rdx,%rax
    8e8c:	48 c1 e0 04          	shl    $0x4,%rax
    8e90:	48 03 87 20 02 00 00 	add    0x220(%rdi),%rax
    8e97:	8b 08                	mov    (%rax),%ecx
    8e99:	83 e9 01             	sub    $0x1,%ecx
    8e9c:	41 89 0c 98          	mov    %ecx,(%r8,%rbx,4)
    8ea0:	8b 48 04             	mov    0x4(%rax),%ecx
    8ea3:	4c 8b 45 28          	mov    0x28(%rbp),%r8
    8ea7:	83 e9 01             	sub    $0x1,%ecx
    8eaa:	41 89 0c 98          	mov    %ecx,(%r8,%rbx,4)
    8eae:	c5 fb 10 40 08       	vmovsd 0x8(%rax),%xmm0
    8eb3:	48 8b 45 30          	mov    0x30(%rbp),%rax
    8eb7:	48 83 c2 01          	add    $0x1,%rdx
    8ebb:	c5 fb 11 04 d8       	vmovsd %xmm0,(%rax,%rbx,8)
    8ec0:	48 89 54 24 08       	mov    %rdx,0x8(%rsp)
    8ec5:	e9 a9 fe ff ff       	jmpq   8d73 <_ZN6matrix6sparse9COOMatrixIidEC1ERKNSt7__cxx1112basic_stringIcSt11char_traitsIcESaIcEEEN4util8PlatformE+0x1a3>
    8eca:	66 0f 1f 44 00 00    	nopw   0x0(%rax,%rax,1)
    8ed0:	48 8b 54 24 08       	mov    0x8(%rsp),%rdx
    8ed5:	4c 8b 45 20          	mov    0x20(%rbp),%r8
    8ed9:	48 89 d0             	mov    %rdx,%rax
    8edc:	48 c1 e0 04          	shl    $0x4,%rax
    8ee0:	48 03 87 20 02 00 00 	add    0x220(%rdi),%rax
    8ee7:	8b 08                	mov    (%rax),%ecx
    8ee9:	83 e9 01             	sub    $0x1,%ecx
    8eec:	41 89 0c 98          	mov    %ecx,(%r8,%rbx,4)
    8ef0:	8b 48 04             	mov    0x4(%rax),%ecx
    8ef3:	4c 8b 45 28          	mov    0x28(%rbp),%r8
    8ef7:	83 e9 01             	sub    $0x1,%ecx
    8efa:	80 bf 19 02 00 00 00 	cmpb   $0x0,0x219(%rdi)
    8f01:	41 89 0c 98          	mov    %ecx,(%r8,%rbx,4)
    8f05:	75 a7                	jne    8eae <_ZN6matrix6sparse9COOMatrixIidEC1ERKNSt7__cxx1112basic_stringIcSt11char_traitsIcESaIcEEEN4util8PlatformE+0x2de>
    8f07:	80 7c 24 20 00       	cmpb   $0x0,0x20(%rsp)
    8f0c:	0f 85 2f fe ff ff    	jne    8d41 <_ZN6matrix6sparse9COOMatrixIidEC1ERKNSt7__cxx1112basic_stringIcSt11char_traitsIcESaIcEEEN4util8PlatformE+0x171>
    8f12:	48 8d 35 bf 38 00 00 	lea    0x38bf(%rip),%rsi        # c7d8 <_IO_stdin_used+0x118>
    8f19:	48 8d 3d 00 81 20 00 	lea    0x208100(%rip),%rdi        # 211020 <_ZSt4cout@@GLIBCXX_3.4>
    8f20:	e8 ab 9e ff ff       	callq  2dd0 <_ZStlsISt11char_traitsIcEERSt13basic_ostreamIcT_ES5_PKc@plt>
    8f25:	bf 01 00 00 00       	mov    $0x1,%edi
    8f2a:	e8 31 9f ff ff       	callq  2e60 <exit@plt>
    8f2f:	90                   	nop
    8f30:	48 63 54 24 68       	movslq 0x68(%rsp),%rdx
    8f35:	48 8d 7c 24 30       	lea    0x30(%rsp),%rdi
    8f3a:	4c 89 e6             	mov    %r12,%rsi
    8f3d:	e8 3e cf ff ff       	callq  5e80 <_ZN4util2io3MMFIidE8iteratorC1EPS2_m>
    8f42:	e9 a3 fd ff ff       	jmpq   8cea <_ZN6matrix6sparse9COOMatrixIidEC1ERKNSt7__cxx1112basic_stringIcSt11char_traitsIcESaIcEEEN4util8PlatformE+0x11a>
    8f47:	66 0f 1f 84 00 00 00 	nopw   0x0(%rax,%rax,1)
    8f4e:	00 00 
    8f50:	8b 7c 24 68          	mov    0x68(%rsp),%edi
    8f54:	e9 0a fd ff ff       	jmpq   8c63 <_ZN6matrix6sparse9COOMatrixIidEC1ERKNSt7__cxx1112basic_stringIcSt11char_traitsIcESaIcEEEN4util8PlatformE+0x93>
    8f59:	0f 1f 80 00 00 00 00 	nopl   0x0(%rax)
    8f60:	49 8d 7c 24 20       	lea    0x20(%r12),%rdi
    8f65:	e8 86 9c ff ff       	callq  2bf0 <_ZNSt13basic_filebufIcSt11char_traitsIcEE5closeEv@plt>
    8f6a:	48 85 c0             	test   %rax,%rax
    8f6d:	0f 85 37 fe ff ff    	jne    8daa <_ZN6matrix6sparse9COOMatrixIidEC1ERKNSt7__cxx1112basic_stringIcSt11char_traitsIcESaIcEEEN4util8PlatformE+0x1da>
    8f73:	48 8b 44 24 70       	mov    0x70(%rsp),%rax
    8f78:	48 8b 40 e8          	mov    -0x18(%rax),%rax
    8f7c:	49 8d 7c 04 10       	lea    0x10(%r12,%rax,1),%rdi
    8f81:	8b 77 20             	mov    0x20(%rdi),%esi
    8f84:	83 ce 04             	or     $0x4,%esi
    8f87:	e8 24 a0 ff ff       	callq  2fb0 <_ZNSt9basic_iosIcSt11char_traitsIcEE5clearESt12_Ios_Iostate@plt>
    8f8c:	e9 19 fe ff ff       	jmpq   8daa <_ZN6matrix6sparse9COOMatrixIidEC1ERKNSt7__cxx1112basic_stringIcSt11char_traitsIcESaIcEEEN4util8PlatformE+0x1da>
    8f91:	48 8d 0d e8 39 00 00 	lea    0x39e8(%rip),%rcx        # c980 <_ZZN6matrix6sparse9COOMatrixIidEC4ERKNSt7__cxx1112basic_stringIcSt11char_traitsIcESaIcEEEN4util8PlatformEE19__PRETTY_FUNCTION__>
    8f98:	ba 38 00 00 00       	mov    $0x38,%edx
    8f9d:	48 8d 35 bf 39 00 00 	lea    0x39bf(%rip),%rsi        # c963 <_IO_stdin_used+0x2a3>
    8fa4:	48 8d 3d c7 39 00 00 	lea    0x39c7(%rip),%rdi        # c972 <_IO_stdin_used+0x2b2>
    8fab:	e8 50 9d ff ff       	callq  2d00 <__assert_fail@plt>
    8fb0:	48 89 c3             	mov    %rax,%rbx
    8fb3:	c5 f8 77             	vzeroupper 
    8fb6:	48 8b 45 48          	mov    0x48(%rbp),%rax
    8fba:	48 85 c0             	test   %rax,%rax
    8fbd:	74 0e                	je     8fcd <_ZN6matrix6sparse9COOMatrixIidEC1ERKNSt7__cxx1112basic_stringIcSt11char_traitsIcESaIcEEEN4util8PlatformE+0x3fd>
    8fbf:	48 8d 7d 38          	lea    0x38(%rbp),%rdi
    8fc3:	ba 03 00 00 00       	mov    $0x3,%edx
    8fc8:	48 89 fe             	mov    %rdi,%rsi
    8fcb:	ff d0                	callq  *%rax
    8fcd:	48 89 df             	mov    %rbx,%rdi
    8fd0:	e8 1b a0 ff ff       	callq  2ff0 <_Unwind_Resume@plt>
    8fd5:	48 89 c3             	mov    %rax,%rbx
    8fd8:	4c 89 e7             	mov    %r12,%rdi
    8fdb:	c5 f8 77             	vzeroupper 
    8fde:	e8 4d be ff ff       	callq  4e30 <_ZN4util2io3MMFIidED1Ev>
    8fe3:	eb d1                	jmp    8fb6 <_ZN6matrix6sparse9COOMatrixIidEC1ERKNSt7__cxx1112basic_stringIcSt11char_traitsIcESaIcEEEN4util8PlatformE+0x3e6>
    8fe5:	e8 16 9e ff ff       	callq  2e00 <__stack_chk_fail@plt>
    8fea:	66 0f 1f 44 00 00    	nopw   0x0(%rax,%rax,1)

0000000000008ff0 <_ZNK6matrix6sparse9CSRMatrixIifE5nrowsEv>:
    8ff0:	8b 47 0c             	mov    0xc(%rdi),%eax
    8ff3:	c3                   	retq   
    8ff4:	66 2e 0f 1f 84 00 00 	nopw   %cs:0x0(%rax,%rax,1)
    8ffb:	00 00 00 
    8ffe:	66 90                	xchg   %ax,%ax

0000000000009000 <_ZNK6matrix6sparse9CSRMatrixIifE5ncolsEv>:
    9000:	8b 47 10             	mov    0x10(%rdi),%eax
    9003:	c3                   	retq   
    9004:	66 2e 0f 1f 84 00 00 	nopw   %cs:0x0(%rax,%rax,1)
    900b:	00 00 00 
    900e:	66 90                	xchg   %ax,%ax

0000000000009010 <_ZNK6matrix6sparse9CSRMatrixIifE3nnzEv>:
    9010:	8b 47 14             	mov    0x14(%rdi),%eax
    9013:	c3                   	retq   
    9014:	66 2e 0f 1f 84 00 00 	nopw   %cs:0x0(%rax,%rax,1)
    901b:	00 00 00 
    901e:	66 90                	xchg   %ax,%ax

0000000000009020 <_ZNK6matrix6sparse9CSRMatrixIifE4sizeEv>:
    9020:	8b 47 0c             	mov    0xc(%rdi),%eax
    9023:	48 63 57 14          	movslq 0x14(%rdi),%rdx
    9027:	83 c0 01             	add    $0x1,%eax
    902a:	48 98                	cltq   
    902c:	48 8d 04 50          	lea    (%rax,%rdx,2),%rax
    9030:	48 c1 e0 02          	shl    $0x2,%rax
    9034:	80 7f 39 00          	cmpb   $0x0,0x39(%rdi)
    9038:	74 0d                	je     9047 <_ZNK6matrix6sparse9CSRMatrixIifE4sizeEv+0x27>
    903a:	8b 57 3c             	mov    0x3c(%rdi),%edx
    903d:	83 c2 01             	add    $0x1,%edx
    9040:	48 63 d2             	movslq %edx,%rdx
    9043:	48 8d 04 90          	lea    (%rax,%rdx,4),%rax
    9047:	c3                   	retq   
    9048:	0f 1f 84 00 00 00 00 	nopl   0x0(%rax,%rax,1)
    904f:	00 

0000000000009050 <_ZNK6matrix6sparse9CSRMatrixIifE8platformEv>:
    9050:	8b 47 08             	mov    0x8(%rdi),%eax
    9053:	c3                   	retq   
    9054:	66 2e 0f 1f 84 00 00 	nopw   %cs:0x0(%rax,%rax,1)
    905b:	00 00 00 
    905e:	66 90                	xchg   %ax,%ax

0000000000009060 <_ZNK6matrix6sparse9CSRMatrixIidE5nrowsEv>:
    9060:	8b 47 0c             	mov    0xc(%rdi),%eax
    9063:	c3                   	retq   
    9064:	66 2e 0f 1f 84 00 00 	nopw   %cs:0x0(%rax,%rax,1)
    906b:	00 00 00 
    906e:	66 90                	xchg   %ax,%ax

0000000000009070 <_ZNK6matrix6sparse9CSRMatrixIidE5ncolsEv>:
    9070:	8b 47 10             	mov    0x10(%rdi),%eax
    9073:	c3                   	retq   
    9074:	66 2e 0f 1f 84 00 00 	nopw   %cs:0x0(%rax,%rax,1)
    907b:	00 00 00 
    907e:	66 90                	xchg   %ax,%ax

0000000000009080 <_ZNK6matrix6sparse9CSRMatrixIidE3nnzEv>:
    9080:	8b 47 14             	mov    0x14(%rdi),%eax
    9083:	c3                   	retq   
    9084:	66 2e 0f 1f 84 00 00 	nopw   %cs:0x0(%rax,%rax,1)
    908b:	00 00 00 
    908e:	66 90                	xchg   %ax,%ax

0000000000009090 <_ZNK6matrix6sparse9CSRMatrixIidE4sizeEv>:
    9090:	8b 47 0c             	mov    0xc(%rdi),%eax
    9093:	48 63 57 14          	movslq 0x14(%rdi),%rdx
    9097:	83 c0 01             	add    $0x1,%eax
    909a:	48 8d 14 52          	lea    (%rdx,%rdx,2),%rdx
    909e:	48 c1 e2 02          	shl    $0x2,%rdx
    90a2:	48 98                	cltq   
    90a4:	80 7f 39 00          	cmpb   $0x0,0x39(%rdi)
    90a8:	48 8d 04 82          	lea    (%rdx,%rax,4),%rax
    90ac:	74 0d                	je     90bb <_ZNK6matrix6sparse9CSRMatrixIidE4sizeEv+0x2b>
    90ae:	8b 57 3c             	mov    0x3c(%rdi),%edx
    90b1:	83 c2 01             	add    $0x1,%edx
    90b4:	48 63 d2             	movslq %edx,%rdx
    90b7:	48 8d 04 90          	lea    (%rax,%rdx,4),%rax
    90bb:	c3                   	retq   
    90bc:	0f 1f 40 00          	nopl   0x0(%rax)

00000000000090c0 <_ZNK6matrix6sparse9CSRMatrixIidE8platformEv>:
    90c0:	8b 47 08             	mov    0x8(%rdi),%eax
    90c3:	c3                   	retq   
    90c4:	66 2e 0f 1f 84 00 00 	nopw   %cs:0x0(%rax,%rax,1)
    90cb:	00 00 00 
    90ce:	66 90                	xchg   %ax,%ax

00000000000090d0 <_ZN6matrix6sparse9CSRMatrixIifEC2ERKNSt7__cxx1112basic_stringIcSt11char_traitsIcESaIcEEEN4util8PlatformE._omp_fn.0>:
    90d0:	41 54                	push   %r12
    90d2:	55                   	push   %rbp
    90d3:	53                   	push   %rbx
    90d4:	48 8b 1f             	mov    (%rdi),%rbx
    90d7:	e8 74 9f ff ff       	callq  3050 <omp_get_num_threads@plt>
    90dc:	89 c5                	mov    %eax,%ebp
    90de:	e8 4d 9e ff ff       	callq  2f30 <omp_get_thread_num@plt>
    90e3:	41 89 c4             	mov    %eax,%r12d
    90e6:	8b 43 0c             	mov    0xc(%rbx),%eax
    90e9:	83 c0 01             	add    $0x1,%eax
    90ec:	99                   	cltd   
    90ed:	f7 fd                	idiv   %ebp
    90ef:	41 39 d4             	cmp    %edx,%r12d
    90f2:	7d 05                	jge    90f9 <_ZN6matrix6sparse9CSRMatrixIifEC2ERKNSt7__cxx1112basic_stringIcSt11char_traitsIcESaIcEEEN4util8PlatformE._omp_fn.0+0x29>
    90f4:	83 c0 01             	add    $0x1,%eax
    90f7:	31 d2                	xor    %edx,%edx
    90f9:	89 c1                	mov    %eax,%ecx
    90fb:	41 0f af cc          	imul   %r12d,%ecx
    90ff:	01 ca                	add    %ecx,%edx
    9101:	01 d0                	add    %edx,%eax
    9103:	39 c2                	cmp    %eax,%edx
    9105:	7d 2d                	jge    9134 <_ZN6matrix6sparse9CSRMatrixIifEC2ERKNSt7__cxx1112basic_stringIcSt11char_traitsIcESaIcEEEN4util8PlatformE._omp_fn.0+0x64>
    9107:	29 d0                	sub    %edx,%eax
    9109:	48 63 f2             	movslq %edx,%rsi
    910c:	83 e8 01             	sub    $0x1,%eax
    910f:	48 8d 0c b5 00 00 00 	lea    0x0(,%rsi,4),%rcx
    9116:	00 
    9117:	48 8d 54 06 01       	lea    0x1(%rsi,%rax,1),%rdx
    911c:	48 c1 e2 02          	shl    $0x2,%rdx
    9120:	48 8b 43 20          	mov    0x20(%rbx),%rax
    9124:	c7 04 08 00 00 00 00 	movl   $0x0,(%rax,%rcx,1)
    912b:	48 83 c1 04          	add    $0x4,%rcx
    912f:	48 39 ca             	cmp    %rcx,%rdx
    9132:	75 ec                	jne    9120 <_ZN6matrix6sparse9CSRMatrixIifEC2ERKNSt7__cxx1112basic_stringIcSt11char_traitsIcESaIcEEEN4util8PlatformE._omp_fn.0+0x50>
    9134:	e8 e7 9e ff ff       	callq  3020 <GOMP_barrier@plt>
    9139:	8b 43 14             	mov    0x14(%rbx),%eax
    913c:	99                   	cltd   
    913d:	f7 fd                	idiv   %ebp
    913f:	41 39 d4             	cmp    %edx,%r12d
    9142:	7d 05                	jge    9149 <_ZN6matrix6sparse9CSRMatrixIifEC2ERKNSt7__cxx1112basic_stringIcSt11char_traitsIcESaIcEEEN4util8PlatformE._omp_fn.0+0x79>
    9144:	83 c0 01             	add    $0x1,%eax
    9147:	31 d2                	xor    %edx,%edx
    9149:	44 0f af e0          	imul   %eax,%r12d
    914d:	44 01 e2             	add    %r12d,%edx
    9150:	01 d0                	add    %edx,%eax
    9152:	39 c2                	cmp    %eax,%edx
    9154:	7d 39                	jge    918f <_ZN6matrix6sparse9CSRMatrixIifEC2ERKNSt7__cxx1112basic_stringIcSt11char_traitsIcESaIcEEEN4util8PlatformE._omp_fn.0+0xbf>
    9156:	29 d0                	sub    %edx,%eax
    9158:	48 63 f2             	movslq %edx,%rsi
    915b:	83 e8 01             	sub    $0x1,%eax
    915e:	48 8d 0c b5 00 00 00 	lea    0x0(,%rsi,4),%rcx
    9165:	00 
    9166:	48 8d 54 06 01       	lea    0x1(%rsi,%rax,1),%rdx
    916b:	48 c1 e2 02          	shl    $0x2,%rdx
    916f:	90                   	nop
    9170:	48 8b 43 28          	mov    0x28(%rbx),%rax
    9174:	c7 04 08 00 00 00 00 	movl   $0x0,(%rax,%rcx,1)
    917b:	48 8b 43 30          	mov    0x30(%rbx),%rax
    917f:	c7 04 08 00 00 00 00 	movl   $0x0,(%rax,%rcx,1)
    9186:	48 83 c1 04          	add    $0x4,%rcx
    918a:	48 39 d1             	cmp    %rdx,%rcx
    918d:	75 e1                	jne    9170 <_ZN6matrix6sparse9CSRMatrixIifEC2ERKNSt7__cxx1112basic_stringIcSt11char_traitsIcESaIcEEEN4util8PlatformE._omp_fn.0+0xa0>
    918f:	5b                   	pop    %rbx
    9190:	5d                   	pop    %rbp
    9191:	41 5c                	pop    %r12
    9193:	c3                   	retq   
    9194:	66 2e 0f 1f 84 00 00 	nopw   %cs:0x0(%rax,%rax,1)
    919b:	00 00 00 
    919e:	66 90                	xchg   %ax,%ax

00000000000091a0 <_ZN6matrix6sparse9CSRMatrixIifE14cpu_mv_vanillaEPfPKf>:
    91a0:	48 83 ec 28          	sub    $0x28,%rsp
    91a4:	c4 e1 f9 6e cf       	vmovq  %rdi,%xmm1
    91a9:	31 c9                	xor    %ecx,%ecx
    91ab:	64 48 8b 04 25 28 00 	mov    %fs:0x28,%rax
    91b2:	00 00 
    91b4:	48 89 44 24 18       	mov    %rax,0x18(%rsp)
    91b9:	31 c0                	xor    %eax,%eax
    91bb:	8b 47 3c             	mov    0x3c(%rdi),%eax
    91be:	c4 e3 f1 22 c6 01    	vpinsrq $0x1,%rsi,%xmm1,%xmm0
    91c4:	48 89 54 24 10       	mov    %rdx,0x10(%rsp)
    91c9:	48 89 e6             	mov    %rsp,%rsi
    91cc:	48 8d 3d 2d 03 00 00 	lea    0x32d(%rip),%rdi        # 9500 <_ZN6matrix6sparse9CSRMatrixIifE14cpu_mv_vanillaEPfPKf._omp_fn.1>
    91d3:	c5 f8 29 04 24       	vmovaps %xmm0,(%rsp)
    91d8:	89 c2                	mov    %eax,%edx
    91da:	e8 11 9d ff ff       	callq  2ef0 <GOMP_parallel@plt>
    91df:	48 8b 44 24 18       	mov    0x18(%rsp),%rax
    91e4:	64 48 33 04 25 28 00 	xor    %fs:0x28,%rax
    91eb:	00 00 
    91ed:	75 05                	jne    91f4 <_ZN6matrix6sparse9CSRMatrixIifE14cpu_mv_vanillaEPfPKf+0x54>
    91ef:	48 83 c4 28          	add    $0x28,%rsp
    91f3:	c3                   	retq   
    91f4:	e8 07 9c ff ff       	callq  2e00 <__stack_chk_fail@plt>
    91f9:	0f 1f 80 00 00 00 00 	nopl   0x0(%rax)

0000000000009200 <_ZN6matrix6sparse9CSRMatrixIifE16cpu_mv_split_nnzEPfPKf>:
    9200:	48 83 ec 28          	sub    $0x28,%rsp
    9204:	c4 e1 f9 6e cf       	vmovq  %rdi,%xmm1
    9209:	31 c9                	xor    %ecx,%ecx
    920b:	64 48 8b 04 25 28 00 	mov    %fs:0x28,%rax
    9212:	00 00 
    9214:	48 89 44 24 18       	mov    %rax,0x18(%rsp)
    9219:	31 c0                	xor    %eax,%eax
    921b:	8b 47 3c             	mov    0x3c(%rdi),%eax
    921e:	c4 e3 f1 22 c6 01    	vpinsrq $0x1,%rsi,%xmm1,%xmm0
    9224:	48 89 54 24 10       	mov    %rdx,0x10(%rsp)
    9229:	48 89 e6             	mov    %rsp,%rsi
    922c:	48 8d 3d dd 05 00 00 	lea    0x5dd(%rip),%rdi        # 9810 <_ZN6matrix6sparse9CSRMatrixIifE16cpu_mv_split_nnzEPfPKf._omp_fn.2>
    9233:	c5 f8 29 04 24       	vmovaps %xmm0,(%rsp)
    9238:	89 c2                	mov    %eax,%edx
    923a:	e8 b1 9c ff ff       	callq  2ef0 <GOMP_parallel@plt>
    923f:	48 8b 44 24 18       	mov    0x18(%rsp),%rax
    9244:	64 48 33 04 25 28 00 	xor    %fs:0x28,%rax
    924b:	00 00 
    924d:	75 05                	jne    9254 <_ZN6matrix6sparse9CSRMatrixIifE16cpu_mv_split_nnzEPfPKf+0x54>
    924f:	48 83 c4 28          	add    $0x28,%rsp
    9253:	c3                   	retq   
    9254:	e8 a7 9b ff ff       	callq  2e00 <__stack_chk_fail@plt>
    9259:	0f 1f 80 00 00 00 00 	nopl   0x0(%rax)

0000000000009260 <_ZN6matrix6sparse9CSRMatrixIidE14cpu_mv_vanillaEPdPKd>:
    9260:	48 83 ec 28          	sub    $0x28,%rsp
    9264:	c4 e1 f9 6e cf       	vmovq  %rdi,%xmm1
    9269:	31 c9                	xor    %ecx,%ecx
    926b:	64 48 8b 04 25 28 00 	mov    %fs:0x28,%rax
    9272:	00 00 
    9274:	48 89 44 24 18       	mov    %rax,0x18(%rsp)
    9279:	31 c0                	xor    %eax,%eax
    927b:	8b 47 3c             	mov    0x3c(%rdi),%eax
    927e:	c4 e3 f1 22 c6 01    	vpinsrq $0x1,%rsi,%xmm1,%xmm0
    9284:	48 89 54 24 10       	mov    %rdx,0x10(%rsp)
    9289:	48 89 e6             	mov    %rsp,%rsi
    928c:	48 8d 3d 6d 09 00 00 	lea    0x96d(%rip),%rdi        # 9c00 <_ZN6matrix6sparse9CSRMatrixIidE14cpu_mv_vanillaEPdPKd._omp_fn.4>
    9293:	c5 f8 29 04 24       	vmovaps %xmm0,(%rsp)
    9298:	89 c2                	mov    %eax,%edx
    929a:	e8 51 9c ff ff       	callq  2ef0 <GOMP_parallel@plt>
    929f:	48 8b 44 24 18       	mov    0x18(%rsp),%rax
    92a4:	64 48 33 04 25 28 00 	xor    %fs:0x28,%rax
    92ab:	00 00 
    92ad:	75 05                	jne    92b4 <_ZN6matrix6sparse9CSRMatrixIidE14cpu_mv_vanillaEPdPKd+0x54>
    92af:	48 83 c4 28          	add    $0x28,%rsp
    92b3:	c3                   	retq   
    92b4:	e8 47 9b ff ff       	callq  2e00 <__stack_chk_fail@plt>
    92b9:	0f 1f 80 00 00 00 00 	nopl   0x0(%rax)

00000000000092c0 <_ZN6matrix6sparse9CSRMatrixIidE16cpu_mv_split_nnzEPdPKd>:
    92c0:	48 83 ec 28          	sub    $0x28,%rsp
    92c4:	c4 e1 f9 6e cf       	vmovq  %rdi,%xmm1
    92c9:	31 c9                	xor    %ecx,%ecx
    92cb:	64 48 8b 04 25 28 00 	mov    %fs:0x28,%rax
    92d2:	00 00 
    92d4:	48 89 44 24 18       	mov    %rax,0x18(%rsp)
    92d9:	31 c0                	xor    %eax,%eax
    92db:	8b 47 3c             	mov    0x3c(%rdi),%eax
    92de:	c4 e3 f1 22 c6 01    	vpinsrq $0x1,%rsi,%xmm1,%xmm0
    92e4:	48 89 54 24 10       	mov    %rdx,0x10(%rsp)
    92e9:	48 89 e6             	mov    %rsp,%rsi
    92ec:	48 8d 3d 7d 0c 00 00 	lea    0xc7d(%rip),%rdi        # 9f70 <_ZN6matrix6sparse9CSRMatrixIidE16cpu_mv_split_nnzEPdPKd._omp_fn.5>
    92f3:	c5 f8 29 04 24       	vmovaps %xmm0,(%rsp)
    92f8:	89 c2                	mov    %eax,%edx
    92fa:	e8 f1 9b ff ff       	callq  2ef0 <GOMP_parallel@plt>
    92ff:	48 8b 44 24 18       	mov    0x18(%rsp),%rax
    9304:	64 48 33 04 25 28 00 	xor    %fs:0x28,%rax
    930b:	00 00 
    930d:	75 05                	jne    9314 <_ZN6matrix6sparse9CSRMatrixIidE16cpu_mv_split_nnzEPdPKd+0x54>
    930f:	48 83 c4 28          	add    $0x28,%rsp
    9313:	c3                   	retq   
    9314:	e8 e7 9a ff ff       	callq  2e00 <__stack_chk_fail@plt>
    9319:	0f 1f 80 00 00 00 00 	nopl   0x0(%rax)

0000000000009320 <_ZN6matrix6sparse9CSRMatrixIifED1Ev>:
    9320:	53                   	push   %rbx
    9321:	48 8d 05 38 74 20 00 	lea    0x207438(%rip),%rax        # 210760 <_ZTVN6matrix6sparse9CSRMatrixIifEE+0x10>
    9328:	80 7f 18 00          	cmpb   $0x0,0x18(%rdi)
    932c:	48 89 fb             	mov    %rdi,%rbx
    932f:	48 89 07             	mov    %rax,(%rdi)
    9332:	8b 77 08             	mov    0x8(%rdi),%esi
    9335:	75 39                	jne    9370 <_ZN6matrix6sparse9CSRMatrixIifED1Ev+0x50>
    9337:	48 c7 47 20 00 00 00 	movq   $0x0,0x20(%rdi)
    933e:	00 
    933f:	48 c7 47 28 00 00 00 	movq   $0x0,0x28(%rdi)
    9346:	00 
    9347:	48 c7 47 30 00 00 00 	movq   $0x0,0x30(%rdi)
    934e:	00 
    934f:	48 8b 7b 40          	mov    0x40(%rbx),%rdi
    9353:	e8 58 24 00 00       	callq  b7b0 <_ZN4util13internal_freeEPvNS_8PlatformE>
    9358:	48 8b 43 58          	mov    0x58(%rbx),%rax
    935c:	48 85 c0             	test   %rax,%rax
    935f:	74 3f                	je     93a0 <_ZN6matrix6sparse9CSRMatrixIifED1Ev+0x80>
    9361:	48 8d 7b 48          	lea    0x48(%rbx),%rdi
    9365:	ba 03 00 00 00       	mov    $0x3,%edx
    936a:	5b                   	pop    %rbx
    936b:	48 89 fe             	mov    %rdi,%rsi
    936e:	ff e0                	jmpq   *%rax
    9370:	48 8b 7f 20          	mov    0x20(%rdi),%rdi
    9374:	e8 37 24 00 00       	callq  b7b0 <_ZN4util13internal_freeEPvNS_8PlatformE>
    9379:	8b 73 08             	mov    0x8(%rbx),%esi
    937c:	48 8b 7b 28          	mov    0x28(%rbx),%rdi
    9380:	e8 2b 24 00 00       	callq  b7b0 <_ZN4util13internal_freeEPvNS_8PlatformE>
    9385:	8b 73 08             	mov    0x8(%rbx),%esi
    9388:	48 8b 7b 30          	mov    0x30(%rbx),%rdi
    938c:	e8 1f 24 00 00       	callq  b7b0 <_ZN4util13internal_freeEPvNS_8PlatformE>
    9391:	8b 73 08             	mov    0x8(%rbx),%esi
    9394:	eb b9                	jmp    934f <_ZN6matrix6sparse9CSRMatrixIifED1Ev+0x2f>
    9396:	66 2e 0f 1f 84 00 00 	nopw   %cs:0x0(%rax,%rax,1)
    939d:	00 00 00 
    93a0:	5b                   	pop    %rbx
    93a1:	c3                   	retq   
    93a2:	66 2e 0f 1f 84 00 00 	nopw   %cs:0x0(%rax,%rax,1)
    93a9:	00 00 00 
    93ac:	0f 1f 40 00          	nopl   0x0(%rax)

00000000000093b0 <_ZN6matrix6sparse9CSRMatrixIidED1Ev>:
    93b0:	53                   	push   %rbx
    93b1:	48 8d 05 00 74 20 00 	lea    0x207400(%rip),%rax        # 2107b8 <_ZTVN6matrix6sparse9CSRMatrixIidEE+0x10>
    93b8:	80 7f 18 00          	cmpb   $0x0,0x18(%rdi)
    93bc:	48 89 fb             	mov    %rdi,%rbx
    93bf:	48 89 07             	mov    %rax,(%rdi)
    93c2:	8b 77 08             	mov    0x8(%rdi),%esi
    93c5:	75 39                	jne    9400 <_ZN6matrix6sparse9CSRMatrixIidED1Ev+0x50>
    93c7:	48 c7 47 20 00 00 00 	movq   $0x0,0x20(%rdi)
    93ce:	00 
    93cf:	48 c7 47 28 00 00 00 	movq   $0x0,0x28(%rdi)
    93d6:	00 
    93d7:	48 c7 47 30 00 00 00 	movq   $0x0,0x30(%rdi)
    93de:	00 
    93df:	48 8b 7b 40          	mov    0x40(%rbx),%rdi
    93e3:	e8 c8 23 00 00       	callq  b7b0 <_ZN4util13internal_freeEPvNS_8PlatformE>
    93e8:	48 8b 43 58          	mov    0x58(%rbx),%rax
    93ec:	48 85 c0             	test   %rax,%rax
    93ef:	74 3f                	je     9430 <_ZN6matrix6sparse9CSRMatrixIidED1Ev+0x80>
    93f1:	48 8d 7b 48          	lea    0x48(%rbx),%rdi
    93f5:	ba 03 00 00 00       	mov    $0x3,%edx
    93fa:	5b                   	pop    %rbx
    93fb:	48 89 fe             	mov    %rdi,%rsi
    93fe:	ff e0                	jmpq   *%rax
    9400:	48 8b 7f 20          	mov    0x20(%rdi),%rdi
    9404:	e8 a7 23 00 00       	callq  b7b0 <_ZN4util13internal_freeEPvNS_8PlatformE>
    9409:	8b 73 08             	mov    0x8(%rbx),%esi
    940c:	48 8b 7b 28          	mov    0x28(%rbx),%rdi
    9410:	e8 9b 23 00 00       	callq  b7b0 <_ZN4util13internal_freeEPvNS_8PlatformE>
    9415:	8b 73 08             	mov    0x8(%rbx),%esi
    9418:	48 8b 7b 30          	mov    0x30(%rbx),%rdi
    941c:	e8 8f 23 00 00       	callq  b7b0 <_ZN4util13internal_freeEPvNS_8PlatformE>
    9421:	8b 73 08             	mov    0x8(%rbx),%esi
    9424:	eb b9                	jmp    93df <_ZN6matrix6sparse9CSRMatrixIidED1Ev+0x2f>
    9426:	66 2e 0f 1f 84 00 00 	nopw   %cs:0x0(%rax,%rax,1)
    942d:	00 00 00 
    9430:	5b                   	pop    %rbx
    9431:	c3                   	retq   
    9432:	66 2e 0f 1f 84 00 00 	nopw   %cs:0x0(%rax,%rax,1)
    9439:	00 00 00 
    943c:	0f 1f 40 00          	nopl   0x0(%rax)

0000000000009440 <_ZN6matrix6sparse9CSRMatrixIifE21dense_vector_multiplyEPfPKf>:
    9440:	48 83 ec 28          	sub    $0x28,%rsp
    9444:	64 48 8b 0c 25 28 00 	mov    %fs:0x28,%rcx
    944b:	00 00 
    944d:	48 89 4c 24 18       	mov    %rcx,0x18(%rsp)
    9452:	31 c9                	xor    %ecx,%ecx
    9454:	48 83 7f 58 00       	cmpq   $0x0,0x58(%rdi)
    9459:	48 89 74 24 08       	mov    %rsi,0x8(%rsp)
    945e:	48 89 54 24 10       	mov    %rdx,0x10(%rsp)
    9463:	74 29                	je     948e <_ZN6matrix6sparse9CSRMatrixIifE21dense_vector_multiplyEPfPKf+0x4e>
    9465:	48 89 f8             	mov    %rdi,%rax
    9468:	48 8d 54 24 10       	lea    0x10(%rsp),%rdx
    946d:	48 8d 74 24 08       	lea    0x8(%rsp),%rsi
    9472:	48 8d 7f 48          	lea    0x48(%rdi),%rdi
    9476:	ff 50 60             	callq  *0x60(%rax)
    9479:	48 8b 44 24 18       	mov    0x18(%rsp),%rax
    947e:	64 48 33 04 25 28 00 	xor    %fs:0x28,%rax
    9485:	00 00 
    9487:	75 0a                	jne    9493 <_ZN6matrix6sparse9CSRMatrixIifE21dense_vector_multiplyEPfPKf+0x53>
    9489:	48 83 c4 28          	add    $0x28,%rsp
    948d:	c3                   	retq   
    948e:	e8 cd 97 ff ff       	callq  2c60 <_ZSt25__throw_bad_function_callv@plt>
    9493:	e8 68 99 ff ff       	callq  2e00 <__stack_chk_fail@plt>
    9498:	0f 1f 84 00 00 00 00 	nopl   0x0(%rax,%rax,1)
    949f:	00 

00000000000094a0 <_ZN6matrix6sparse9CSRMatrixIidE21dense_vector_multiplyEPdPKd>:
    94a0:	48 83 ec 28          	sub    $0x28,%rsp
    94a4:	64 48 8b 0c 25 28 00 	mov    %fs:0x28,%rcx
    94ab:	00 00 
    94ad:	48 89 4c 24 18       	mov    %rcx,0x18(%rsp)
    94b2:	31 c9                	xor    %ecx,%ecx
    94b4:	48 83 7f 58 00       	cmpq   $0x0,0x58(%rdi)
    94b9:	48 89 74 24 08       	mov    %rsi,0x8(%rsp)
    94be:	48 89 54 24 10       	mov    %rdx,0x10(%rsp)
    94c3:	74 29                	je     94ee <_ZN6matrix6sparse9CSRMatrixIidE21dense_vector_multiplyEPdPKd+0x4e>
    94c5:	48 89 f8             	mov    %rdi,%rax
    94c8:	48 8d 54 24 10       	lea    0x10(%rsp),%rdx
    94cd:	48 8d 74 24 08       	lea    0x8(%rsp),%rsi
    94d2:	48 8d 7f 48          	lea    0x48(%rdi),%rdi
    94d6:	ff 50 60             	callq  *0x60(%rax)
    94d9:	48 8b 44 24 18       	mov    0x18(%rsp),%rax
    94de:	64 48 33 04 25 28 00 	xor    %fs:0x28,%rax
    94e5:	00 00 
    94e7:	75 0a                	jne    94f3 <_ZN6matrix6sparse9CSRMatrixIidE21dense_vector_multiplyEPdPKd+0x53>
    94e9:	48 83 c4 28          	add    $0x28,%rsp
    94ed:	c3                   	retq   
    94ee:	e8 6d 97 ff ff       	callq  2c60 <_ZSt25__throw_bad_function_callv@plt>
    94f3:	e8 08 99 ff ff       	callq  2e00 <__stack_chk_fail@plt>
    94f8:	0f 1f 84 00 00 00 00 	nopl   0x0(%rax,%rax,1)
    94ff:	00 

0000000000009500 <_ZN6matrix6sparse9CSRMatrixIifE14cpu_mv_vanillaEPfPKf._omp_fn.1>:
    9500:	4c 8d 54 24 08       	lea    0x8(%rsp),%r10
    9505:	48 83 e4 e0          	and    $0xffffffffffffffe0,%rsp
    9509:	41 ff 72 f8          	pushq  -0x8(%r10)
    950d:	55                   	push   %rbp
    950e:	48 89 e5             	mov    %rsp,%rbp
    9511:	41 56                	push   %r14
    9513:	41 55                	push   %r13
    9515:	41 54                	push   %r12
    9517:	49 89 fc             	mov    %rdi,%r12
    951a:	41 52                	push   %r10
    951c:	53                   	push   %rbx
    951d:	48 83 ec 48          	sub    $0x48,%rsp
    9521:	48 8b 1f             	mov    (%rdi),%rbx
    9524:	64 48 8b 04 25 28 00 	mov    %fs:0x28,%rax
    952b:	00 00 
    952d:	48 89 45 c8          	mov    %rax,-0x38(%rbp)
    9531:	31 c0                	xor    %eax,%eax
    9533:	e8 18 9b ff ff       	callq  3050 <omp_get_num_threads@plt>
    9538:	41 89 c5             	mov    %eax,%r13d
    953b:	e8 f0 99 ff ff       	callq  2f30 <omp_get_thread_num@plt>
    9540:	89 c1                	mov    %eax,%ecx
    9542:	8b 43 0c             	mov    0xc(%rbx),%eax
    9545:	99                   	cltd   
    9546:	41 f7 fd             	idiv   %r13d
    9549:	39 d1                	cmp    %edx,%ecx
    954b:	7d 05                	jge    9552 <_ZN6matrix6sparse9CSRMatrixIifE14cpu_mv_vanillaEPfPKf._omp_fn.1+0x52>
    954d:	83 c0 01             	add    $0x1,%eax
    9550:	31 d2                	xor    %edx,%edx
    9552:	0f af c8             	imul   %eax,%ecx
    9555:	01 ca                	add    %ecx,%edx
    9557:	01 d0                	add    %edx,%eax
    9559:	39 c2                	cmp    %eax,%edx
    955b:	0f 8d 87 02 00 00    	jge    97e8 <_ZN6matrix6sparse9CSRMatrixIifE14cpu_mv_vanillaEPfPKf._omp_fn.1+0x2e8>
    9561:	29 d0                	sub    %edx,%eax
    9563:	48 63 fa             	movslq %edx,%rdi
    9566:	49 8b 4c 24 10       	mov    0x10(%r12),%rcx
    956b:	4d 8b 44 24 08       	mov    0x8(%r12),%r8
    9570:	83 e8 01             	sub    $0x1,%eax
    9573:	c5 7c 28 05 c5 3c 00 	vmovaps 0x3cc5(%rip),%ymm8        # d240 <_ZTSSt5_BindIFMN6matrix6sparse9CSRMatrixIidEEFvPdPKdEPS3_St12_PlaceholderILi1EESA_ILi2EEEE+0xa0>
    957a:	00 
    957b:	48 8d 34 bd 00 00 00 	lea    0x0(,%rdi,4),%rsi
    9582:	00 
    9583:	c5 7d 6f 1d 75 3c 00 	vmovdqa 0x3c75(%rip),%ymm11        # d200 <_ZTSSt5_BindIFMN6matrix6sparse9CSRMatrixIidEEFvPdPKdEPS3_St12_PlaceholderILi1EESA_ILi2EEEE+0x60>
    958a:	00 
    958b:	48 8d 7c 07 01       	lea    0x1(%rdi,%rax,1),%rdi
    9590:	c5 7d 6f 0d 88 3c 00 	vmovdqa 0x3c88(%rip),%ymm9        # d220 <_ZTSSt5_BindIFMN6matrix6sparse9CSRMatrixIidEEFvPdPKdEPS3_St12_PlaceholderILi1EESA_ILi2EEEE+0x80>
    9597:	00 
    9598:	c4 41 28 57 d2       	vxorps %xmm10,%xmm10,%xmm10
    959d:	48 8d 55 90          	lea    -0x70(%rbp),%rdx
    95a1:	48 c1 e7 02          	shl    $0x2,%rdi
    95a5:	c5 78 29 c7          	vmovaps %xmm8,%xmm7
    95a9:	c5 c9 76 f6          	vpcmpeqd %xmm6,%xmm6,%xmm6
    95ad:	0f 1f 00             	nopl   (%rax)
    95b0:	4c 8b 4b 20          	mov    0x20(%rbx),%r9
    95b4:	c5 f9 ef c0          	vpxor  %xmm0,%xmm0,%xmm0
    95b8:	48 8d 46 04          	lea    0x4(%rsi),%rax
    95bc:	c5 f8 29 02          	vmovaps %xmm0,(%rdx)
    95c0:	45 8b 14 31          	mov    (%r9,%rsi,1),%r10d
    95c4:	45 8b 5c 31 04       	mov    0x4(%r9,%rsi,1),%r11d
    95c9:	c5 f8 29 42 10       	vmovaps %xmm0,0x10(%rdx)
    95ce:	45 39 da             	cmp    %r11d,%r10d
    95d1:	0f 8d d4 01 00 00    	jge    97ab <_ZN6matrix6sparse9CSRMatrixIifE14cpu_mv_vanillaEPfPKf._omp_fn.1+0x2ab>
    95d7:	45 89 dd             	mov    %r11d,%r13d
    95da:	45 29 d5             	sub    %r10d,%r13d
    95dd:	45 8d 4d ff          	lea    -0x1(%r13),%r9d
    95e1:	41 83 f9 06          	cmp    $0x6,%r9d
    95e5:	0f 86 cd 00 00 00    	jbe    96b8 <_ZN6matrix6sparse9CSRMatrixIifE14cpu_mv_vanillaEPfPKf._omp_fn.1+0x1b8>
    95eb:	c4 c1 79 6e d2       	vmovd  %r10d,%xmm2
    95f0:	45 89 ec             	mov    %r13d,%r12d
    95f3:	c4 e2 7d 59 6b 30    	vpbroadcastq 0x30(%rbx),%ymm5
    95f9:	45 31 c9             	xor    %r9d,%r9d
    95fc:	c4 e2 7d 58 d2       	vpbroadcastd %xmm2,%ymm2
    9601:	c4 e2 7d 59 63 28    	vpbroadcastq 0x28(%rbx),%ymm4
    9607:	41 c1 ec 03          	shr    $0x3,%r12d
    960b:	c4 c1 6d fe d3       	vpaddd %ymm11,%ymm2,%ymm2
    9610:	c4 e2 7d 25 ca       	vpmovsxdq %xmm2,%ymm1
    9615:	c5 78 28 f7          	vmovaps %xmm7,%xmm14
    9619:	c5 78 28 ff          	vmovaps %xmm7,%xmm15
    961d:	41 83 c1 01          	add    $0x1,%r9d
    9621:	c4 e3 7d 39 d0 01    	vextracti128 $0x1,%ymm2,%xmm0
    9627:	c5 f5 73 f1 02       	vpsllq $0x2,%ymm1,%ymm1
    962c:	c4 c1 6d fe d1       	vpaddd %ymm9,%ymm2,%ymm2
    9631:	c4 e2 7d 25 c0       	vpmovsxdq %xmm0,%ymm0
    9636:	c5 d5 d4 d9          	vpaddq %ymm1,%ymm5,%ymm3
    963a:	c5 f5 d4 cc          	vpaddq %ymm4,%ymm1,%ymm1
    963e:	c4 62 0d 93 24 1d 00 	vgatherqps %xmm14,0x0(,%ymm3,1),%xmm12
    9645:	00 00 00 
    9648:	c5 fd 73 f0 02       	vpsllq $0x2,%ymm0,%ymm0
    964d:	c5 79 6f f6          	vmovdqa %xmm6,%xmm14
    9651:	c5 d5 d4 d8          	vpaddq %ymm0,%ymm5,%ymm3
    9655:	c4 62 05 93 2c 1d 00 	vgatherqps %xmm15,0x0(,%ymm3,1),%xmm13
    965c:	00 00 00 
    965f:	c5 79 6f fe          	vmovdqa %xmm6,%xmm15
    9663:	c4 e2 0d 91 1c 0d 00 	vpgatherqd %xmm14,0x0(,%ymm1,1),%xmm3
    966a:	00 00 00 
    966d:	c5 fd d4 cc          	vpaddq %ymm4,%ymm0,%ymm1
    9671:	c4 e2 05 91 04 0d 00 	vpgatherqd %xmm15,0x0(,%ymm1,1),%xmm0
    9678:	00 00 00 
    967b:	c4 e3 65 38 c8 01    	vinserti128 $0x1,%xmm0,%ymm3,%ymm1
    9681:	c5 7c 29 c0          	vmovaps %ymm8,%ymm0
    9685:	c4 e2 7d 92 1c 89    	vgatherdps %ymm0,(%rcx,%ymm1,4),%ymm3
    968b:	c4 c3 1d 18 c5 01    	vinsertf128 $0x1,%xmm13,%ymm12,%ymm0
    9691:	c4 e2 65 a8 45 90    	vfmadd213ps -0x70(%rbp),%ymm3,%ymm0
    9697:	c5 fc 29 45 90       	vmovaps %ymm0,-0x70(%rbp)
    969c:	45 39 cc             	cmp    %r9d,%r12d
    969f:	0f 87 6b ff ff ff    	ja     9610 <_ZN6matrix6sparse9CSRMatrixIifE14cpu_mv_vanillaEPfPKf._omp_fn.1+0x110>
    96a5:	45 89 e9             	mov    %r13d,%r9d
    96a8:	41 83 e1 f8          	and    $0xfffffff8,%r9d
    96ac:	45 01 ca             	add    %r9d,%r10d
    96af:	45 39 e9             	cmp    %r13d,%r9d
    96b2:	0f 84 f3 00 00 00    	je     97ab <_ZN6matrix6sparse9CSRMatrixIifE14cpu_mv_vanillaEPfPKf._omp_fn.1+0x2ab>
    96b8:	4c 8b 63 28          	mov    0x28(%rbx),%r12
    96bc:	4d 63 ea             	movslq %r10d,%r13
    96bf:	4c 8b 4b 30          	mov    0x30(%rbx),%r9
    96c3:	c5 fa 10 65 90       	vmovss -0x70(%rbp),%xmm4
    96c8:	4f 63 34 ac          	movslq (%r12,%r13,4),%r14
    96cc:	c4 81 7a 10 04 a9    	vmovss (%r9,%r13,4),%xmm0
    96d2:	45 8d 6a 01          	lea    0x1(%r10),%r13d
    96d6:	c4 a2 59 99 04 b1    	vfmadd132ss (%rcx,%r14,4),%xmm4,%xmm0
    96dc:	c5 fa 11 45 90       	vmovss %xmm0,-0x70(%rbp)
    96e1:	45 39 eb             	cmp    %r13d,%r11d
    96e4:	0f 8e c1 00 00 00    	jle    97ab <_ZN6matrix6sparse9CSRMatrixIifE14cpu_mv_vanillaEPfPKf._omp_fn.1+0x2ab>
    96ea:	4d 63 ed             	movslq %r13d,%r13
    96ed:	4f 63 34 ac          	movslq (%r12,%r13,4),%r14
    96f1:	c4 81 7a 10 2c a9    	vmovss (%r9,%r13,4),%xmm5
    96f7:	45 8d 6a 02          	lea    0x2(%r10),%r13d
    96fb:	c4 a2 51 b9 04 b1    	vfmadd231ss (%rcx,%r14,4),%xmm5,%xmm0
    9701:	c5 fa 11 45 90       	vmovss %xmm0,-0x70(%rbp)
    9706:	45 39 eb             	cmp    %r13d,%r11d
    9709:	0f 8e 9c 00 00 00    	jle    97ab <_ZN6matrix6sparse9CSRMatrixIifE14cpu_mv_vanillaEPfPKf._omp_fn.1+0x2ab>
    970f:	4d 63 ed             	movslq %r13d,%r13
    9712:	4f 63 34 ac          	movslq (%r12,%r13,4),%r14
    9716:	c4 81 7a 10 2c a9    	vmovss (%r9,%r13,4),%xmm5
    971c:	45 8d 6a 03          	lea    0x3(%r10),%r13d
    9720:	c4 a2 51 b9 04 b1    	vfmadd231ss (%rcx,%r14,4),%xmm5,%xmm0
    9726:	c5 fa 11 45 90       	vmovss %xmm0,-0x70(%rbp)
    972b:	45 39 eb             	cmp    %r13d,%r11d
    972e:	7e 7b                	jle    97ab <_ZN6matrix6sparse9CSRMatrixIifE14cpu_mv_vanillaEPfPKf._omp_fn.1+0x2ab>
    9730:	4d 63 ed             	movslq %r13d,%r13
    9733:	4f 63 34 ac          	movslq (%r12,%r13,4),%r14
    9737:	c4 81 7a 10 24 a9    	vmovss (%r9,%r13,4),%xmm4
    973d:	45 8d 6a 04          	lea    0x4(%r10),%r13d
    9741:	c4 a2 59 b9 04 b1    	vfmadd231ss (%rcx,%r14,4),%xmm4,%xmm0
    9747:	c5 fa 11 45 90       	vmovss %xmm0,-0x70(%rbp)
    974c:	45 39 eb             	cmp    %r13d,%r11d
    974f:	7e 5a                	jle    97ab <_ZN6matrix6sparse9CSRMatrixIifE14cpu_mv_vanillaEPfPKf._omp_fn.1+0x2ab>
    9751:	4d 63 ed             	movslq %r13d,%r13
    9754:	4f 63 34 ac          	movslq (%r12,%r13,4),%r14
    9758:	c4 81 7a 10 2c a9    	vmovss (%r9,%r13,4),%xmm5
    975e:	45 8d 6a 05          	lea    0x5(%r10),%r13d
    9762:	c4 a2 51 b9 04 b1    	vfmadd231ss (%rcx,%r14,4),%xmm5,%xmm0
    9768:	c5 fa 11 45 90       	vmovss %xmm0,-0x70(%rbp)
    976d:	45 39 eb             	cmp    %r13d,%r11d
    9770:	7e 39                	jle    97ab <_ZN6matrix6sparse9CSRMatrixIifE14cpu_mv_vanillaEPfPKf._omp_fn.1+0x2ab>
    9772:	4d 63 ed             	movslq %r13d,%r13
    9775:	41 83 c2 06          	add    $0x6,%r10d
    9779:	4f 63 34 ac          	movslq (%r12,%r13,4),%r14
    977d:	c4 81 7a 10 24 a9    	vmovss (%r9,%r13,4),%xmm4
    9783:	c4 a2 59 b9 04 b1    	vfmadd231ss (%rcx,%r14,4),%xmm4,%xmm0
    9789:	c5 fa 11 45 90       	vmovss %xmm0,-0x70(%rbp)
    978e:	45 39 d3             	cmp    %r10d,%r11d
    9791:	7e 18                	jle    97ab <_ZN6matrix6sparse9CSRMatrixIifE14cpu_mv_vanillaEPfPKf._omp_fn.1+0x2ab>
    9793:	4d 63 d2             	movslq %r10d,%r10
    9796:	4f 63 1c 94          	movslq (%r12,%r10,4),%r11
    979a:	c4 a1 7a 10 24 99    	vmovss (%rcx,%r11,4),%xmm4
    97a0:	c4 82 59 b9 04 91    	vfmadd231ss (%r9,%r10,4),%xmm4,%xmm0
    97a6:	c5 fa 11 45 90       	vmovss %xmm0,-0x70(%rbp)
    97ab:	c5 aa 58 45 90       	vaddss -0x70(%rbp),%xmm10,%xmm0
    97b0:	c5 fa 58 45 94       	vaddss -0x6c(%rbp),%xmm0,%xmm0
    97b5:	c5 fa 58 45 98       	vaddss -0x68(%rbp),%xmm0,%xmm0
    97ba:	c5 fa 58 45 9c       	vaddss -0x64(%rbp),%xmm0,%xmm0
    97bf:	c5 fa 58 45 a0       	vaddss -0x60(%rbp),%xmm0,%xmm0
    97c4:	c5 fa 58 45 a4       	vaddss -0x5c(%rbp),%xmm0,%xmm0
    97c9:	c5 fa 58 45 a8       	vaddss -0x58(%rbp),%xmm0,%xmm0
    97ce:	c5 fa 58 45 ac       	vaddss -0x54(%rbp),%xmm0,%xmm0
    97d3:	c4 c1 7a 11 04 30    	vmovss %xmm0,(%r8,%rsi,1)
    97d9:	48 89 c6             	mov    %rax,%rsi
    97dc:	48 39 f8             	cmp    %rdi,%rax
    97df:	0f 85 cb fd ff ff    	jne    95b0 <_ZN6matrix6sparse9CSRMatrixIifE14cpu_mv_vanillaEPfPKf._omp_fn.1+0xb0>
    97e5:	c5 f8 77             	vzeroupper 
    97e8:	48 8b 45 c8          	mov    -0x38(%rbp),%rax
    97ec:	64 48 33 04 25 28 00 	xor    %fs:0x28,%rax
    97f3:	00 00 
    97f5:	75 13                	jne    980a <_ZN6matrix6sparse9CSRMatrixIifE14cpu_mv_vanillaEPfPKf._omp_fn.1+0x30a>
    97f7:	48 83 c4 48          	add    $0x48,%rsp
    97fb:	5b                   	pop    %rbx
    97fc:	41 5a                	pop    %r10
    97fe:	41 5c                	pop    %r12
    9800:	41 5d                	pop    %r13
    9802:	41 5e                	pop    %r14
    9804:	5d                   	pop    %rbp
    9805:	49 8d 62 f8          	lea    -0x8(%r10),%rsp
    9809:	c3                   	retq   
    980a:	e8 f1 95 ff ff       	callq  2e00 <__stack_chk_fail@plt>
    980f:	90                   	nop

0000000000009810 <_ZN6matrix6sparse9CSRMatrixIifE16cpu_mv_split_nnzEPfPKf._omp_fn.2>:
    9810:	4c 8d 54 24 08       	lea    0x8(%rsp),%r10
    9815:	48 83 e4 e0          	and    $0xffffffffffffffe0,%rsp
    9819:	41 ff 72 f8          	pushq  -0x8(%r10)
    981d:	55                   	push   %rbp
    981e:	48 89 e5             	mov    %rsp,%rbp
    9821:	41 57                	push   %r15
    9823:	41 56                	push   %r14
    9825:	41 55                	push   %r13
    9827:	41 54                	push   %r12
    9829:	41 52                	push   %r10
    982b:	53                   	push   %rbx
    982c:	48 83 ec 40          	sub    $0x40,%rsp
    9830:	4c 8b 27             	mov    (%rdi),%r12
    9833:	48 8b 5f 10          	mov    0x10(%rdi),%rbx
    9837:	64 48 8b 04 25 28 00 	mov    %fs:0x28,%rax
    983e:	00 00 
    9840:	48 89 45 c8          	mov    %rax,-0x38(%rbp)
    9844:	31 c0                	xor    %eax,%eax
    9846:	4c 8b 6f 08          	mov    0x8(%rdi),%r13
    984a:	e8 e1 96 ff ff       	callq  2f30 <omp_get_thread_num@plt>
    984f:	49 8b 74 24 40       	mov    0x40(%r12),%rsi
    9854:	48 98                	cltq   
    9856:	48 8d 0c 85 00 00 00 	lea    0x0(,%rax,4),%rcx
    985d:	00 
    985e:	8b 14 86             	mov    (%rsi,%rax,4),%edx
    9861:	3b 54 0e 04          	cmp    0x4(%rsi,%rcx,1),%edx
    9865:	0f 8d 80 02 00 00    	jge    9aeb <_ZN6matrix6sparse9CSRMatrixIifE16cpu_mv_split_nnzEPfPKf._omp_fn.2+0x2db>
    986b:	c5 7c 28 05 cd 39 00 	vmovaps 0x39cd(%rip),%ymm8        # d240 <_ZTSSt5_BindIFMN6matrix6sparse9CSRMatrixIidEEFvPdPKdEPS3_St12_PlaceholderILi1EESA_ILi2EEEE+0xa0>
    9872:	00 
    9873:	48 63 c2             	movslq %edx,%rax
    9876:	48 8d 79 04          	lea    0x4(%rcx),%rdi
    987a:	c5 7d 6f 1d 7e 39 00 	vmovdqa 0x397e(%rip),%ymm11        # d200 <_ZTSSt5_BindIFMN6matrix6sparse9CSRMatrixIidEEFvPdPKdEPS3_St12_PlaceholderILi1EESA_ILi2EEEE+0x60>
    9881:	00 
    9882:	c4 41 28 57 d2       	vxorps %xmm10,%xmm10,%xmm10
    9887:	48 c1 e0 02          	shl    $0x2,%rax
    988b:	48 8d 75 90          	lea    -0x70(%rbp),%rsi
    988f:	c5 c9 76 f6          	vpcmpeqd %xmm6,%xmm6,%xmm6
    9893:	c5 7d 6f 0d 85 39 00 	vmovdqa 0x3985(%rip),%ymm9        # d220 <_ZTSSt5_BindIFMN6matrix6sparse9CSRMatrixIidEEFvPdPKdEPS3_St12_PlaceholderILi1EESA_ILi2EEEE+0x80>
    989a:	00 
    989b:	c5 78 29 c7          	vmovaps %xmm8,%xmm7
    989f:	90                   	nop
    98a0:	4d 8b 44 24 20       	mov    0x20(%r12),%r8
    98a5:	c5 f9 ef c0          	vpxor  %xmm0,%xmm0,%xmm0
    98a9:	48 8d 48 04          	lea    0x4(%rax),%rcx
    98ad:	c5 f8 29 06          	vmovaps %xmm0,(%rsi)
    98b1:	45 8b 0c 00          	mov    (%r8,%rax,1),%r9d
    98b5:	45 8b 54 00 04       	mov    0x4(%r8,%rax,1),%r10d
    98ba:	c5 f8 29 46 10       	vmovaps %xmm0,0x10(%rsi)
    98bf:	45 39 d1             	cmp    %r10d,%r9d
    98c2:	0f 8d dd 01 00 00    	jge    9aa5 <_ZN6matrix6sparse9CSRMatrixIifE16cpu_mv_split_nnzEPfPKf._omp_fn.2+0x295>
    98c8:	45 89 d6             	mov    %r10d,%r14d
    98cb:	45 29 ce             	sub    %r9d,%r14d
    98ce:	45 8d 46 ff          	lea    -0x1(%r14),%r8d
    98d2:	41 83 f8 06          	cmp    $0x6,%r8d
    98d6:	0f 86 d4 00 00 00    	jbe    99b0 <_ZN6matrix6sparse9CSRMatrixIifE16cpu_mv_split_nnzEPfPKf._omp_fn.2+0x1a0>
    98dc:	c4 c1 79 6e d1       	vmovd  %r9d,%xmm2
    98e1:	45 89 f3             	mov    %r14d,%r11d
    98e4:	45 31 c0             	xor    %r8d,%r8d
    98e7:	c4 c2 7d 59 6c 24 30 	vpbroadcastq 0x30(%r12),%ymm5
    98ee:	c4 e2 7d 58 d2       	vpbroadcastd %xmm2,%ymm2
    98f3:	c4 c2 7d 59 64 24 28 	vpbroadcastq 0x28(%r12),%ymm4
    98fa:	41 c1 eb 03          	shr    $0x3,%r11d
    98fe:	c4 c1 6d fe d3       	vpaddd %ymm11,%ymm2,%ymm2
    9903:	0f 1f 44 00 00       	nopl   0x0(%rax,%rax,1)
    9908:	c4 e2 7d 25 ca       	vpmovsxdq %xmm2,%ymm1
    990d:	c5 78 28 f7          	vmovaps %xmm7,%xmm14
    9911:	c5 78 28 ff          	vmovaps %xmm7,%xmm15
    9915:	41 83 c0 01          	add    $0x1,%r8d
    9919:	c4 e3 7d 39 d0 01    	vextracti128 $0x1,%ymm2,%xmm0
    991f:	c5 f5 73 f1 02       	vpsllq $0x2,%ymm1,%ymm1
    9924:	c4 c1 6d fe d1       	vpaddd %ymm9,%ymm2,%ymm2
    9929:	c4 e2 7d 25 c0       	vpmovsxdq %xmm0,%ymm0
    992e:	c5 d5 d4 d9          	vpaddq %ymm1,%ymm5,%ymm3
    9932:	c5 f5 d4 cc          	vpaddq %ymm4,%ymm1,%ymm1
    9936:	c4 62 0d 93 24 1d 00 	vgatherqps %xmm14,0x0(,%ymm3,1),%xmm12
    993d:	00 00 00 
    9940:	c5 fd 73 f0 02       	vpsllq $0x2,%ymm0,%ymm0
    9945:	c5 79 6f f6          	vmovdqa %xmm6,%xmm14
    9949:	c5 d5 d4 d8          	vpaddq %ymm0,%ymm5,%ymm3
    994d:	c4 62 05 93 2c 1d 00 	vgatherqps %xmm15,0x0(,%ymm3,1),%xmm13
    9954:	00 00 00 
    9957:	c5 79 6f fe          	vmovdqa %xmm6,%xmm15
    995b:	c4 e2 0d 91 1c 0d 00 	vpgatherqd %xmm14,0x0(,%ymm1,1),%xmm3
    9962:	00 00 00 
    9965:	c5 fd d4 cc          	vpaddq %ymm4,%ymm0,%ymm1
    9969:	c4 e2 05 91 04 0d 00 	vpgatherqd %xmm15,0x0(,%ymm1,1),%xmm0
    9970:	00 00 00 
    9973:	c4 e3 65 38 c8 01    	vinserti128 $0x1,%xmm0,%ymm3,%ymm1
    9979:	c5 7c 29 c0          	vmovaps %ymm8,%ymm0
    997d:	c4 e2 7d 92 1c 8b    	vgatherdps %ymm0,(%rbx,%ymm1,4),%ymm3
    9983:	c4 c3 1d 18 c5 01    	vinsertf128 $0x1,%xmm13,%ymm12,%ymm0
    9989:	c4 e2 65 a8 45 90    	vfmadd213ps -0x70(%rbp),%ymm3,%ymm0
    998f:	c5 fc 29 45 90       	vmovaps %ymm0,-0x70(%rbp)
    9994:	45 39 d8             	cmp    %r11d,%r8d
    9997:	0f 82 6b ff ff ff    	jb     9908 <_ZN6matrix6sparse9CSRMatrixIifE16cpu_mv_split_nnzEPfPKf._omp_fn.2+0xf8>
    999d:	45 89 f0             	mov    %r14d,%r8d
    99a0:	41 83 e0 f8          	and    $0xfffffff8,%r8d
    99a4:	45 01 c1             	add    %r8d,%r9d
    99a7:	45 39 c6             	cmp    %r8d,%r14d
    99aa:	0f 84 f5 00 00 00    	je     9aa5 <_ZN6matrix6sparse9CSRMatrixIifE16cpu_mv_split_nnzEPfPKf._omp_fn.2+0x295>
    99b0:	4d 8b 5c 24 28       	mov    0x28(%r12),%r11
    99b5:	4d 63 f1             	movslq %r9d,%r14
    99b8:	4d 8b 44 24 30       	mov    0x30(%r12),%r8
    99bd:	c5 fa 10 65 90       	vmovss -0x70(%rbp),%xmm4
    99c2:	4f 63 3c b3          	movslq (%r11,%r14,4),%r15
    99c6:	c4 81 7a 10 04 b0    	vmovss (%r8,%r14,4),%xmm0
    99cc:	45 8d 71 01          	lea    0x1(%r9),%r14d
    99d0:	c4 a2 59 99 04 bb    	vfmadd132ss (%rbx,%r15,4),%xmm4,%xmm0
    99d6:	c5 fa 11 45 90       	vmovss %xmm0,-0x70(%rbp)
    99db:	45 39 f2             	cmp    %r14d,%r10d
    99de:	0f 8e c1 00 00 00    	jle    9aa5 <_ZN6matrix6sparse9CSRMatrixIifE16cpu_mv_split_nnzEPfPKf._omp_fn.2+0x295>
    99e4:	4d 63 f6             	movslq %r14d,%r14
    99e7:	4f 63 3c b3          	movslq (%r11,%r14,4),%r15
    99eb:	c4 81 7a 10 2c b0    	vmovss (%r8,%r14,4),%xmm5
    99f1:	45 8d 71 02          	lea    0x2(%r9),%r14d
    99f5:	c4 a2 51 b9 04 bb    	vfmadd231ss (%rbx,%r15,4),%xmm5,%xmm0
    99fb:	c5 fa 11 45 90       	vmovss %xmm0,-0x70(%rbp)
    9a00:	45 39 f2             	cmp    %r14d,%r10d
    9a03:	0f 8e 9c 00 00 00    	jle    9aa5 <_ZN6matrix6sparse9CSRMatrixIifE16cpu_mv_split_nnzEPfPKf._omp_fn.2+0x295>
    9a09:	4d 63 f6             	movslq %r14d,%r14
    9a0c:	4f 63 3c b3          	movslq (%r11,%r14,4),%r15
    9a10:	c4 81 7a 10 2c b0    	vmovss (%r8,%r14,4),%xmm5
    9a16:	45 8d 71 03          	lea    0x3(%r9),%r14d
    9a1a:	c4 a2 51 b9 04 bb    	vfmadd231ss (%rbx,%r15,4),%xmm5,%xmm0
    9a20:	c5 fa 11 45 90       	vmovss %xmm0,-0x70(%rbp)
    9a25:	45 39 f2             	cmp    %r14d,%r10d
    9a28:	7e 7b                	jle    9aa5 <_ZN6matrix6sparse9CSRMatrixIifE16cpu_mv_split_nnzEPfPKf._omp_fn.2+0x295>
    9a2a:	4d 63 f6             	movslq %r14d,%r14
    9a2d:	4f 63 3c b3          	movslq (%r11,%r14,4),%r15
    9a31:	c4 81 7a 10 24 b0    	vmovss (%r8,%r14,4),%xmm4
    9a37:	45 8d 71 04          	lea    0x4(%r9),%r14d
    9a3b:	c4 a2 59 b9 04 bb    	vfmadd231ss (%rbx,%r15,4),%xmm4,%xmm0
    9a41:	c5 fa 11 45 90       	vmovss %xmm0,-0x70(%rbp)
    9a46:	45 39 f2             	cmp    %r14d,%r10d
    9a49:	7e 5a                	jle    9aa5 <_ZN6matrix6sparse9CSRMatrixIifE16cpu_mv_split_nnzEPfPKf._omp_fn.2+0x295>
    9a4b:	4d 63 f6             	movslq %r14d,%r14
    9a4e:	4f 63 3c b3          	movslq (%r11,%r14,4),%r15
    9a52:	c4 81 7a 10 2c b0    	vmovss (%r8,%r14,4),%xmm5
    9a58:	45 8d 71 05          	lea    0x5(%r9),%r14d
    9a5c:	c4 a2 51 b9 04 bb    	vfmadd231ss (%rbx,%r15,4),%xmm5,%xmm0
    9a62:	c5 fa 11 45 90       	vmovss %xmm0,-0x70(%rbp)
    9a67:	45 39 f2             	cmp    %r14d,%r10d
    9a6a:	7e 39                	jle    9aa5 <_ZN6matrix6sparse9CSRMatrixIifE16cpu_mv_split_nnzEPfPKf._omp_fn.2+0x295>
    9a6c:	4d 63 f6             	movslq %r14d,%r14
    9a6f:	41 83 c1 06          	add    $0x6,%r9d
    9a73:	4f 63 3c b3          	movslq (%r11,%r14,4),%r15
    9a77:	c4 81 7a 10 24 b0    	vmovss (%r8,%r14,4),%xmm4
    9a7d:	c4 a2 59 b9 04 bb    	vfmadd231ss (%rbx,%r15,4),%xmm4,%xmm0
    9a83:	c5 fa 11 45 90       	vmovss %xmm0,-0x70(%rbp)
    9a88:	45 39 ca             	cmp    %r9d,%r10d
    9a8b:	7e 18                	jle    9aa5 <_ZN6matrix6sparse9CSRMatrixIifE16cpu_mv_split_nnzEPfPKf._omp_fn.2+0x295>
    9a8d:	4d 63 c9             	movslq %r9d,%r9
    9a90:	4f 63 14 8b          	movslq (%r11,%r9,4),%r10
    9a94:	c4 a1 7a 10 24 93    	vmovss (%rbx,%r10,4),%xmm4
    9a9a:	c4 82 59 b9 04 88    	vfmadd231ss (%r8,%r9,4),%xmm4,%xmm0
    9aa0:	c5 fa 11 45 90       	vmovss %xmm0,-0x70(%rbp)
    9aa5:	c5 aa 58 45 90       	vaddss -0x70(%rbp),%xmm10,%xmm0
    9aaa:	c5 fa 58 45 94       	vaddss -0x6c(%rbp),%xmm0,%xmm0
    9aaf:	83 c2 01             	add    $0x1,%edx
    9ab2:	c5 fa 58 45 98       	vaddss -0x68(%rbp),%xmm0,%xmm0
    9ab7:	c5 fa 58 45 9c       	vaddss -0x64(%rbp),%xmm0,%xmm0
    9abc:	c5 fa 58 45 a0       	vaddss -0x60(%rbp),%xmm0,%xmm0
    9ac1:	c5 fa 58 45 a4       	vaddss -0x5c(%rbp),%xmm0,%xmm0
    9ac6:	c5 fa 58 45 a8       	vaddss -0x58(%rbp),%xmm0,%xmm0
    9acb:	c5 fa 58 45 ac       	vaddss -0x54(%rbp),%xmm0,%xmm0
    9ad0:	c4 c1 7a 11 44 05 00 	vmovss %xmm0,0x0(%r13,%rax,1)
    9ad7:	48 89 c8             	mov    %rcx,%rax
    9ada:	49 8b 4c 24 40       	mov    0x40(%r12),%rcx
    9adf:	3b 14 39             	cmp    (%rcx,%rdi,1),%edx
    9ae2:	0f 8c b8 fd ff ff    	jl     98a0 <_ZN6matrix6sparse9CSRMatrixIifE16cpu_mv_split_nnzEPfPKf._omp_fn.2+0x90>
    9ae8:	c5 f8 77             	vzeroupper 
    9aeb:	48 8b 45 c8          	mov    -0x38(%rbp),%rax
    9aef:	64 48 33 04 25 28 00 	xor    %fs:0x28,%rax
    9af6:	00 00 
    9af8:	75 15                	jne    9b0f <_ZN6matrix6sparse9CSRMatrixIifE16cpu_mv_split_nnzEPfPKf._omp_fn.2+0x2ff>
    9afa:	48 83 c4 40          	add    $0x40,%rsp
    9afe:	5b                   	pop    %rbx
    9aff:	41 5a                	pop    %r10
    9b01:	41 5c                	pop    %r12
    9b03:	41 5d                	pop    %r13
    9b05:	41 5e                	pop    %r14
    9b07:	41 5f                	pop    %r15
    9b09:	5d                   	pop    %rbp
    9b0a:	49 8d 62 f8          	lea    -0x8(%r10),%rsp
    9b0e:	c3                   	retq   
    9b0f:	e8 ec 92 ff ff       	callq  2e00 <__stack_chk_fail@plt>
    9b14:	66 2e 0f 1f 84 00 00 	nopw   %cs:0x0(%rax,%rax,1)
    9b1b:	00 00 00 
    9b1e:	66 90                	xchg   %ax,%ax

0000000000009b20 <_ZN6matrix6sparse9CSRMatrixIidEC2ERKNSt7__cxx1112basic_stringIcSt11char_traitsIcESaIcEEEN4util8PlatformE._omp_fn.3>:
    9b20:	41 54                	push   %r12
    9b22:	55                   	push   %rbp
    9b23:	53                   	push   %rbx
    9b24:	48 8b 1f             	mov    (%rdi),%rbx
    9b27:	e8 24 95 ff ff       	callq  3050 <omp_get_num_threads@plt>
    9b2c:	89 c5                	mov    %eax,%ebp
    9b2e:	e8 fd 93 ff ff       	callq  2f30 <omp_get_thread_num@plt>
    9b33:	41 89 c4             	mov    %eax,%r12d
    9b36:	8b 43 0c             	mov    0xc(%rbx),%eax
    9b39:	83 c0 01             	add    $0x1,%eax
    9b3c:	99                   	cltd   
    9b3d:	f7 fd                	idiv   %ebp
    9b3f:	41 39 d4             	cmp    %edx,%r12d
    9b42:	7d 05                	jge    9b49 <_ZN6matrix6sparse9CSRMatrixIidEC2ERKNSt7__cxx1112basic_stringIcSt11char_traitsIcESaIcEEEN4util8PlatformE._omp_fn.3+0x29>
    9b44:	83 c0 01             	add    $0x1,%eax
    9b47:	31 d2                	xor    %edx,%edx
    9b49:	89 c1                	mov    %eax,%ecx
    9b4b:	41 0f af cc          	imul   %r12d,%ecx
    9b4f:	01 ca                	add    %ecx,%edx
    9b51:	01 d0                	add    %edx,%eax
    9b53:	39 c2                	cmp    %eax,%edx
    9b55:	7d 2d                	jge    9b84 <_ZN6matrix6sparse9CSRMatrixIidEC2ERKNSt7__cxx1112basic_stringIcSt11char_traitsIcESaIcEEEN4util8PlatformE._omp_fn.3+0x64>
    9b57:	29 d0                	sub    %edx,%eax
    9b59:	48 63 f2             	movslq %edx,%rsi
    9b5c:	83 e8 01             	sub    $0x1,%eax
    9b5f:	48 8d 0c b5 00 00 00 	lea    0x0(,%rsi,4),%rcx
    9b66:	00 
    9b67:	48 8d 54 06 01       	lea    0x1(%rsi,%rax,1),%rdx
    9b6c:	48 c1 e2 02          	shl    $0x2,%rdx
    9b70:	48 8b 43 20          	mov    0x20(%rbx),%rax
    9b74:	c7 04 08 00 00 00 00 	movl   $0x0,(%rax,%rcx,1)
    9b7b:	48 83 c1 04          	add    $0x4,%rcx
    9b7f:	48 39 ca             	cmp    %rcx,%rdx
    9b82:	75 ec                	jne    9b70 <_ZN6matrix6sparse9CSRMatrixIidEC2ERKNSt7__cxx1112basic_stringIcSt11char_traitsIcESaIcEEEN4util8PlatformE._omp_fn.3+0x50>
    9b84:	e8 97 94 ff ff       	callq  3020 <GOMP_barrier@plt>
    9b89:	8b 43 14             	mov    0x14(%rbx),%eax
    9b8c:	99                   	cltd   
    9b8d:	f7 fd                	idiv   %ebp
    9b8f:	41 39 d4             	cmp    %edx,%r12d
    9b92:	7d 05                	jge    9b99 <_ZN6matrix6sparse9CSRMatrixIidEC2ERKNSt7__cxx1112basic_stringIcSt11char_traitsIcESaIcEEEN4util8PlatformE._omp_fn.3+0x79>
    9b94:	83 c0 01             	add    $0x1,%eax
    9b97:	31 d2                	xor    %edx,%edx
    9b99:	44 0f af e0          	imul   %eax,%r12d
    9b9d:	44 01 e2             	add    %r12d,%edx
    9ba0:	01 d0                	add    %edx,%eax
    9ba2:	39 c2                	cmp    %eax,%edx
    9ba4:	7d 4e                	jge    9bf4 <_ZN6matrix6sparse9CSRMatrixIidEC2ERKNSt7__cxx1112basic_stringIcSt11char_traitsIcESaIcEEEN4util8PlatformE._omp_fn.3+0xd4>
    9ba6:	29 d0                	sub    %edx,%eax
    9ba8:	48 63 fa             	movslq %edx,%rdi
    9bab:	83 e8 01             	sub    $0x1,%eax
    9bae:	48 8d 0c bd 00 00 00 	lea    0x0(,%rdi,4),%rcx
    9bb5:	00 
    9bb6:	48 8d 34 fd 00 00 00 	lea    0x0(,%rdi,8),%rsi
    9bbd:	00 
    9bbe:	48 8d 54 07 01       	lea    0x1(%rdi,%rax,1),%rdx
    9bc3:	48 c1 e2 02          	shl    $0x2,%rdx
    9bc7:	66 0f 1f 84 00 00 00 	nopw   0x0(%rax,%rax,1)
    9bce:	00 00 
    9bd0:	48 8b 43 28          	mov    0x28(%rbx),%rax
    9bd4:	c7 04 08 00 00 00 00 	movl   $0x0,(%rax,%rcx,1)
    9bdb:	48 8b 43 30          	mov    0x30(%rbx),%rax
    9bdf:	48 83 c1 04          	add    $0x4,%rcx
    9be3:	48 c7 04 30 00 00 00 	movq   $0x0,(%rax,%rsi,1)
    9bea:	00 
    9beb:	48 83 c6 08          	add    $0x8,%rsi
    9bef:	48 39 d1             	cmp    %rdx,%rcx
    9bf2:	75 dc                	jne    9bd0 <_ZN6matrix6sparse9CSRMatrixIidEC2ERKNSt7__cxx1112basic_stringIcSt11char_traitsIcESaIcEEEN4util8PlatformE._omp_fn.3+0xb0>
    9bf4:	5b                   	pop    %rbx
    9bf5:	5d                   	pop    %rbp
    9bf6:	41 5c                	pop    %r12
    9bf8:	c3                   	retq   
    9bf9:	0f 1f 80 00 00 00 00 	nopl   0x0(%rax)

0000000000009c00 <_ZN6matrix6sparse9CSRMatrixIidE14cpu_mv_vanillaEPdPKd._omp_fn.4>:
    9c00:	4c 8d 54 24 08       	lea    0x8(%rsp),%r10
    9c05:	48 83 e4 e0          	and    $0xffffffffffffffe0,%rsp
    9c09:	41 ff 72 f8          	pushq  -0x8(%r10)
    9c0d:	55                   	push   %rbp
    9c0e:	48 89 e5             	mov    %rsp,%rbp
    9c11:	41 56                	push   %r14
    9c13:	41 55                	push   %r13
    9c15:	41 54                	push   %r12
    9c17:	49 89 fc             	mov    %rdi,%r12
    9c1a:	41 52                	push   %r10
    9c1c:	53                   	push   %rbx
    9c1d:	48 83 ec 68          	sub    $0x68,%rsp
    9c21:	48 8b 1f             	mov    (%rdi),%rbx
    9c24:	64 48 8b 04 25 28 00 	mov    %fs:0x28,%rax
    9c2b:	00 00 
    9c2d:	48 89 45 c8          	mov    %rax,-0x38(%rbp)
    9c31:	31 c0                	xor    %eax,%eax
    9c33:	e8 18 94 ff ff       	callq  3050 <omp_get_num_threads@plt>
    9c38:	41 89 c5             	mov    %eax,%r13d
    9c3b:	e8 f0 92 ff ff       	callq  2f30 <omp_get_thread_num@plt>
    9c40:	89 c1                	mov    %eax,%ecx
    9c42:	8b 43 0c             	mov    0xc(%rbx),%eax
    9c45:	99                   	cltd   
    9c46:	41 f7 fd             	idiv   %r13d
    9c49:	39 d1                	cmp    %edx,%ecx
    9c4b:	7d 05                	jge    9c52 <_ZN6matrix6sparse9CSRMatrixIidE14cpu_mv_vanillaEPdPKd._omp_fn.4+0x52>
    9c4d:	83 c0 01             	add    $0x1,%eax
    9c50:	31 d2                	xor    %edx,%edx
    9c52:	0f af c8             	imul   %eax,%ecx
    9c55:	01 ca                	add    %ecx,%edx
    9c57:	01 d0                	add    %edx,%eax
    9c59:	39 c2                	cmp    %eax,%edx
    9c5b:	0f 8d e0 02 00 00    	jge    9f41 <_ZN6matrix6sparse9CSRMatrixIidE14cpu_mv_vanillaEPdPKd._omp_fn.4+0x341>
    9c61:	29 d0                	sub    %edx,%eax
    9c63:	48 63 fa             	movslq %edx,%rdi
    9c66:	49 8b 4c 24 10       	mov    0x10(%r12),%rcx
    9c6b:	4d 8b 44 24 08       	mov    0x8(%r12),%r8
    9c70:	83 e8 01             	sub    $0x1,%eax
    9c73:	48 8d 34 bd 00 00 00 	lea    0x0(,%rdi,4),%rsi
    9c7a:	00 
    9c7b:	c5 7d 6f 1d 7d 35 00 	vmovdqa 0x357d(%rip),%ymm11        # d200 <_ZTSSt5_BindIFMN6matrix6sparse9CSRMatrixIidEEFvPdPKdEPS3_St12_PlaceholderILi1EESA_ILi2EEEE+0x60>
    9c82:	00 
    9c83:	c5 7d 6f 0d 95 35 00 	vmovdqa 0x3595(%rip),%ymm9        # d220 <_ZTSSt5_BindIFMN6matrix6sparse9CSRMatrixIidEEFvPdPKdEPS3_St12_PlaceholderILi1EESA_ILi2EEEE+0x80>
    9c8a:	00 
    9c8b:	48 8d 7c 07 01       	lea    0x1(%rdi,%rax,1),%rdi
    9c90:	c5 fd 28 1d a8 35 00 	vmovapd 0x35a8(%rip),%ymm3        # d240 <_ZTSSt5_BindIFMN6matrix6sparse9CSRMatrixIidEEFvPdPKdEPS3_St12_PlaceholderILi1EESA_ILi2EEEE+0xa0>
    9c97:	00 
    9c98:	c4 41 29 57 d2       	vxorpd %xmm10,%xmm10,%xmm10
    9c9d:	48 8d 85 70 ff ff ff 	lea    -0x90(%rbp),%rax
    9ca4:	48 c1 e7 02          	shl    $0x2,%rdi
    9ca8:	c4 41 39 76 c0       	vpcmpeqd %xmm8,%xmm8,%xmm8
    9cad:	0f 1f 00             	nopl   (%rax)
    9cb0:	4c 8b 4b 20          	mov    0x20(%rbx),%r9
    9cb4:	c5 f9 ef c0          	vpxor  %xmm0,%xmm0,%xmm0
    9cb8:	48 8d 56 04          	lea    0x4(%rsi),%rdx
    9cbc:	c5 f8 29 00          	vmovaps %xmm0,(%rax)
    9cc0:	45 8b 14 31          	mov    (%r9,%rsi,1),%r10d
    9cc4:	45 8b 5c 31 04       	mov    0x4(%r9,%rsi,1),%r11d
    9cc9:	c5 f8 29 40 10       	vmovaps %xmm0,0x10(%rax)
    9cce:	c5 f8 29 40 20       	vmovaps %xmm0,0x20(%rax)
    9cd3:	c5 f8 29 40 30       	vmovaps %xmm0,0x30(%rax)
    9cd8:	45 39 da             	cmp    %r11d,%r10d
    9cdb:	0f 8d 1d 02 00 00    	jge    9efe <_ZN6matrix6sparse9CSRMatrixIidE14cpu_mv_vanillaEPdPKd._omp_fn.4+0x2fe>
    9ce1:	45 89 dd             	mov    %r11d,%r13d
    9ce4:	45 29 d5             	sub    %r10d,%r13d
    9ce7:	45 8d 4d ff          	lea    -0x1(%r13),%r9d
    9ceb:	41 83 f9 06          	cmp    $0x6,%r9d
    9cef:	0f 86 fa 00 00 00    	jbe    9def <_ZN6matrix6sparse9CSRMatrixIidE14cpu_mv_vanillaEPdPKd._omp_fn.4+0x1ef>
    9cf5:	c4 c1 79 6e d2       	vmovd  %r10d,%xmm2
    9cfa:	45 89 ec             	mov    %r13d,%r12d
    9cfd:	c4 e2 7d 59 7b 30    	vpbroadcastq 0x30(%rbx),%ymm7
    9d03:	45 31 c9             	xor    %r9d,%r9d
    9d06:	c4 e2 7d 58 d2       	vpbroadcastd %xmm2,%ymm2
    9d0b:	c4 e2 7d 59 73 28    	vpbroadcastq 0x28(%rbx),%ymm6
    9d11:	41 c1 ec 03          	shr    $0x3,%r12d
    9d15:	c4 c1 6d fe d3       	vpaddd %ymm11,%ymm2,%ymm2
    9d1a:	66 0f 1f 44 00 00    	nopw   0x0(%rax,%rax,1)
    9d20:	c5 7d 28 fb          	vmovapd %ymm3,%ymm15
    9d24:	c4 41 79 6f e8       	vmovdqa %xmm8,%xmm13
    9d29:	c4 41 79 6f f0       	vmovdqa %xmm8,%xmm14
    9d2e:	41 83 c1 01          	add    $0x1,%r9d
    9d32:	c4 e2 7d 25 c2       	vpmovsxdq %xmm2,%ymm0
    9d37:	c4 e3 7d 39 d1 01    	vextracti128 $0x1,%ymm2,%xmm1
    9d3d:	c4 c1 6d fe d1       	vpaddd %ymm9,%ymm2,%ymm2
    9d42:	c4 e2 7d 25 c9       	vpmovsxdq %xmm1,%ymm1
    9d47:	c5 dd 73 f0 03       	vpsllq $0x3,%ymm0,%ymm4
    9d4c:	c5 9d 73 f1 03       	vpsllq $0x3,%ymm1,%ymm12
    9d51:	c5 fd 73 f0 02       	vpsllq $0x2,%ymm0,%ymm0
    9d56:	c5 dd d4 e7          	vpaddq %ymm7,%ymm4,%ymm4
    9d5a:	c4 e2 85 93 2c 25 00 	vgatherqpd %ymm15,0x0(,%ymm4,1),%ymm5
    9d61:	00 00 00 
    9d64:	c5 1d d4 e7          	vpaddq %ymm7,%ymm12,%ymm12
    9d68:	c5 7d 28 fb          	vmovapd %ymm3,%ymm15
    9d6c:	c4 a2 85 93 24 25 00 	vgatherqpd %ymm15,0x0(,%ymm12,1),%ymm4
    9d73:	00 00 00 
    9d76:	c5 f5 73 f1 02       	vpsllq $0x2,%ymm1,%ymm1
    9d7b:	c5 7d d4 e6          	vpaddq %ymm6,%ymm0,%ymm12
    9d7f:	c4 a2 15 91 04 25 00 	vpgatherqd %xmm13,0x0(,%ymm12,1),%xmm0
    9d86:	00 00 00 
    9d89:	c5 f5 d4 ce          	vpaddq %ymm6,%ymm1,%ymm1
    9d8d:	c5 7d 28 eb          	vmovapd %ymm3,%ymm13
    9d91:	c4 62 0d 91 24 0d 00 	vpgatherqd %xmm14,0x0(,%ymm1,1),%xmm12
    9d98:	00 00 00 
    9d9b:	c5 7d 28 f3          	vmovapd %ymm3,%ymm14
    9d9f:	c4 c3 7d 38 c4 01    	vinserti128 $0x1,%xmm12,%ymm0,%ymm0
    9da5:	c4 e2 95 92 0c c1    	vgatherdpd %ymm13,(%rcx,%xmm0,8),%ymm1
    9dab:	c4 e3 7d 46 c0 11    	vperm2i128 $0x11,%ymm0,%ymm0,%ymm0
    9db1:	c4 62 8d 92 24 c1    	vgatherdpd %ymm14,(%rcx,%xmm0,8),%ymm12
    9db7:	c4 e2 9d a8 65 90    	vfmadd213pd -0x70(%rbp),%ymm12,%ymm4
    9dbd:	c4 e2 f5 a8 ad 70 ff 	vfmadd213pd -0x90(%rbp),%ymm1,%ymm5
    9dc4:	ff ff 
    9dc6:	c5 fd 29 65 90       	vmovapd %ymm4,-0x70(%rbp)
    9dcb:	c5 fd 29 ad 70 ff ff 	vmovapd %ymm5,-0x90(%rbp)
    9dd2:	ff 
    9dd3:	45 39 cc             	cmp    %r9d,%r12d
    9dd6:	0f 87 44 ff ff ff    	ja     9d20 <_ZN6matrix6sparse9CSRMatrixIidE14cpu_mv_vanillaEPdPKd._omp_fn.4+0x120>
    9ddc:	45 89 e9             	mov    %r13d,%r9d
    9ddf:	41 83 e1 f8          	and    $0xfffffff8,%r9d
    9de3:	45 01 ca             	add    %r9d,%r10d
    9de6:	45 39 e9             	cmp    %r13d,%r9d
    9de9:	0f 84 0f 01 00 00    	je     9efe <_ZN6matrix6sparse9CSRMatrixIidE14cpu_mv_vanillaEPdPKd._omp_fn.4+0x2fe>
    9def:	4c 8b 63 28          	mov    0x28(%rbx),%r12
    9df3:	4d 63 ea             	movslq %r10d,%r13
    9df6:	4c 8b 4b 30          	mov    0x30(%rbx),%r9
    9dfa:	c5 fb 10 b5 70 ff ff 	vmovsd -0x90(%rbp),%xmm6
    9e01:	ff 
    9e02:	4f 63 34 ac          	movslq (%r12,%r13,4),%r14
    9e06:	c4 81 7b 10 04 e9    	vmovsd (%r9,%r13,8),%xmm0
    9e0c:	45 8d 6a 01          	lea    0x1(%r10),%r13d
    9e10:	c4 a2 c9 99 04 f1    	vfmadd132sd (%rcx,%r14,8),%xmm6,%xmm0
    9e16:	c5 fb 11 85 70 ff ff 	vmovsd %xmm0,-0x90(%rbp)
    9e1d:	ff 
    9e1e:	45 39 eb             	cmp    %r13d,%r11d
    9e21:	0f 8e d7 00 00 00    	jle    9efe <_ZN6matrix6sparse9CSRMatrixIidE14cpu_mv_vanillaEPdPKd._omp_fn.4+0x2fe>
    9e27:	4d 63 ed             	movslq %r13d,%r13
    9e2a:	4f 63 34 ac          	movslq (%r12,%r13,4),%r14
    9e2e:	c4 81 7b 10 3c e9    	vmovsd (%r9,%r13,8),%xmm7
    9e34:	45 8d 6a 02          	lea    0x2(%r10),%r13d
    9e38:	c4 a2 c1 b9 04 f1    	vfmadd231sd (%rcx,%r14,8),%xmm7,%xmm0
    9e3e:	c5 fb 11 85 70 ff ff 	vmovsd %xmm0,-0x90(%rbp)
    9e45:	ff 
    9e46:	45 39 eb             	cmp    %r13d,%r11d
    9e49:	0f 8e af 00 00 00    	jle    9efe <_ZN6matrix6sparse9CSRMatrixIidE14cpu_mv_vanillaEPdPKd._omp_fn.4+0x2fe>
    9e4f:	4d 63 ed             	movslq %r13d,%r13
    9e52:	4f 63 34 ac          	movslq (%r12,%r13,4),%r14
    9e56:	c4 81 7b 10 3c e9    	vmovsd (%r9,%r13,8),%xmm7
    9e5c:	45 8d 6a 03          	lea    0x3(%r10),%r13d
    9e60:	c4 a2 c1 b9 04 f1    	vfmadd231sd (%rcx,%r14,8),%xmm7,%xmm0
    9e66:	c5 fb 11 85 70 ff ff 	vmovsd %xmm0,-0x90(%rbp)
    9e6d:	ff 
    9e6e:	45 39 eb             	cmp    %r13d,%r11d
    9e71:	0f 8e 87 00 00 00    	jle    9efe <_ZN6matrix6sparse9CSRMatrixIidE14cpu_mv_vanillaEPdPKd._omp_fn.4+0x2fe>
    9e77:	4d 63 ed             	movslq %r13d,%r13
    9e7a:	4f 63 34 ac          	movslq (%r12,%r13,4),%r14
    9e7e:	c4 81 7b 10 34 e9    	vmovsd (%r9,%r13,8),%xmm6
    9e84:	45 8d 6a 04          	lea    0x4(%r10),%r13d
    9e88:	c4 a2 c9 b9 04 f1    	vfmadd231sd (%rcx,%r14,8),%xmm6,%xmm0
    9e8e:	c5 fb 11 85 70 ff ff 	vmovsd %xmm0,-0x90(%rbp)
    9e95:	ff 
    9e96:	45 39 eb             	cmp    %r13d,%r11d
    9e99:	7e 63                	jle    9efe <_ZN6matrix6sparse9CSRMatrixIidE14cpu_mv_vanillaEPdPKd._omp_fn.4+0x2fe>
    9e9b:	4d 63 ed             	movslq %r13d,%r13
    9e9e:	4f 63 34 ac          	movslq (%r12,%r13,4),%r14
    9ea2:	c4 81 7b 10 3c e9    	vmovsd (%r9,%r13,8),%xmm7
    9ea8:	45 8d 6a 05          	lea    0x5(%r10),%r13d
    9eac:	c4 a2 c1 b9 04 f1    	vfmadd231sd (%rcx,%r14,8),%xmm7,%xmm0
    9eb2:	c5 fb 11 85 70 ff ff 	vmovsd %xmm0,-0x90(%rbp)
    9eb9:	ff 
    9eba:	45 39 eb             	cmp    %r13d,%r11d
    9ebd:	7e 3f                	jle    9efe <_ZN6matrix6sparse9CSRMatrixIidE14cpu_mv_vanillaEPdPKd._omp_fn.4+0x2fe>
    9ebf:	4d 63 ed             	movslq %r13d,%r13
    9ec2:	41 83 c2 06          	add    $0x6,%r10d
    9ec6:	4f 63 34 ac          	movslq (%r12,%r13,4),%r14
    9eca:	c4 81 7b 10 34 e9    	vmovsd (%r9,%r13,8),%xmm6
    9ed0:	c4 a2 c9 b9 04 f1    	vfmadd231sd (%rcx,%r14,8),%xmm6,%xmm0
    9ed6:	c5 fb 11 85 70 ff ff 	vmovsd %xmm0,-0x90(%rbp)
    9edd:	ff 
    9ede:	45 39 d3             	cmp    %r10d,%r11d
    9ee1:	7e 1b                	jle    9efe <_ZN6matrix6sparse9CSRMatrixIidE14cpu_mv_vanillaEPdPKd._omp_fn.4+0x2fe>
    9ee3:	4d 63 d2             	movslq %r10d,%r10
    9ee6:	4f 63 1c 94          	movslq (%r12,%r10,4),%r11
    9eea:	c4 a1 7b 10 34 d9    	vmovsd (%rcx,%r11,8),%xmm6
    9ef0:	c4 82 c9 b9 04 d1    	vfmadd231sd (%r9,%r10,8),%xmm6,%xmm0
    9ef6:	c5 fb 11 85 70 ff ff 	vmovsd %xmm0,-0x90(%rbp)
    9efd:	ff 
    9efe:	c5 ab 58 85 70 ff ff 	vaddsd -0x90(%rbp),%xmm10,%xmm0
    9f05:	ff 
    9f06:	c5 fb 58 85 78 ff ff 	vaddsd -0x88(%rbp),%xmm0,%xmm0
    9f0d:	ff 
    9f0e:	c5 fb 58 45 80       	vaddsd -0x80(%rbp),%xmm0,%xmm0
    9f13:	c5 fb 58 45 88       	vaddsd -0x78(%rbp),%xmm0,%xmm0
    9f18:	c5 fb 58 45 90       	vaddsd -0x70(%rbp),%xmm0,%xmm0
    9f1d:	c5 fb 58 45 98       	vaddsd -0x68(%rbp),%xmm0,%xmm0
    9f22:	c5 fb 58 45 a0       	vaddsd -0x60(%rbp),%xmm0,%xmm0
    9f27:	c5 fb 58 45 a8       	vaddsd -0x58(%rbp),%xmm0,%xmm0
    9f2c:	c4 c1 7b 11 04 70    	vmovsd %xmm0,(%r8,%rsi,2)
    9f32:	48 89 d6             	mov    %rdx,%rsi
    9f35:	48 39 fa             	cmp    %rdi,%rdx
    9f38:	0f 85 72 fd ff ff    	jne    9cb0 <_ZN6matrix6sparse9CSRMatrixIidE14cpu_mv_vanillaEPdPKd._omp_fn.4+0xb0>
    9f3e:	c5 f8 77             	vzeroupper 
    9f41:	48 8b 45 c8          	mov    -0x38(%rbp),%rax
    9f45:	64 48 33 04 25 28 00 	xor    %fs:0x28,%rax
    9f4c:	00 00 
    9f4e:	75 13                	jne    9f63 <_ZN6matrix6sparse9CSRMatrixIidE14cpu_mv_vanillaEPdPKd._omp_fn.4+0x363>
    9f50:	48 83 c4 68          	add    $0x68,%rsp
    9f54:	5b                   	pop    %rbx
    9f55:	41 5a                	pop    %r10
    9f57:	41 5c                	pop    %r12
    9f59:	41 5d                	pop    %r13
    9f5b:	41 5e                	pop    %r14
    9f5d:	5d                   	pop    %rbp
    9f5e:	49 8d 62 f8          	lea    -0x8(%r10),%rsp
    9f62:	c3                   	retq   
    9f63:	e8 98 8e ff ff       	callq  2e00 <__stack_chk_fail@plt>
    9f68:	0f 1f 84 00 00 00 00 	nopl   0x0(%rax,%rax,1)
    9f6f:	00 

0000000000009f70 <_ZN6matrix6sparse9CSRMatrixIidE16cpu_mv_split_nnzEPdPKd._omp_fn.5>:
    9f70:	4c 8d 54 24 08       	lea    0x8(%rsp),%r10
    9f75:	48 83 e4 e0          	and    $0xffffffffffffffe0,%rsp
    9f79:	41 ff 72 f8          	pushq  -0x8(%r10)
    9f7d:	55                   	push   %rbp
    9f7e:	48 89 e5             	mov    %rsp,%rbp
    9f81:	41 57                	push   %r15
    9f83:	41 56                	push   %r14
    9f85:	41 55                	push   %r13
    9f87:	41 54                	push   %r12
    9f89:	41 52                	push   %r10
    9f8b:	53                   	push   %rbx
    9f8c:	48 83 ec 60          	sub    $0x60,%rsp
    9f90:	4c 8b 27             	mov    (%rdi),%r12
    9f93:	48 8b 5f 10          	mov    0x10(%rdi),%rbx
    9f97:	64 48 8b 04 25 28 00 	mov    %fs:0x28,%rax
    9f9e:	00 00 
    9fa0:	48 89 45 c8          	mov    %rax,-0x38(%rbp)
    9fa4:	31 c0                	xor    %eax,%eax
    9fa6:	4c 8b 6f 08          	mov    0x8(%rdi),%r13
    9faa:	e8 81 8f ff ff       	callq  2f30 <omp_get_thread_num@plt>
    9faf:	49 8b 74 24 40       	mov    0x40(%r12),%rsi
    9fb4:	48 98                	cltq   
    9fb6:	48 8d 14 85 00 00 00 	lea    0x0(,%rax,4),%rdx
    9fbd:	00 
    9fbe:	8b 0c 86             	mov    (%rsi,%rax,4),%ecx
    9fc1:	3b 4c 16 04          	cmp    0x4(%rsi,%rdx,1),%ecx
    9fc5:	0f 8d d1 02 00 00    	jge    a29c <_ZN6matrix6sparse9CSRMatrixIidE16cpu_mv_split_nnzEPdPKd._omp_fn.5+0x32c>
    9fcb:	48 63 c1             	movslq %ecx,%rax
    9fce:	48 8d 7a 04          	lea    0x4(%rdx),%rdi
    9fd2:	c4 41 29 57 d2       	vxorpd %xmm10,%xmm10,%xmm10
    9fd7:	c5 7d 6f 1d 21 32 00 	vmovdqa 0x3221(%rip),%ymm11        # d200 <_ZTSSt5_BindIFMN6matrix6sparse9CSRMatrixIidEEFvPdPKdEPS3_St12_PlaceholderILi1EESA_ILi2EEEE+0x60>
    9fde:	00 
    9fdf:	c5 7d 6f 0d 39 32 00 	vmovdqa 0x3239(%rip),%ymm9        # d220 <_ZTSSt5_BindIFMN6matrix6sparse9CSRMatrixIidEEFvPdPKdEPS3_St12_PlaceholderILi1EESA_ILi2EEEE+0x80>
    9fe6:	00 
    9fe7:	48 c1 e0 02          	shl    $0x2,%rax
    9feb:	c4 41 39 76 c0       	vpcmpeqd %xmm8,%xmm8,%xmm8
    9ff0:	c5 fd 28 1d 48 32 00 	vmovapd 0x3248(%rip),%ymm3        # d240 <_ZTSSt5_BindIFMN6matrix6sparse9CSRMatrixIidEEFvPdPKdEPS3_St12_PlaceholderILi1EESA_ILi2EEEE+0xa0>
    9ff7:	00 
    9ff8:	48 8d 95 70 ff ff ff 	lea    -0x90(%rbp),%rdx
    9fff:	90                   	nop
    a000:	4d 8b 44 24 20       	mov    0x20(%r12),%r8
    a005:	c5 f9 ef c0          	vpxor  %xmm0,%xmm0,%xmm0
    a009:	48 8d 70 04          	lea    0x4(%rax),%rsi
    a00d:	c5 f8 29 02          	vmovaps %xmm0,(%rdx)
    a011:	45 8b 0c 00          	mov    (%r8,%rax,1),%r9d
    a015:	45 8b 54 00 04       	mov    0x4(%r8,%rax,1),%r10d
    a01a:	c5 f8 29 42 10       	vmovaps %xmm0,0x10(%rdx)
    a01f:	c5 f8 29 42 20       	vmovaps %xmm0,0x20(%rdx)
    a024:	c5 f8 29 42 30       	vmovaps %xmm0,0x30(%rdx)
    a029:	45 39 d1             	cmp    %r10d,%r9d
    a02c:	0f 8d 1e 02 00 00    	jge    a250 <_ZN6matrix6sparse9CSRMatrixIidE16cpu_mv_split_nnzEPdPKd._omp_fn.5+0x2e0>
    a032:	45 89 d6             	mov    %r10d,%r14d
    a035:	45 29 ce             	sub    %r9d,%r14d
    a038:	45 8d 46 ff          	lea    -0x1(%r14),%r8d
    a03c:	41 83 f8 06          	cmp    $0x6,%r8d
    a040:	0f 86 f9 00 00 00    	jbe    a13f <_ZN6matrix6sparse9CSRMatrixIidE16cpu_mv_split_nnzEPdPKd._omp_fn.5+0x1cf>
    a046:	c4 c1 79 6e d1       	vmovd  %r9d,%xmm2
    a04b:	45 89 f3             	mov    %r14d,%r11d
    a04e:	45 31 c0             	xor    %r8d,%r8d
    a051:	c4 c2 7d 59 7c 24 30 	vpbroadcastq 0x30(%r12),%ymm7
    a058:	c4 e2 7d 58 d2       	vpbroadcastd %xmm2,%ymm2
    a05d:	c4 c2 7d 59 74 24 28 	vpbroadcastq 0x28(%r12),%ymm6
    a064:	41 c1 eb 03          	shr    $0x3,%r11d
    a068:	c4 c1 6d fe d3       	vpaddd %ymm11,%ymm2,%ymm2
    a06d:	0f 1f 00             	nopl   (%rax)
    a070:	c5 7d 28 fb          	vmovapd %ymm3,%ymm15
    a074:	c4 41 79 6f e8       	vmovdqa %xmm8,%xmm13
    a079:	c4 41 79 6f f0       	vmovdqa %xmm8,%xmm14
    a07e:	41 83 c0 01          	add    $0x1,%r8d
    a082:	c4 e2 7d 25 c2       	vpmovsxdq %xmm2,%ymm0
    a087:	c4 e3 7d 39 d1 01    	vextracti128 $0x1,%ymm2,%xmm1
    a08d:	c4 c1 6d fe d1       	vpaddd %ymm9,%ymm2,%ymm2
    a092:	c4 e2 7d 25 c9       	vpmovsxdq %xmm1,%ymm1
    a097:	c5 dd 73 f0 03       	vpsllq $0x3,%ymm0,%ymm4
    a09c:	c5 9d 73 f1 03       	vpsllq $0x3,%ymm1,%ymm12
    a0a1:	c5 fd 73 f0 02       	vpsllq $0x2,%ymm0,%ymm0
    a0a6:	c5 dd d4 e7          	vpaddq %ymm7,%ymm4,%ymm4
    a0aa:	c4 e2 85 93 2c 25 00 	vgatherqpd %ymm15,0x0(,%ymm4,1),%ymm5
    a0b1:	00 00 00 
    a0b4:	c5 1d d4 e7          	vpaddq %ymm7,%ymm12,%ymm12
    a0b8:	c5 7d 28 fb          	vmovapd %ymm3,%ymm15
    a0bc:	c4 a2 85 93 24 25 00 	vgatherqpd %ymm15,0x0(,%ymm12,1),%ymm4
    a0c3:	00 00 00 
    a0c6:	c5 f5 73 f1 02       	vpsllq $0x2,%ymm1,%ymm1
    a0cb:	c5 7d d4 e6          	vpaddq %ymm6,%ymm0,%ymm12
    a0cf:	c4 a2 15 91 04 25 00 	vpgatherqd %xmm13,0x0(,%ymm12,1),%xmm0
    a0d6:	00 00 00 
    a0d9:	c5 f5 d4 ce          	vpaddq %ymm6,%ymm1,%ymm1
    a0dd:	c5 7d 28 eb          	vmovapd %ymm3,%ymm13
    a0e1:	c4 62 0d 91 24 0d 00 	vpgatherqd %xmm14,0x0(,%ymm1,1),%xmm12
    a0e8:	00 00 00 
    a0eb:	c5 7d 28 f3          	vmovapd %ymm3,%ymm14
    a0ef:	c4 c3 7d 38 c4 01    	vinserti128 $0x1,%xmm12,%ymm0,%ymm0
    a0f5:	c4 e2 95 92 0c c3    	vgatherdpd %ymm13,(%rbx,%xmm0,8),%ymm1
    a0fb:	c4 e3 7d 46 c0 11    	vperm2i128 $0x11,%ymm0,%ymm0,%ymm0
    a101:	c4 62 8d 92 24 c3    	vgatherdpd %ymm14,(%rbx,%xmm0,8),%ymm12
    a107:	c4 e2 9d a8 65 90    	vfmadd213pd -0x70(%rbp),%ymm12,%ymm4
    a10d:	c4 e2 f5 a8 ad 70 ff 	vfmadd213pd -0x90(%rbp),%ymm1,%ymm5
    a114:	ff ff 
    a116:	c5 fd 29 65 90       	vmovapd %ymm4,-0x70(%rbp)
    a11b:	c5 fd 29 ad 70 ff ff 	vmovapd %ymm5,-0x90(%rbp)
    a122:	ff 
    a123:	45 39 d8             	cmp    %r11d,%r8d
    a126:	0f 82 44 ff ff ff    	jb     a070 <_ZN6matrix6sparse9CSRMatrixIidE16cpu_mv_split_nnzEPdPKd._omp_fn.5+0x100>
    a12c:	45 89 f0             	mov    %r14d,%r8d
    a12f:	41 83 e0 f8          	and    $0xfffffff8,%r8d
    a133:	45 01 c1             	add    %r8d,%r9d
    a136:	45 39 c6             	cmp    %r8d,%r14d
    a139:	0f 84 11 01 00 00    	je     a250 <_ZN6matrix6sparse9CSRMatrixIidE16cpu_mv_split_nnzEPdPKd._omp_fn.5+0x2e0>
    a13f:	4d 8b 5c 24 28       	mov    0x28(%r12),%r11
    a144:	4d 63 f1             	movslq %r9d,%r14
    a147:	4d 8b 44 24 30       	mov    0x30(%r12),%r8
    a14c:	c5 fb 10 b5 70 ff ff 	vmovsd -0x90(%rbp),%xmm6
    a153:	ff 
    a154:	4f 63 3c b3          	movslq (%r11,%r14,4),%r15
    a158:	c4 81 7b 10 04 f0    	vmovsd (%r8,%r14,8),%xmm0
    a15e:	45 8d 71 01          	lea    0x1(%r9),%r14d
    a162:	c4 a2 c9 99 04 fb    	vfmadd132sd (%rbx,%r15,8),%xmm6,%xmm0
    a168:	c5 fb 11 85 70 ff ff 	vmovsd %xmm0,-0x90(%rbp)
    a16f:	ff 
    a170:	45 39 f2             	cmp    %r14d,%r10d
    a173:	0f 8e d7 00 00 00    	jle    a250 <_ZN6matrix6sparse9CSRMatrixIidE16cpu_mv_split_nnzEPdPKd._omp_fn.5+0x2e0>
    a179:	4d 63 f6             	movslq %r14d,%r14
    a17c:	4f 63 3c b3          	movslq (%r11,%r14,4),%r15
    a180:	c4 81 7b 10 3c f0    	vmovsd (%r8,%r14,8),%xmm7
    a186:	45 8d 71 02          	lea    0x2(%r9),%r14d
    a18a:	c4 a2 c1 b9 04 fb    	vfmadd231sd (%rbx,%r15,8),%xmm7,%xmm0
    a190:	c5 fb 11 85 70 ff ff 	vmovsd %xmm0,-0x90(%rbp)
    a197:	ff 
    a198:	45 39 f2             	cmp    %r14d,%r10d
    a19b:	0f 8e af 00 00 00    	jle    a250 <_ZN6matrix6sparse9CSRMatrixIidE16cpu_mv_split_nnzEPdPKd._omp_fn.5+0x2e0>
    a1a1:	4d 63 f6             	movslq %r14d,%r14
    a1a4:	4f 63 3c b3          	movslq (%r11,%r14,4),%r15
    a1a8:	c4 81 7b 10 3c f0    	vmovsd (%r8,%r14,8),%xmm7
    a1ae:	45 8d 71 03          	lea    0x3(%r9),%r14d
    a1b2:	c4 a2 c1 b9 04 fb    	vfmadd231sd (%rbx,%r15,8),%xmm7,%xmm0
    a1b8:	c5 fb 11 85 70 ff ff 	vmovsd %xmm0,-0x90(%rbp)
    a1bf:	ff 
    a1c0:	45 39 f2             	cmp    %r14d,%r10d
    a1c3:	0f 8e 87 00 00 00    	jle    a250 <_ZN6matrix6sparse9CSRMatrixIidE16cpu_mv_split_nnzEPdPKd._omp_fn.5+0x2e0>
    a1c9:	4d 63 f6             	movslq %r14d,%r14
    a1cc:	4f 63 3c b3          	movslq (%r11,%r14,4),%r15
    a1d0:	c4 81 7b 10 34 f0    	vmovsd (%r8,%r14,8),%xmm6
    a1d6:	45 8d 71 04          	lea    0x4(%r9),%r14d
    a1da:	c4 a2 c9 b9 04 fb    	vfmadd231sd (%rbx,%r15,8),%xmm6,%xmm0
    a1e0:	c5 fb 11 85 70 ff ff 	vmovsd %xmm0,-0x90(%rbp)
    a1e7:	ff 
    a1e8:	45 39 f2             	cmp    %r14d,%r10d
    a1eb:	7e 63                	jle    a250 <_ZN6matrix6sparse9CSRMatrixIidE16cpu_mv_split_nnzEPdPKd._omp_fn.5+0x2e0>
    a1ed:	4d 63 f6             	movslq %r14d,%r14
    a1f0:	4f 63 3c b3          	movslq (%r11,%r14,4),%r15
    a1f4:	c4 81 7b 10 3c f0    	vmovsd (%r8,%r14,8),%xmm7
    a1fa:	45 8d 71 05          	lea    0x5(%r9),%r14d
    a1fe:	c4 a2 c1 b9 04 fb    	vfmadd231sd (%rbx,%r15,8),%xmm7,%xmm0
    a204:	c5 fb 11 85 70 ff ff 	vmovsd %xmm0,-0x90(%rbp)
    a20b:	ff 
    a20c:	45 39 f2             	cmp    %r14d,%r10d
    a20f:	7e 3f                	jle    a250 <_ZN6matrix6sparse9CSRMatrixIidE16cpu_mv_split_nnzEPdPKd._omp_fn.5+0x2e0>
    a211:	4d 63 f6             	movslq %r14d,%r14
    a214:	41 83 c1 06          	add    $0x6,%r9d
    a218:	4f 63 3c b3          	movslq (%r11,%r14,4),%r15
    a21c:	c4 81 7b 10 34 f0    	vmovsd (%r8,%r14,8),%xmm6
    a222:	c4 a2 c9 b9 04 fb    	vfmadd231sd (%rbx,%r15,8),%xmm6,%xmm0
    a228:	c5 fb 11 85 70 ff ff 	vmovsd %xmm0,-0x90(%rbp)
    a22f:	ff 
    a230:	45 39 ca             	cmp    %r9d,%r10d
    a233:	7e 1b                	jle    a250 <_ZN6matrix6sparse9CSRMatrixIidE16cpu_mv_split_nnzEPdPKd._omp_fn.5+0x2e0>
    a235:	4d 63 c9             	movslq %r9d,%r9
    a238:	4f 63 14 8b          	movslq (%r11,%r9,4),%r10
    a23c:	c4 a1 7b 10 34 d3    	vmovsd (%rbx,%r10,8),%xmm6
    a242:	c4 82 c9 b9 04 c8    	vfmadd231sd (%r8,%r9,8),%xmm6,%xmm0
    a248:	c5 fb 11 85 70 ff ff 	vmovsd %xmm0,-0x90(%rbp)
    a24f:	ff 
    a250:	c5 ab 58 85 70 ff ff 	vaddsd -0x90(%rbp),%xmm10,%xmm0
    a257:	ff 
    a258:	c5 fb 58 85 78 ff ff 	vaddsd -0x88(%rbp),%xmm0,%xmm0
    a25f:	ff 
    a260:	83 c1 01             	add    $0x1,%ecx
    a263:	c5 fb 58 45 80       	vaddsd -0x80(%rbp),%xmm0,%xmm0
    a268:	c5 fb 58 45 88       	vaddsd -0x78(%rbp),%xmm0,%xmm0
    a26d:	c5 fb 58 45 90       	vaddsd -0x70(%rbp),%xmm0,%xmm0
    a272:	c5 fb 58 45 98       	vaddsd -0x68(%rbp),%xmm0,%xmm0
    a277:	c5 fb 58 45 a0       	vaddsd -0x60(%rbp),%xmm0,%xmm0
    a27c:	c5 fb 58 45 a8       	vaddsd -0x58(%rbp),%xmm0,%xmm0
    a281:	c4 c1 7b 11 44 45 00 	vmovsd %xmm0,0x0(%r13,%rax,2)
    a288:	48 89 f0             	mov    %rsi,%rax
    a28b:	49 8b 74 24 40       	mov    0x40(%r12),%rsi
    a290:	3b 0c 3e             	cmp    (%rsi,%rdi,1),%ecx
    a293:	0f 8c 67 fd ff ff    	jl     a000 <_ZN6matrix6sparse9CSRMatrixIidE16cpu_mv_split_nnzEPdPKd._omp_fn.5+0x90>
    a299:	c5 f8 77             	vzeroupper 
    a29c:	48 8b 45 c8          	mov    -0x38(%rbp),%rax
    a2a0:	64 48 33 04 25 28 00 	xor    %fs:0x28,%rax
    a2a7:	00 00 
    a2a9:	75 15                	jne    a2c0 <_ZN6matrix6sparse9CSRMatrixIidE16cpu_mv_split_nnzEPdPKd._omp_fn.5+0x350>
    a2ab:	48 83 c4 60          	add    $0x60,%rsp
    a2af:	5b                   	pop    %rbx
    a2b0:	41 5a                	pop    %r10
    a2b2:	41 5c                	pop    %r12
    a2b4:	41 5d                	pop    %r13
    a2b6:	41 5e                	pop    %r14
    a2b8:	41 5f                	pop    %r15
    a2ba:	5d                   	pop    %rbp
    a2bb:	49 8d 62 f8          	lea    -0x8(%r10),%rsp
    a2bf:	c3                   	retq   
    a2c0:	e8 3b 8b ff ff       	callq  2e00 <__stack_chk_fail@plt>
    a2c5:	66 2e 0f 1f 84 00 00 	nopw   %cs:0x0(%rax,%rax,1)
    a2cc:	00 00 00 
    a2cf:	90                   	nop

000000000000a2d0 <_ZNSt14_Function_base13_Base_managerISt5_BindIFMN6matrix6sparse9CSRMatrixIifEEFvPfPKfEPS5_St12_PlaceholderILi1EESC_ILi2EEEEE10_M_managerERSt9_Any_dataRKSI_St18_Manager_operation>:
    a2d0:	83 fa 01             	cmp    $0x1,%edx
    a2d3:	74 6b                	je     a340 <_ZNSt14_Function_base13_Base_managerISt5_BindIFMN6matrix6sparse9CSRMatrixIifEEFvPfPKfEPS5_St12_PlaceholderILi1EESC_ILi2EEEEE10_M_managerERSt9_Any_dataRKSI_St18_Manager_operation+0x70>
    a2d5:	72 59                	jb     a330 <_ZNSt14_Function_base13_Base_managerISt5_BindIFMN6matrix6sparse9CSRMatrixIifEEFvPfPKfEPS5_St12_PlaceholderILi1EESC_ILi2EEEEE10_M_managerERSt9_Any_dataRKSI_St18_Manager_operation+0x60>
    a2d7:	55                   	push   %rbp
    a2d8:	53                   	push   %rbx
    a2d9:	48 89 fb             	mov    %rdi,%rbx
    a2dc:	48 83 ec 08          	sub    $0x8,%rsp
    a2e0:	83 fa 02             	cmp    $0x2,%edx
    a2e3:	74 1b                	je     a300 <_ZNSt14_Function_base13_Base_managerISt5_BindIFMN6matrix6sparse9CSRMatrixIifEEFvPfPKfEPS5_St12_PlaceholderILi1EESC_ILi2EEEEE10_M_managerERSt9_Any_dataRKSI_St18_Manager_operation+0x30>
    a2e5:	83 fa 03             	cmp    $0x3,%edx
    a2e8:	75 08                	jne    a2f2 <_ZNSt14_Function_base13_Base_managerISt5_BindIFMN6matrix6sparse9CSRMatrixIifEEFvPfPKfEPS5_St12_PlaceholderILi1EESC_ILi2EEEEE10_M_managerERSt9_Any_dataRKSI_St18_Manager_operation+0x22>
    a2ea:	48 8b 3f             	mov    (%rdi),%rdi
    a2ed:	e8 ce 8a ff ff       	callq  2dc0 <_ZdlPv@plt>
    a2f2:	48 83 c4 08          	add    $0x8,%rsp
    a2f6:	31 c0                	xor    %eax,%eax
    a2f8:	5b                   	pop    %rbx
    a2f9:	5d                   	pop    %rbp
    a2fa:	c3                   	retq   
    a2fb:	0f 1f 44 00 00       	nopl   0x0(%rax,%rax,1)
    a300:	48 8b 2e             	mov    (%rsi),%rbp
    a303:	bf 18 00 00 00       	mov    $0x18,%edi
    a308:	e8 d3 8a ff ff       	callq  2de0 <_Znwm@plt>
    a30d:	c5 fa 6f 45 00       	vmovdqu 0x0(%rbp),%xmm0
    a312:	c5 f8 11 00          	vmovups %xmm0,(%rax)
    a316:	48 8b 55 10          	mov    0x10(%rbp),%rdx
    a31a:	48 89 03             	mov    %rax,(%rbx)
    a31d:	48 89 50 10          	mov    %rdx,0x10(%rax)
    a321:	48 83 c4 08          	add    $0x8,%rsp
    a325:	31 c0                	xor    %eax,%eax
    a327:	5b                   	pop    %rbx
    a328:	5d                   	pop    %rbp
    a329:	c3                   	retq   
    a32a:	66 0f 1f 44 00 00    	nopw   0x0(%rax,%rax,1)
    a330:	48 8d 05 c1 67 20 00 	lea    0x2067c1(%rip),%rax        # 210af8 <_ZTVN10__cxxabiv120__si_class_type_infoE@CXXABI_1.3>
    a337:	48 89 07             	mov    %rax,(%rdi)
    a33a:	31 c0                	xor    %eax,%eax
    a33c:	c3                   	retq   
    a33d:	0f 1f 00             	nopl   (%rax)
    a340:	48 8b 06             	mov    (%rsi),%rax
    a343:	48 89 07             	mov    %rax,(%rdi)
    a346:	31 c0                	xor    %eax,%eax
    a348:	c3                   	retq   
    a349:	0f 1f 80 00 00 00 00 	nopl   0x0(%rax)

000000000000a350 <_ZNSt14_Function_base13_Base_managerISt5_BindIFMN6matrix6sparse9CSRMatrixIidEEFvPdPKdEPS5_St12_PlaceholderILi1EESC_ILi2EEEEE10_M_managerERSt9_Any_dataRKSI_St18_Manager_operation>:
    a350:	83 fa 01             	cmp    $0x1,%edx
    a353:	74 6b                	je     a3c0 <_ZNSt14_Function_base13_Base_managerISt5_BindIFMN6matrix6sparse9CSRMatrixIidEEFvPdPKdEPS5_St12_PlaceholderILi1EESC_ILi2EEEEE10_M_managerERSt9_Any_dataRKSI_St18_Manager_operation+0x70>
    a355:	72 59                	jb     a3b0 <_ZNSt14_Function_base13_Base_managerISt5_BindIFMN6matrix6sparse9CSRMatrixIidEEFvPdPKdEPS5_St12_PlaceholderILi1EESC_ILi2EEEEE10_M_managerERSt9_Any_dataRKSI_St18_Manager_operation+0x60>
    a357:	55                   	push   %rbp
    a358:	53                   	push   %rbx
    a359:	48 89 fb             	mov    %rdi,%rbx
    a35c:	48 83 ec 08          	sub    $0x8,%rsp
    a360:	83 fa 02             	cmp    $0x2,%edx
    a363:	74 1b                	je     a380 <_ZNSt14_Function_base13_Base_managerISt5_BindIFMN6matrix6sparse9CSRMatrixIidEEFvPdPKdEPS5_St12_PlaceholderILi1EESC_ILi2EEEEE10_M_managerERSt9_Any_dataRKSI_St18_Manager_operation+0x30>
    a365:	83 fa 03             	cmp    $0x3,%edx
    a368:	75 08                	jne    a372 <_ZNSt14_Function_base13_Base_managerISt5_BindIFMN6matrix6sparse9CSRMatrixIidEEFvPdPKdEPS5_St12_PlaceholderILi1EESC_ILi2EEEEE10_M_managerERSt9_Any_dataRKSI_St18_Manager_operation+0x22>
    a36a:	48 8b 3f             	mov    (%rdi),%rdi
    a36d:	e8 4e 8a ff ff       	callq  2dc0 <_ZdlPv@plt>
    a372:	48 83 c4 08          	add    $0x8,%rsp
    a376:	31 c0                	xor    %eax,%eax
    a378:	5b                   	pop    %rbx
    a379:	5d                   	pop    %rbp
    a37a:	c3                   	retq   
    a37b:	0f 1f 44 00 00       	nopl   0x0(%rax,%rax,1)
    a380:	48 8b 2e             	mov    (%rsi),%rbp
    a383:	bf 18 00 00 00       	mov    $0x18,%edi
    a388:	e8 53 8a ff ff       	callq  2de0 <_Znwm@plt>
    a38d:	c5 fa 6f 45 00       	vmovdqu 0x0(%rbp),%xmm0
    a392:	c5 f8 11 00          	vmovups %xmm0,(%rax)
    a396:	48 8b 55 10          	mov    0x10(%rbp),%rdx
    a39a:	48 89 03             	mov    %rax,(%rbx)
    a39d:	48 89 50 10          	mov    %rdx,0x10(%rax)
    a3a1:	48 83 c4 08          	add    $0x8,%rsp
    a3a5:	31 c0                	xor    %eax,%eax
    a3a7:	5b                   	pop    %rbx
    a3a8:	5d                   	pop    %rbp
    a3a9:	c3                   	retq   
    a3aa:	66 0f 1f 44 00 00    	nopw   0x0(%rax,%rax,1)
    a3b0:	48 8d 05 59 67 20 00 	lea    0x206759(%rip),%rax        # 210b10 <_ZTVN10__cxxabiv120__si_class_type_infoE@CXXABI_1.3>
    a3b7:	48 89 07             	mov    %rax,(%rdi)
    a3ba:	31 c0                	xor    %eax,%eax
    a3bc:	c3                   	retq   
    a3bd:	0f 1f 00             	nopl   (%rax)
    a3c0:	48 8b 06             	mov    (%rsi),%rax
    a3c3:	48 89 07             	mov    %rax,(%rdi)
    a3c6:	31 c0                	xor    %eax,%eax
    a3c8:	c3                   	retq   
    a3c9:	0f 1f 80 00 00 00 00 	nopl   0x0(%rax)

000000000000a3d0 <_ZNSt17_Function_handlerIFvPfPKfESt5_BindIFMN6matrix6sparse9CSRMatrixIifEEFvS0_S2_EPS8_St12_PlaceholderILi1EESC_ILi2EEEEE9_M_invokeERKSt9_Any_dataOS0_OS2_>:
    a3d0:	48 8b 07             	mov    (%rdi),%rax
    a3d3:	48 8b 36             	mov    (%rsi),%rsi
    a3d6:	48 8b 12             	mov    (%rdx),%rdx
    a3d9:	48 8b 78 08          	mov    0x8(%rax),%rdi
    a3dd:	48 03 78 10          	add    0x10(%rax),%rdi
    a3e1:	48 8b 00             	mov    (%rax),%rax
    a3e4:	a8 01                	test   $0x1,%al
    a3e6:	74 08                	je     a3f0 <_ZNSt17_Function_handlerIFvPfPKfESt5_BindIFMN6matrix6sparse9CSRMatrixIifEEFvS0_S2_EPS8_St12_PlaceholderILi1EESC_ILi2EEEEE9_M_invokeERKSt9_Any_dataOS0_OS2_+0x20>
    a3e8:	48 8b 0f             	mov    (%rdi),%rcx
    a3eb:	48 8b 44 01 ff       	mov    -0x1(%rcx,%rax,1),%rax
    a3f0:	ff e0                	jmpq   *%rax
    a3f2:	66 2e 0f 1f 84 00 00 	nopw   %cs:0x0(%rax,%rax,1)
    a3f9:	00 00 00 
    a3fc:	0f 1f 40 00          	nopl   0x0(%rax)

000000000000a400 <_ZNSt17_Function_handlerIFvPdPKdESt5_BindIFMN6matrix6sparse9CSRMatrixIidEEFvS0_S2_EPS8_St12_PlaceholderILi1EESC_ILi2EEEEE9_M_invokeERKSt9_Any_dataOS0_OS2_>:
    a400:	48 8b 07             	mov    (%rdi),%rax
    a403:	48 8b 36             	mov    (%rsi),%rsi
    a406:	48 8b 12             	mov    (%rdx),%rdx
    a409:	48 8b 78 08          	mov    0x8(%rax),%rdi
    a40d:	48 03 78 10          	add    0x10(%rax),%rdi
    a411:	48 8b 00             	mov    (%rax),%rax
    a414:	a8 01                	test   $0x1,%al
    a416:	74 08                	je     a420 <_ZNSt17_Function_handlerIFvPdPKdESt5_BindIFMN6matrix6sparse9CSRMatrixIidEEFvS0_S2_EPS8_St12_PlaceholderILi1EESC_ILi2EEEEE9_M_invokeERKSt9_Any_dataOS0_OS2_+0x20>
    a418:	48 8b 0f             	mov    (%rdi),%rcx
    a41b:	48 8b 44 01 ff       	mov    -0x1(%rcx,%rax,1),%rax
    a420:	ff e0                	jmpq   *%rax
    a422:	66 2e 0f 1f 84 00 00 	nopw   %cs:0x0(%rax,%rax,1)
    a429:	00 00 00 
    a42c:	0f 1f 40 00          	nopl   0x0(%rax)

000000000000a430 <_ZN6matrix6sparse9CSRMatrixIifED0Ev>:
    a430:	53                   	push   %rbx
    a431:	48 8d 05 28 63 20 00 	lea    0x206328(%rip),%rax        # 210760 <_ZTVN6matrix6sparse9CSRMatrixIifEE+0x10>
    a438:	80 7f 18 00          	cmpb   $0x0,0x18(%rdi)
    a43c:	48 89 fb             	mov    %rdi,%rbx
    a43f:	48 89 07             	mov    %rax,(%rdi)
    a442:	8b 77 08             	mov    0x8(%rdi),%esi
    a445:	75 49                	jne    a490 <_ZN6matrix6sparse9CSRMatrixIifED0Ev+0x60>
    a447:	48 c7 47 20 00 00 00 	movq   $0x0,0x20(%rdi)
    a44e:	00 
    a44f:	48 c7 47 28 00 00 00 	movq   $0x0,0x28(%rdi)
    a456:	00 
    a457:	48 c7 47 30 00 00 00 	movq   $0x0,0x30(%rdi)
    a45e:	00 
    a45f:	48 8b 7b 40          	mov    0x40(%rbx),%rdi
    a463:	e8 48 13 00 00       	callq  b7b0 <_ZN4util13internal_freeEPvNS_8PlatformE>
    a468:	48 8b 43 58          	mov    0x58(%rbx),%rax
    a46c:	48 85 c0             	test   %rax,%rax
    a46f:	74 0e                	je     a47f <_ZN6matrix6sparse9CSRMatrixIifED0Ev+0x4f>
    a471:	48 8d 7b 48          	lea    0x48(%rbx),%rdi
    a475:	ba 03 00 00 00       	mov    $0x3,%edx
    a47a:	48 89 fe             	mov    %rdi,%rsi
    a47d:	ff d0                	callq  *%rax
    a47f:	48 89 df             	mov    %rbx,%rdi
    a482:	5b                   	pop    %rbx
    a483:	e9 38 89 ff ff       	jmpq   2dc0 <_ZdlPv@plt>
    a488:	0f 1f 84 00 00 00 00 	nopl   0x0(%rax,%rax,1)
    a48f:	00 
    a490:	48 8b 7f 20          	mov    0x20(%rdi),%rdi
    a494:	e8 17 13 00 00       	callq  b7b0 <_ZN4util13internal_freeEPvNS_8PlatformE>
    a499:	8b 73 08             	mov    0x8(%rbx),%esi
    a49c:	48 8b 7b 28          	mov    0x28(%rbx),%rdi
    a4a0:	e8 0b 13 00 00       	callq  b7b0 <_ZN4util13internal_freeEPvNS_8PlatformE>
    a4a5:	8b 73 08             	mov    0x8(%rbx),%esi
    a4a8:	48 8b 7b 30          	mov    0x30(%rbx),%rdi
    a4ac:	e8 ff 12 00 00       	callq  b7b0 <_ZN4util13internal_freeEPvNS_8PlatformE>
    a4b1:	8b 73 08             	mov    0x8(%rbx),%esi
    a4b4:	eb a9                	jmp    a45f <_ZN6matrix6sparse9CSRMatrixIifED0Ev+0x2f>
    a4b6:	66 2e 0f 1f 84 00 00 	nopw   %cs:0x0(%rax,%rax,1)
    a4bd:	00 00 00 

000000000000a4c0 <_ZN6matrix6sparse9CSRMatrixIidED0Ev>:
    a4c0:	53                   	push   %rbx
    a4c1:	48 8d 05 f0 62 20 00 	lea    0x2062f0(%rip),%rax        # 2107b8 <_ZTVN6matrix6sparse9CSRMatrixIidEE+0x10>
    a4c8:	80 7f 18 00          	cmpb   $0x0,0x18(%rdi)
    a4cc:	48 89 fb             	mov    %rdi,%rbx
    a4cf:	48 89 07             	mov    %rax,(%rdi)
    a4d2:	8b 77 08             	mov    0x8(%rdi),%esi
    a4d5:	75 49                	jne    a520 <_ZN6matrix6sparse9CSRMatrixIidED0Ev+0x60>
    a4d7:	48 c7 47 20 00 00 00 	movq   $0x0,0x20(%rdi)
    a4de:	00 
    a4df:	48 c7 47 28 00 00 00 	movq   $0x0,0x28(%rdi)
    a4e6:	00 
    a4e7:	48 c7 47 30 00 00 00 	movq   $0x0,0x30(%rdi)
    a4ee:	00 
    a4ef:	48 8b 7b 40          	mov    0x40(%rbx),%rdi
    a4f3:	e8 b8 12 00 00       	callq  b7b0 <_ZN4util13internal_freeEPvNS_8PlatformE>
    a4f8:	48 8b 43 58          	mov    0x58(%rbx),%rax
    a4fc:	48 85 c0             	test   %rax,%rax
    a4ff:	74 0e                	je     a50f <_ZN6matrix6sparse9CSRMatrixIidED0Ev+0x4f>
    a501:	48 8d 7b 48          	lea    0x48(%rbx),%rdi
    a505:	ba 03 00 00 00       	mov    $0x3,%edx
    a50a:	48 89 fe             	mov    %rdi,%rsi
    a50d:	ff d0                	callq  *%rax
    a50f:	48 89 df             	mov    %rbx,%rdi
    a512:	5b                   	pop    %rbx
    a513:	e9 a8 88 ff ff       	jmpq   2dc0 <_ZdlPv@plt>
    a518:	0f 1f 84 00 00 00 00 	nopl   0x0(%rax,%rax,1)
    a51f:	00 
    a520:	48 8b 7f 20          	mov    0x20(%rdi),%rdi
    a524:	e8 87 12 00 00       	callq  b7b0 <_ZN4util13internal_freeEPvNS_8PlatformE>
    a529:	8b 73 08             	mov    0x8(%rbx),%esi
    a52c:	48 8b 7b 28          	mov    0x28(%rbx),%rdi
    a530:	e8 7b 12 00 00       	callq  b7b0 <_ZN4util13internal_freeEPvNS_8PlatformE>
    a535:	8b 73 08             	mov    0x8(%rbx),%esi
    a538:	48 8b 7b 30          	mov    0x30(%rbx),%rdi
    a53c:	e8 6f 12 00 00       	callq  b7b0 <_ZN4util13internal_freeEPvNS_8PlatformE>
    a541:	8b 73 08             	mov    0x8(%rbx),%esi
    a544:	eb a9                	jmp    a4ef <_ZN6matrix6sparse9CSRMatrixIidED0Ev+0x2f>
    a546:	66 2e 0f 1f 84 00 00 	nopw   %cs:0x0(%rax,%rax,1)
    a54d:	00 00 00 

000000000000a550 <_ZN6matrix6sparse9CSRMatrixIifEC1EPiS3_PfiiN4util8PlatformE>:
    a550:	48 8d 05 09 62 20 00 	lea    0x206209(%rip),%rax        # 210760 <_ZTVN6matrix6sparse9CSRMatrixIifEE+0x10>
    a557:	53                   	push   %rbx
    a558:	48 89 fb             	mov    %rdi,%rbx
    a55b:	48 89 07             	mov    %rax,(%rdi)
    a55e:	8b 44 24 10          	mov    0x10(%rsp),%eax
    a562:	44 89 47 0c          	mov    %r8d,0xc(%rdi)
    a566:	4d 63 c0             	movslq %r8d,%r8
    a569:	89 47 08             	mov    %eax,0x8(%rdi)
    a56c:	44 89 4f 10          	mov    %r9d,0x10(%rdi)
    a570:	c6 47 18 00          	movb   $0x0,0x18(%rdi)
    a574:	48 c7 47 58 00 00 00 	movq   $0x0,0x58(%rdi)
    a57b:	00 
    a57c:	48 89 77 20          	mov    %rsi,0x20(%rdi)
    a580:	48 89 57 28          	mov    %rdx,0x28(%rdi)
    a584:	48 89 4f 30          	mov    %rcx,0x30(%rdi)
    a588:	42 8b 04 86          	mov    (%rsi,%r8,4),%eax
    a58c:	c6 47 3a 00          	movb   $0x0,0x3a(%rdi)
    a590:	89 47 14             	mov    %eax,0x14(%rdi)
    a593:	c6 47 39 00          	movb   $0x0,0x39(%rdi)
    a597:	c6 47 38 00          	movb   $0x0,0x38(%rdi)
    a59b:	e8 e0 89 ff ff       	callq  2f80 <omp_get_max_threads@plt>
    a5a0:	48 c7 43 40 00 00 00 	movq   $0x0,0x40(%rbx)
    a5a7:	00 
    a5a8:	89 43 3c             	mov    %eax,0x3c(%rbx)
    a5ab:	5b                   	pop    %rbx
    a5ac:	c3                   	retq   
    a5ad:	0f 1f 00             	nopl   (%rax)

000000000000a5b0 <_ZNK6matrix6sparse9CSRMatrixIifE6rowptrEv>:
    a5b0:	48 8b 47 20          	mov    0x20(%rdi),%rax
    a5b4:	c3                   	retq   
    a5b5:	66 2e 0f 1f 84 00 00 	nopw   %cs:0x0(%rax,%rax,1)
    a5bc:	00 00 00 
    a5bf:	90                   	nop

000000000000a5c0 <_ZNK6matrix6sparse9CSRMatrixIifE6colindEv>:
    a5c0:	48 8b 47 28          	mov    0x28(%rdi),%rax
    a5c4:	c3                   	retq   
    a5c5:	66 2e 0f 1f 84 00 00 	nopw   %cs:0x0(%rax,%rax,1)
    a5cc:	00 00 00 
    a5cf:	90                   	nop

000000000000a5d0 <_ZNK6matrix6sparse9CSRMatrixIifE6valuesEv>:
    a5d0:	48 8b 47 30          	mov    0x30(%rdi),%rax
    a5d4:	c3                   	retq   
    a5d5:	66 2e 0f 1f 84 00 00 	nopw   %cs:0x0(%rax,%rax,1)
    a5dc:	00 00 00 
    a5df:	90                   	nop

000000000000a5e0 <_ZN6matrix6sparse9CSRMatrixIifE16partition_by_nnzEi>:
    a5e0:	55                   	push   %rbp
    a5e1:	89 f5                	mov    %esi,%ebp
    a5e3:	53                   	push   %rbx
    a5e4:	48 89 fb             	mov    %rdi,%rbx
    a5e7:	48 83 ec 08          	sub    $0x8,%rsp
    a5eb:	48 8b 77 40          	mov    0x40(%rdi),%rsi
    a5ef:	48 85 f6             	test   %rsi,%rsi
    a5f2:	0f 84 18 01 00 00    	je     a710 <_ZN6matrix6sparse9CSRMatrixIifE16partition_by_nnzEi+0x130>
    a5f8:	8b 4b 3c             	mov    0x3c(%rbx),%ecx
    a5fb:	83 f9 01             	cmp    $0x1,%ecx
    a5fe:	0f 84 ec 00 00 00    	je     a6f0 <_ZN6matrix6sparse9CSRMatrixIifE16partition_by_nnzEi+0x110>
    a604:	8b 43 14             	mov    0x14(%rbx),%eax
    a607:	c7 06 00 00 00 00    	movl   $0x0,(%rsi)
    a60d:	44 8b 53 0c          	mov    0xc(%rbx),%r10d
    a611:	99                   	cltd   
    a612:	f7 f9                	idiv   %ecx
    a614:	45 85 d2             	test   %r10d,%r10d
    a617:	0f 8e 13 01 00 00    	jle    a730 <_ZN6matrix6sparse9CSRMatrixIifE16partition_by_nnzEi+0x150>
    a61d:	be 04 00 00 00       	mov    $0x4,%esi
    a622:	45 31 c0             	xor    %r8d,%r8d
    a625:	45 31 c9             	xor    %r9d,%r9d
    a628:	31 c9                	xor    %ecx,%ecx
    a62a:	eb 23                	jmp    a64f <_ZN6matrix6sparse9CSRMatrixIifE16partition_by_nnzEi+0x6f>
    a62c:	0f 1f 40 00          	nopl   0x0(%rax)
    a630:	48 8b 4b 40          	mov    0x40(%rbx),%rcx
    a634:	4c 63 cf             	movslq %edi,%r9
    a637:	46 89 04 89          	mov    %r8d,(%rcx,%r9,4)
    a63b:	44 8b 53 0c          	mov    0xc(%rbx),%r10d
    a63f:	41 89 f9             	mov    %edi,%r9d
    a642:	31 c9                	xor    %ecx,%ecx
    a644:	89 d7                	mov    %edx,%edi
    a646:	48 83 c6 04          	add    $0x4,%rsi
    a64a:	45 39 c2             	cmp    %r8d,%r10d
    a64d:	7e 2f                	jle    a67e <_ZN6matrix6sparse9CSRMatrixIifE16partition_by_nnzEi+0x9e>
    a64f:	48 8b 7b 20          	mov    0x20(%rbx),%rdi
    a653:	41 83 c0 01          	add    $0x1,%r8d
    a657:	03 0c 37             	add    (%rdi,%rsi,1),%ecx
    a65a:	2b 4c 37 fc          	sub    -0x4(%rdi,%rsi,1),%ecx
    a65e:	41 8d 79 01          	lea    0x1(%r9),%edi
    a662:	39 c8                	cmp    %ecx,%eax
    a664:	7f e0                	jg     a646 <_ZN6matrix6sparse9CSRMatrixIifE16partition_by_nnzEi+0x66>
    a666:	41 8d 51 02          	lea    0x2(%r9),%edx
    a66a:	39 fd                	cmp    %edi,%ebp
    a66c:	7d c2                	jge    a630 <_ZN6matrix6sparse9CSRMatrixIifE16partition_by_nnzEi+0x50>
    a66e:	41 89 f9             	mov    %edi,%r9d
    a671:	31 c9                	xor    %ecx,%ecx
    a673:	89 d7                	mov    %edx,%edi
    a675:	48 83 c6 04          	add    $0x4,%rsi
    a679:	45 39 c2             	cmp    %r8d,%r10d
    a67c:	7f d1                	jg     a64f <_ZN6matrix6sparse9CSRMatrixIifE16partition_by_nnzEi+0x6f>
    a67e:	39 c8                	cmp    %ecx,%eax
    a680:	7e 16                	jle    a698 <_ZN6matrix6sparse9CSRMatrixIifE16partition_by_nnzEi+0xb8>
    a682:	44 39 cd             	cmp    %r9d,%ebp
    a685:	7c 11                	jl     a698 <_ZN6matrix6sparse9CSRMatrixIifE16partition_by_nnzEi+0xb8>
    a687:	48 8b 43 40          	mov    0x40(%rbx),%rax
    a68b:	48 63 d7             	movslq %edi,%rdx
    a68e:	41 89 f9             	mov    %edi,%r9d
    a691:	83 c7 01             	add    $0x1,%edi
    a694:	44 89 14 90          	mov    %r10d,(%rax,%rdx,4)
    a698:	48 63 43 3c          	movslq 0x3c(%rbx),%rax
    a69c:	44 39 c8             	cmp    %r9d,%eax
    a69f:	7c 3f                	jl     a6e0 <_ZN6matrix6sparse9CSRMatrixIifE16partition_by_nnzEi+0x100>
    a6a1:	39 fd                	cmp    %edi,%ebp
    a6a3:	7c 2e                	jl     a6d3 <_ZN6matrix6sparse9CSRMatrixIifE16partition_by_nnzEi+0xf3>
    a6a5:	48 63 d7             	movslq %edi,%rdx
    a6a8:	29 fd                	sub    %edi,%ebp
    a6aa:	48 8d 74 2a 01       	lea    0x1(%rdx,%rbp,1),%rsi
    a6af:	48 8d 04 95 00 00 00 	lea    0x0(,%rdx,4),%rax
    a6b6:	00 
    a6b7:	48 c1 e6 02          	shl    $0x2,%rsi
    a6bb:	0f 1f 44 00 00       	nopl   0x0(%rax,%rax,1)
    a6c0:	8b 4b 0c             	mov    0xc(%rbx),%ecx
    a6c3:	48 8b 53 40          	mov    0x40(%rbx),%rdx
    a6c7:	89 0c 02             	mov    %ecx,(%rdx,%rax,1)
    a6ca:	48 83 c0 04          	add    $0x4,%rax
    a6ce:	48 39 c6             	cmp    %rax,%rsi
    a6d1:	75 ed                	jne    a6c0 <_ZN6matrix6sparse9CSRMatrixIifE16partition_by_nnzEi+0xe0>
    a6d3:	c6 43 39 01          	movb   $0x1,0x39(%rbx)
    a6d7:	48 83 c4 08          	add    $0x8,%rsp
    a6db:	5b                   	pop    %rbx
    a6dc:	5d                   	pop    %rbp
    a6dd:	c3                   	retq   
    a6de:	66 90                	xchg   %ax,%ax
    a6e0:	8b 4b 0c             	mov    0xc(%rbx),%ecx
    a6e3:	48 8b 53 40          	mov    0x40(%rbx),%rdx
    a6e7:	89 0c 82             	mov    %ecx,(%rdx,%rax,4)
    a6ea:	eb b5                	jmp    a6a1 <_ZN6matrix6sparse9CSRMatrixIifE16partition_by_nnzEi+0xc1>
    a6ec:	0f 1f 40 00          	nopl   0x0(%rax)
    a6f0:	c7 06 00 00 00 00    	movl   $0x0,(%rsi)
    a6f6:	48 8b 43 40          	mov    0x40(%rbx),%rax
    a6fa:	8b 53 0c             	mov    0xc(%rbx),%edx
    a6fd:	89 50 04             	mov    %edx,0x4(%rax)
    a700:	c6 43 39 01          	movb   $0x1,0x39(%rbx)
    a704:	48 83 c4 08          	add    $0x8,%rsp
    a708:	5b                   	pop    %rbx
    a709:	5d                   	pop    %rbp
    a70a:	c3                   	retq   
    a70b:	0f 1f 44 00 00       	nopl   0x0(%rax,%rax,1)
    a710:	8b 77 08             	mov    0x8(%rdi),%esi
    a713:	8d 7d 01             	lea    0x1(%rbp),%edi
    a716:	48 63 ff             	movslq %edi,%rdi
    a719:	48 c1 e7 02          	shl    $0x2,%rdi
    a71d:	e8 ae 10 00 00       	callq  b7d0 <_ZN4util14internal_allocEmNS_8PlatformE>
    a722:	48 89 c6             	mov    %rax,%rsi
    a725:	48 89 43 40          	mov    %rax,0x40(%rbx)
    a729:	e9 ca fe ff ff       	jmpq   a5f8 <_ZN6matrix6sparse9CSRMatrixIifE16partition_by_nnzEi+0x18>
    a72e:	66 90                	xchg   %ax,%ax
    a730:	bf 01 00 00 00       	mov    $0x1,%edi
    a735:	45 31 c9             	xor    %r9d,%r9d
    a738:	31 c9                	xor    %ecx,%ecx
    a73a:	e9 3f ff ff ff       	jmpq   a67e <_ZN6matrix6sparse9CSRMatrixIifE16partition_by_nnzEi+0x9e>
    a73f:	90                   	nop

000000000000a740 <_ZN6matrix6sparse9CSRMatrixIifE4tuneEN4util6KernelENS3_6TuningE>:
    a740:	53                   	push   %rbx
    a741:	48 89 fb             	mov    %rdi,%rbx
    a744:	48 83 ec 30          	sub    $0x30,%rsp
    a748:	64 48 8b 04 25 28 00 	mov    %fs:0x28,%rax
    a74f:	00 00 
    a751:	48 89 44 24 28       	mov    %rax,0x28(%rsp)
    a756:	31 c0                	xor    %eax,%eax
    a758:	85 d2                	test   %edx,%edx
    a75a:	0f 84 a8 00 00 00    	je     a808 <_ZN6matrix6sparse9CSRMatrixIifE4tuneEN4util6KernelENS3_6TuningE+0xc8>
    a760:	8b 77 3c             	mov    0x3c(%rdi),%esi
    a763:	e8 78 fe ff ff       	callq  a5e0 <_ZN6matrix6sparse9CSRMatrixIifE16partition_by_nnzEi>
    a768:	bf 18 00 00 00       	mov    $0x18,%edi
    a76d:	48 c7 44 24 10 00 00 	movq   $0x0,0x10(%rsp)
    a774:	00 00 
    a776:	e8 65 86 ff ff       	callq  2de0 <_Znwm@plt>
    a77b:	48 8d 0d 7e ea ff ff 	lea    -0x1582(%rip),%rcx        # 9200 <_ZN6matrix6sparse9CSRMatrixIifE16cpu_mv_split_nnzEPfPKf>
    a782:	48 89 04 24          	mov    %rax,(%rsp)
    a786:	48 8b 53 60          	mov    0x60(%rbx),%rdx
    a78a:	c5 f9 6f 04 24       	vmovdqa (%rsp),%xmm0
    a78f:	c5 fa 6f 4b 48       	vmovdqu 0x48(%rbx),%xmm1
    a794:	48 89 08             	mov    %rcx,(%rax)
    a797:	48 8d 0d 32 fb ff ff 	lea    -0x4ce(%rip),%rcx        # a2d0 <_ZNSt14_Function_base13_Base_managerISt5_BindIFMN6matrix6sparse9CSRMatrixIifEEFvPfPKfEPS5_St12_PlaceholderILi1EESC_ILi2EEEEE10_M_managerERSt9_Any_dataRKSI_St18_Manager_operation>
    a79e:	48 c7 40 08 00 00 00 	movq   $0x0,0x8(%rax)
    a7a5:	00 
    a7a6:	48 89 58 10          	mov    %rbx,0x10(%rax)
    a7aa:	48 8b 43 58          	mov    0x58(%rbx),%rax
    a7ae:	48 89 4b 58          	mov    %rcx,0x58(%rbx)
    a7b2:	48 8d 0d 17 fc ff ff 	lea    -0x3e9(%rip),%rcx        # a3d0 <_ZNSt17_Function_handlerIFvPfPKfESt5_BindIFMN6matrix6sparse9CSRMatrixIifEEFvS0_S2_EPS8_St12_PlaceholderILi1EESC_ILi2EEEEE9_M_invokeERKSt9_Any_dataOS0_OS2_>
    a7b9:	c5 f8 29 0c 24       	vmovaps %xmm1,(%rsp)
    a7be:	c5 f8 11 43 48       	vmovups %xmm0,0x48(%rbx)
    a7c3:	48 89 44 24 10       	mov    %rax,0x10(%rsp)
    a7c8:	48 89 54 24 18       	mov    %rdx,0x18(%rsp)
    a7cd:	48 89 4b 60          	mov    %rcx,0x60(%rbx)
    a7d1:	48 85 c0             	test   %rax,%rax
    a7d4:	74 0d                	je     a7e3 <_ZN6matrix6sparse9CSRMatrixIifE4tuneEN4util6KernelENS3_6TuningE+0xa3>
    a7d6:	48 89 e7             	mov    %rsp,%rdi
    a7d9:	ba 03 00 00 00       	mov    $0x3,%edx
    a7de:	48 89 fe             	mov    %rdi,%rsi
    a7e1:	ff d0                	callq  *%rax
    a7e3:	b8 01 00 00 00       	mov    $0x1,%eax
    a7e8:	48 8b 74 24 28       	mov    0x28(%rsp),%rsi
    a7ed:	64 48 33 34 25 28 00 	xor    %fs:0x28,%rsi
    a7f4:	00 00 
    a7f6:	0f 85 8e 00 00 00    	jne    a88a <_ZN6matrix6sparse9CSRMatrixIifE4tuneEN4util6KernelENS3_6TuningE+0x14a>
    a7fc:	48 83 c4 30          	add    $0x30,%rsp
    a800:	5b                   	pop    %rbx
    a801:	c3                   	retq   
    a802:	66 0f 1f 44 00 00    	nopw   0x0(%rax,%rax,1)
    a808:	48 c7 44 24 10 00 00 	movq   $0x0,0x10(%rsp)
    a80f:	00 00 
    a811:	bf 18 00 00 00       	mov    $0x18,%edi
    a816:	e8 c5 85 ff ff       	callq  2de0 <_Znwm@plt>
    a81b:	48 8d 0d 7e e9 ff ff 	lea    -0x1682(%rip),%rcx        # 91a0 <_ZN6matrix6sparse9CSRMatrixIifE14cpu_mv_vanillaEPfPKf>
    a822:	48 89 04 24          	mov    %rax,(%rsp)
    a826:	48 8b 53 60          	mov    0x60(%rbx),%rdx
    a82a:	48 8d 35 9f fa ff ff 	lea    -0x561(%rip),%rsi        # a2d0 <_ZNSt14_Function_base13_Base_managerISt5_BindIFMN6matrix6sparse9CSRMatrixIifEEFvPfPKfEPS5_St12_PlaceholderILi1EESC_ILi2EEEEE10_M_managerERSt9_Any_dataRKSI_St18_Manager_operation>
    a831:	c5 f9 6f 04 24       	vmovdqa (%rsp),%xmm0
    a836:	c5 fa 6f 4b 48       	vmovdqu 0x48(%rbx),%xmm1
    a83b:	48 89 08             	mov    %rcx,(%rax)
    a83e:	48 8d 0d 8b fb ff ff 	lea    -0x475(%rip),%rcx        # a3d0 <_ZNSt17_Function_handlerIFvPfPKfESt5_BindIFMN6matrix6sparse9CSRMatrixIifEEFvS0_S2_EPS8_St12_PlaceholderILi1EESC_ILi2EEEEE9_M_invokeERKSt9_Any_dataOS0_OS2_>
    a845:	48 c7 40 08 00 00 00 	movq   $0x0,0x8(%rax)
    a84c:	00 
    a84d:	48 89 58 10          	mov    %rbx,0x10(%rax)
    a851:	48 8b 43 58          	mov    0x58(%rbx),%rax
    a855:	c5 f8 29 0c 24       	vmovaps %xmm1,(%rsp)
    a85a:	c5 f8 11 43 48       	vmovups %xmm0,0x48(%rbx)
    a85f:	48 89 44 24 10       	mov    %rax,0x10(%rsp)
    a864:	48 89 73 58          	mov    %rsi,0x58(%rbx)
    a868:	48 89 54 24 18       	mov    %rdx,0x18(%rsp)
    a86d:	48 89 4b 60          	mov    %rcx,0x60(%rbx)
    a871:	48 85 c0             	test   %rax,%rax
    a874:	74 0d                	je     a883 <_ZN6matrix6sparse9CSRMatrixIifE4tuneEN4util6KernelENS3_6TuningE+0x143>
    a876:	48 89 e7             	mov    %rsp,%rdi
    a879:	ba 03 00 00 00       	mov    $0x3,%edx
    a87e:	48 89 fe             	mov    %rdi,%rsi
    a881:	ff d0                	callq  *%rax
    a883:	31 c0                	xor    %eax,%eax
    a885:	e9 5e ff ff ff       	jmpq   a7e8 <_ZN6matrix6sparse9CSRMatrixIifE4tuneEN4util6KernelENS3_6TuningE+0xa8>
    a88a:	e8 71 85 ff ff       	callq  2e00 <__stack_chk_fail@plt>
    a88f:	48 89 c3             	mov    %rax,%rbx
    a892:	48 8b 44 24 10       	mov    0x10(%rsp),%rax
    a897:	48 85 c0             	test   %rax,%rax
    a89a:	74 37                	je     a8d3 <_ZN6matrix6sparse9CSRMatrixIifE4tuneEN4util6KernelENS3_6TuningE+0x193>
    a89c:	48 89 e7             	mov    %rsp,%rdi
    a89f:	ba 03 00 00 00       	mov    $0x3,%edx
    a8a4:	48 89 fe             	mov    %rdi,%rsi
    a8a7:	c5 f8 77             	vzeroupper 
    a8aa:	ff d0                	callq  *%rax
    a8ac:	48 89 df             	mov    %rbx,%rdi
    a8af:	e8 3c 87 ff ff       	callq  2ff0 <_Unwind_Resume@plt>
    a8b4:	48 89 c3             	mov    %rax,%rbx
    a8b7:	48 8b 44 24 10       	mov    0x10(%rsp),%rax
    a8bc:	48 85 c0             	test   %rax,%rax
    a8bf:	74 12                	je     a8d3 <_ZN6matrix6sparse9CSRMatrixIifE4tuneEN4util6KernelENS3_6TuningE+0x193>
    a8c1:	48 89 e7             	mov    %rsp,%rdi
    a8c4:	ba 03 00 00 00       	mov    $0x3,%edx
    a8c9:	48 89 fe             	mov    %rdi,%rsi
    a8cc:	c5 f8 77             	vzeroupper 
    a8cf:	ff d0                	callq  *%rax
    a8d1:	eb d9                	jmp    a8ac <_ZN6matrix6sparse9CSRMatrixIifE4tuneEN4util6KernelENS3_6TuningE+0x16c>
    a8d3:	c5 f8 77             	vzeroupper 
    a8d6:	eb d4                	jmp    a8ac <_ZN6matrix6sparse9CSRMatrixIifE4tuneEN4util6KernelENS3_6TuningE+0x16c>
    a8d8:	0f 1f 84 00 00 00 00 	nopl   0x0(%rax,%rax,1)
    a8df:	00 

000000000000a8e0 <_ZN6matrix6sparse9CSRMatrixIidEC1EPiS3_PdiiN4util8PlatformE>:
    a8e0:	48 8d 05 d1 5e 20 00 	lea    0x205ed1(%rip),%rax        # 2107b8 <_ZTVN6matrix6sparse9CSRMatrixIidEE+0x10>
    a8e7:	53                   	push   %rbx
    a8e8:	48 89 fb             	mov    %rdi,%rbx
    a8eb:	48 89 07             	mov    %rax,(%rdi)
    a8ee:	8b 44 24 10          	mov    0x10(%rsp),%eax
    a8f2:	44 89 47 0c          	mov    %r8d,0xc(%rdi)
    a8f6:	4d 63 c0             	movslq %r8d,%r8
    a8f9:	89 47 08             	mov    %eax,0x8(%rdi)
    a8fc:	44 89 4f 10          	mov    %r9d,0x10(%rdi)
    a900:	c6 47 18 00          	movb   $0x0,0x18(%rdi)
    a904:	48 c7 47 58 00 00 00 	movq   $0x0,0x58(%rdi)
    a90b:	00 
    a90c:	48 89 77 20          	mov    %rsi,0x20(%rdi)
    a910:	48 89 57 28          	mov    %rdx,0x28(%rdi)
    a914:	48 89 4f 30          	mov    %rcx,0x30(%rdi)
    a918:	42 8b 04 86          	mov    (%rsi,%r8,4),%eax
    a91c:	c6 47 3a 00          	movb   $0x0,0x3a(%rdi)
    a920:	89 47 14             	mov    %eax,0x14(%rdi)
    a923:	c6 47 39 00          	movb   $0x0,0x39(%rdi)
    a927:	c6 47 38 00          	movb   $0x0,0x38(%rdi)
    a92b:	e8 50 86 ff ff       	callq  2f80 <omp_get_max_threads@plt>
    a930:	48 c7 43 40 00 00 00 	movq   $0x0,0x40(%rbx)
    a937:	00 
    a938:	89 43 3c             	mov    %eax,0x3c(%rbx)
    a93b:	5b                   	pop    %rbx
    a93c:	c3                   	retq   
    a93d:	0f 1f 00             	nopl   (%rax)

000000000000a940 <_ZNK6matrix6sparse9CSRMatrixIidE6rowptrEv>:
    a940:	48 8b 47 20          	mov    0x20(%rdi),%rax
    a944:	c3                   	retq   
    a945:	66 2e 0f 1f 84 00 00 	nopw   %cs:0x0(%rax,%rax,1)
    a94c:	00 00 00 
    a94f:	90                   	nop

000000000000a950 <_ZNK6matrix6sparse9CSRMatrixIidE6colindEv>:
    a950:	48 8b 47 28          	mov    0x28(%rdi),%rax
    a954:	c3                   	retq   
    a955:	66 2e 0f 1f 84 00 00 	nopw   %cs:0x0(%rax,%rax,1)
    a95c:	00 00 00 
    a95f:	90                   	nop

000000000000a960 <_ZNK6matrix6sparse9CSRMatrixIidE6valuesEv>:
    a960:	48 8b 47 30          	mov    0x30(%rdi),%rax
    a964:	c3                   	retq   
    a965:	66 2e 0f 1f 84 00 00 	nopw   %cs:0x0(%rax,%rax,1)
    a96c:	00 00 00 
    a96f:	90                   	nop

000000000000a970 <_ZN6matrix6sparse9CSRMatrixIidE16partition_by_nnzEi>:
    a970:	55                   	push   %rbp
    a971:	89 f5                	mov    %esi,%ebp
    a973:	53                   	push   %rbx
    a974:	48 89 fb             	mov    %rdi,%rbx
    a977:	48 83 ec 08          	sub    $0x8,%rsp
    a97b:	48 8b 77 40          	mov    0x40(%rdi),%rsi
    a97f:	48 85 f6             	test   %rsi,%rsi
    a982:	0f 84 18 01 00 00    	je     aaa0 <_ZN6matrix6sparse9CSRMatrixIidE16partition_by_nnzEi+0x130>
    a988:	8b 4b 3c             	mov    0x3c(%rbx),%ecx
    a98b:	83 f9 01             	cmp    $0x1,%ecx
    a98e:	0f 84 ec 00 00 00    	je     aa80 <_ZN6matrix6sparse9CSRMatrixIidE16partition_by_nnzEi+0x110>
    a994:	8b 43 14             	mov    0x14(%rbx),%eax
    a997:	c7 06 00 00 00 00    	movl   $0x0,(%rsi)
    a99d:	44 8b 53 0c          	mov    0xc(%rbx),%r10d
    a9a1:	99                   	cltd   
    a9a2:	f7 f9                	idiv   %ecx
    a9a4:	45 85 d2             	test   %r10d,%r10d
    a9a7:	0f 8e 13 01 00 00    	jle    aac0 <_ZN6matrix6sparse9CSRMatrixIidE16partition_by_nnzEi+0x150>
    a9ad:	be 04 00 00 00       	mov    $0x4,%esi
    a9b2:	45 31 c0             	xor    %r8d,%r8d
    a9b5:	45 31 c9             	xor    %r9d,%r9d
    a9b8:	31 c9                	xor    %ecx,%ecx
    a9ba:	eb 23                	jmp    a9df <_ZN6matrix6sparse9CSRMatrixIidE16partition_by_nnzEi+0x6f>
    a9bc:	0f 1f 40 00          	nopl   0x0(%rax)
    a9c0:	48 8b 4b 40          	mov    0x40(%rbx),%rcx
    a9c4:	4c 63 cf             	movslq %edi,%r9
    a9c7:	46 89 04 89          	mov    %r8d,(%rcx,%r9,4)
    a9cb:	44 8b 53 0c          	mov    0xc(%rbx),%r10d
    a9cf:	41 89 f9             	mov    %edi,%r9d
    a9d2:	31 c9                	xor    %ecx,%ecx
    a9d4:	89 d7                	mov    %edx,%edi
    a9d6:	48 83 c6 04          	add    $0x4,%rsi
    a9da:	45 39 c2             	cmp    %r8d,%r10d
    a9dd:	7e 2f                	jle    aa0e <_ZN6matrix6sparse9CSRMatrixIidE16partition_by_nnzEi+0x9e>
    a9df:	48 8b 7b 20          	mov    0x20(%rbx),%rdi
    a9e3:	41 83 c0 01          	add    $0x1,%r8d
    a9e7:	03 0c 37             	add    (%rdi,%rsi,1),%ecx
    a9ea:	2b 4c 37 fc          	sub    -0x4(%rdi,%rsi,1),%ecx
    a9ee:	41 8d 79 01          	lea    0x1(%r9),%edi
    a9f2:	39 c8                	cmp    %ecx,%eax
    a9f4:	7f e0                	jg     a9d6 <_ZN6matrix6sparse9CSRMatrixIidE16partition_by_nnzEi+0x66>
    a9f6:	41 8d 51 02          	lea    0x2(%r9),%edx
    a9fa:	39 fd                	cmp    %edi,%ebp
    a9fc:	7d c2                	jge    a9c0 <_ZN6matrix6sparse9CSRMatrixIidE16partition_by_nnzEi+0x50>
    a9fe:	41 89 f9             	mov    %edi,%r9d
    aa01:	31 c9                	xor    %ecx,%ecx
    aa03:	89 d7                	mov    %edx,%edi
    aa05:	48 83 c6 04          	add    $0x4,%rsi
    aa09:	45 39 c2             	cmp    %r8d,%r10d
    aa0c:	7f d1                	jg     a9df <_ZN6matrix6sparse9CSRMatrixIidE16partition_by_nnzEi+0x6f>
    aa0e:	39 c8                	cmp    %ecx,%eax
    aa10:	7e 16                	jle    aa28 <_ZN6matrix6sparse9CSRMatrixIidE16partition_by_nnzEi+0xb8>
    aa12:	44 39 cd             	cmp    %r9d,%ebp
    aa15:	7c 11                	jl     aa28 <_ZN6matrix6sparse9CSRMatrixIidE16partition_by_nnzEi+0xb8>
    aa17:	48 8b 43 40          	mov    0x40(%rbx),%rax
    aa1b:	48 63 d7             	movslq %edi,%rdx
    aa1e:	41 89 f9             	mov    %edi,%r9d
    aa21:	83 c7 01             	add    $0x1,%edi
    aa24:	44 89 14 90          	mov    %r10d,(%rax,%rdx,4)
    aa28:	48 63 43 3c          	movslq 0x3c(%rbx),%rax
    aa2c:	44 39 c8             	cmp    %r9d,%eax
    aa2f:	7c 3f                	jl     aa70 <_ZN6matrix6sparse9CSRMatrixIidE16partition_by_nnzEi+0x100>
    aa31:	39 fd                	cmp    %edi,%ebp
    aa33:	7c 2e                	jl     aa63 <_ZN6matrix6sparse9CSRMatrixIidE16partition_by_nnzEi+0xf3>
    aa35:	48 63 d7             	movslq %edi,%rdx
    aa38:	29 fd                	sub    %edi,%ebp
    aa3a:	48 8d 74 2a 01       	lea    0x1(%rdx,%rbp,1),%rsi
    aa3f:	48 8d 04 95 00 00 00 	lea    0x0(,%rdx,4),%rax
    aa46:	00 
    aa47:	48 c1 e6 02          	shl    $0x2,%rsi
    aa4b:	0f 1f 44 00 00       	nopl   0x0(%rax,%rax,1)
    aa50:	8b 4b 0c             	mov    0xc(%rbx),%ecx
    aa53:	48 8b 53 40          	mov    0x40(%rbx),%rdx
    aa57:	89 0c 02             	mov    %ecx,(%rdx,%rax,1)
    aa5a:	48 83 c0 04          	add    $0x4,%rax
    aa5e:	48 39 c6             	cmp    %rax,%rsi
    aa61:	75 ed                	jne    aa50 <_ZN6matrix6sparse9CSRMatrixIidE16partition_by_nnzEi+0xe0>
    aa63:	c6 43 39 01          	movb   $0x1,0x39(%rbx)
    aa67:	48 83 c4 08          	add    $0x8,%rsp
    aa6b:	5b                   	pop    %rbx
    aa6c:	5d                   	pop    %rbp
    aa6d:	c3                   	retq   
    aa6e:	66 90                	xchg   %ax,%ax
    aa70:	8b 4b 0c             	mov    0xc(%rbx),%ecx
    aa73:	48 8b 53 40          	mov    0x40(%rbx),%rdx
    aa77:	89 0c 82             	mov    %ecx,(%rdx,%rax,4)
    aa7a:	eb b5                	jmp    aa31 <_ZN6matrix6sparse9CSRMatrixIidE16partition_by_nnzEi+0xc1>
    aa7c:	0f 1f 40 00          	nopl   0x0(%rax)
    aa80:	c7 06 00 00 00 00    	movl   $0x0,(%rsi)
    aa86:	48 8b 43 40          	mov    0x40(%rbx),%rax
    aa8a:	8b 53 0c             	mov    0xc(%rbx),%edx
    aa8d:	89 50 04             	mov    %edx,0x4(%rax)
    aa90:	c6 43 39 01          	movb   $0x1,0x39(%rbx)
    aa94:	48 83 c4 08          	add    $0x8,%rsp
    aa98:	5b                   	pop    %rbx
    aa99:	5d                   	pop    %rbp
    aa9a:	c3                   	retq   
    aa9b:	0f 1f 44 00 00       	nopl   0x0(%rax,%rax,1)
    aaa0:	8b 77 08             	mov    0x8(%rdi),%esi
    aaa3:	8d 7d 01             	lea    0x1(%rbp),%edi
    aaa6:	48 63 ff             	movslq %edi,%rdi
    aaa9:	48 c1 e7 02          	shl    $0x2,%rdi
    aaad:	e8 1e 0d 00 00       	callq  b7d0 <_ZN4util14internal_allocEmNS_8PlatformE>
    aab2:	48 89 c6             	mov    %rax,%rsi
    aab5:	48 89 43 40          	mov    %rax,0x40(%rbx)
    aab9:	e9 ca fe ff ff       	jmpq   a988 <_ZN6matrix6sparse9CSRMatrixIidE16partition_by_nnzEi+0x18>
    aabe:	66 90                	xchg   %ax,%ax
    aac0:	bf 01 00 00 00       	mov    $0x1,%edi
    aac5:	45 31 c9             	xor    %r9d,%r9d
    aac8:	31 c9                	xor    %ecx,%ecx
    aaca:	e9 3f ff ff ff       	jmpq   aa0e <_ZN6matrix6sparse9CSRMatrixIidE16partition_by_nnzEi+0x9e>
    aacf:	90                   	nop

000000000000aad0 <_ZN6matrix6sparse9CSRMatrixIidE4tuneEN4util6KernelENS3_6TuningE>:
    aad0:	53                   	push   %rbx
    aad1:	48 89 fb             	mov    %rdi,%rbx
    aad4:	48 83 ec 30          	sub    $0x30,%rsp
    aad8:	64 48 8b 04 25 28 00 	mov    %fs:0x28,%rax
    aadf:	00 00 
    aae1:	48 89 44 24 28       	mov    %rax,0x28(%rsp)
    aae6:	31 c0                	xor    %eax,%eax
    aae8:	85 d2                	test   %edx,%edx
    aaea:	0f 84 a8 00 00 00    	je     ab98 <_ZN6matrix6sparse9CSRMatrixIidE4tuneEN4util6KernelENS3_6TuningE+0xc8>
    aaf0:	8b 77 3c             	mov    0x3c(%rdi),%esi
    aaf3:	e8 78 fe ff ff       	callq  a970 <_ZN6matrix6sparse9CSRMatrixIidE16partition_by_nnzEi>
    aaf8:	bf 18 00 00 00       	mov    $0x18,%edi
    aafd:	48 c7 44 24 10 00 00 	movq   $0x0,0x10(%rsp)
    ab04:	00 00 
    ab06:	e8 d5 82 ff ff       	callq  2de0 <_Znwm@plt>
    ab0b:	48 8d 0d ae e7 ff ff 	lea    -0x1852(%rip),%rcx        # 92c0 <_ZN6matrix6sparse9CSRMatrixIidE16cpu_mv_split_nnzEPdPKd>
    ab12:	48 89 04 24          	mov    %rax,(%rsp)
    ab16:	48 8b 53 60          	mov    0x60(%rbx),%rdx
    ab1a:	c5 f9 6f 04 24       	vmovdqa (%rsp),%xmm0
    ab1f:	c5 fa 6f 4b 48       	vmovdqu 0x48(%rbx),%xmm1
    ab24:	48 89 08             	mov    %rcx,(%rax)
    ab27:	48 8d 0d 22 f8 ff ff 	lea    -0x7de(%rip),%rcx        # a350 <_ZNSt14_Function_base13_Base_managerISt5_BindIFMN6matrix6sparse9CSRMatrixIidEEFvPdPKdEPS5_St12_PlaceholderILi1EESC_ILi2EEEEE10_M_managerERSt9_Any_dataRKSI_St18_Manager_operation>
    ab2e:	48 c7 40 08 00 00 00 	movq   $0x0,0x8(%rax)
    ab35:	00 
    ab36:	48 89 58 10          	mov    %rbx,0x10(%rax)
    ab3a:	48 8b 43 58          	mov    0x58(%rbx),%rax
    ab3e:	48 89 4b 58          	mov    %rcx,0x58(%rbx)
    ab42:	48 8d 0d b7 f8 ff ff 	lea    -0x749(%rip),%rcx        # a400 <_ZNSt17_Function_handlerIFvPdPKdESt5_BindIFMN6matrix6sparse9CSRMatrixIidEEFvS0_S2_EPS8_St12_PlaceholderILi1EESC_ILi2EEEEE9_M_invokeERKSt9_Any_dataOS0_OS2_>
    ab49:	c5 f8 29 0c 24       	vmovaps %xmm1,(%rsp)
    ab4e:	c5 f8 11 43 48       	vmovups %xmm0,0x48(%rbx)
    ab53:	48 89 44 24 10       	mov    %rax,0x10(%rsp)
    ab58:	48 89 54 24 18       	mov    %rdx,0x18(%rsp)
    ab5d:	48 89 4b 60          	mov    %rcx,0x60(%rbx)
    ab61:	48 85 c0             	test   %rax,%rax
    ab64:	74 0d                	je     ab73 <_ZN6matrix6sparse9CSRMatrixIidE4tuneEN4util6KernelENS3_6TuningE+0xa3>
    ab66:	48 89 e7             	mov    %rsp,%rdi
    ab69:	ba 03 00 00 00       	mov    $0x3,%edx
    ab6e:	48 89 fe             	mov    %rdi,%rsi
    ab71:	ff d0                	callq  *%rax
    ab73:	b8 01 00 00 00       	mov    $0x1,%eax
    ab78:	48 8b 74 24 28       	mov    0x28(%rsp),%rsi
    ab7d:	64 48 33 34 25 28 00 	xor    %fs:0x28,%rsi
    ab84:	00 00 
    ab86:	0f 85 8e 00 00 00    	jne    ac1a <_ZN6matrix6sparse9CSRMatrixIidE4tuneEN4util6KernelENS3_6TuningE+0x14a>
    ab8c:	48 83 c4 30          	add    $0x30,%rsp
    ab90:	5b                   	pop    %rbx
    ab91:	c3                   	retq   
    ab92:	66 0f 1f 44 00 00    	nopw   0x0(%rax,%rax,1)
    ab98:	48 c7 44 24 10 00 00 	movq   $0x0,0x10(%rsp)
    ab9f:	00 00 
    aba1:	bf 18 00 00 00       	mov    $0x18,%edi
    aba6:	e8 35 82 ff ff       	callq  2de0 <_Znwm@plt>
    abab:	48 8d 0d ae e6 ff ff 	lea    -0x1952(%rip),%rcx        # 9260 <_ZN6matrix6sparse9CSRMatrixIidE14cpu_mv_vanillaEPdPKd>
    abb2:	48 89 04 24          	mov    %rax,(%rsp)
    abb6:	48 8b 53 60          	mov    0x60(%rbx),%rdx
    abba:	48 8d 35 8f f7 ff ff 	lea    -0x871(%rip),%rsi        # a350 <_ZNSt14_Function_base13_Base_managerISt5_BindIFMN6matrix6sparse9CSRMatrixIidEEFvPdPKdEPS5_St12_PlaceholderILi1EESC_ILi2EEEEE10_M_managerERSt9_Any_dataRKSI_St18_Manager_operation>
    abc1:	c5 f9 6f 04 24       	vmovdqa (%rsp),%xmm0
    abc6:	c5 fa 6f 4b 48       	vmovdqu 0x48(%rbx),%xmm1
    abcb:	48 89 08             	mov    %rcx,(%rax)
    abce:	48 8d 0d 2b f8 ff ff 	lea    -0x7d5(%rip),%rcx        # a400 <_ZNSt17_Function_handlerIFvPdPKdESt5_BindIFMN6matrix6sparse9CSRMatrixIidEEFvS0_S2_EPS8_St12_PlaceholderILi1EESC_ILi2EEEEE9_M_invokeERKSt9_Any_dataOS0_OS2_>
    abd5:	48 c7 40 08 00 00 00 	movq   $0x0,0x8(%rax)
    abdc:	00 
    abdd:	48 89 58 10          	mov    %rbx,0x10(%rax)
    abe1:	48 8b 43 58          	mov    0x58(%rbx),%rax
    abe5:	c5 f8 29 0c 24       	vmovaps %xmm1,(%rsp)
    abea:	c5 f8 11 43 48       	vmovups %xmm0,0x48(%rbx)
    abef:	48 89 44 24 10       	mov    %rax,0x10(%rsp)
    abf4:	48 89 73 58          	mov    %rsi,0x58(%rbx)
    abf8:	48 89 54 24 18       	mov    %rdx,0x18(%rsp)
    abfd:	48 89 4b 60          	mov    %rcx,0x60(%rbx)
    ac01:	48 85 c0             	test   %rax,%rax
    ac04:	74 0d                	je     ac13 <_ZN6matrix6sparse9CSRMatrixIidE4tuneEN4util6KernelENS3_6TuningE+0x143>
    ac06:	48 89 e7             	mov    %rsp,%rdi
    ac09:	ba 03 00 00 00       	mov    $0x3,%edx
    ac0e:	48 89 fe             	mov    %rdi,%rsi
    ac11:	ff d0                	callq  *%rax
    ac13:	31 c0                	xor    %eax,%eax
    ac15:	e9 5e ff ff ff       	jmpq   ab78 <_ZN6matrix6sparse9CSRMatrixIidE4tuneEN4util6KernelENS3_6TuningE+0xa8>
    ac1a:	e8 e1 81 ff ff       	callq  2e00 <__stack_chk_fail@plt>
    ac1f:	48 89 c3             	mov    %rax,%rbx
    ac22:	48 8b 44 24 10       	mov    0x10(%rsp),%rax
    ac27:	48 85 c0             	test   %rax,%rax
    ac2a:	74 37                	je     ac63 <_ZN6matrix6sparse9CSRMatrixIidE4tuneEN4util6KernelENS3_6TuningE+0x193>
    ac2c:	48 89 e7             	mov    %rsp,%rdi
    ac2f:	ba 03 00 00 00       	mov    $0x3,%edx
    ac34:	48 89 fe             	mov    %rdi,%rsi
    ac37:	c5 f8 77             	vzeroupper 
    ac3a:	ff d0                	callq  *%rax
    ac3c:	48 89 df             	mov    %rbx,%rdi
    ac3f:	e8 ac 83 ff ff       	callq  2ff0 <_Unwind_Resume@plt>
    ac44:	48 89 c3             	mov    %rax,%rbx
    ac47:	48 8b 44 24 10       	mov    0x10(%rsp),%rax
    ac4c:	48 85 c0             	test   %rax,%rax
    ac4f:	74 12                	je     ac63 <_ZN6matrix6sparse9CSRMatrixIidE4tuneEN4util6KernelENS3_6TuningE+0x193>
    ac51:	48 89 e7             	mov    %rsp,%rdi
    ac54:	ba 03 00 00 00       	mov    $0x3,%edx
    ac59:	48 89 fe             	mov    %rdi,%rsi
    ac5c:	c5 f8 77             	vzeroupper 
    ac5f:	ff d0                	callq  *%rax
    ac61:	eb d9                	jmp    ac3c <_ZN6matrix6sparse9CSRMatrixIidE4tuneEN4util6KernelENS3_6TuningE+0x16c>
    ac63:	c5 f8 77             	vzeroupper 
    ac66:	eb d4                	jmp    ac3c <_ZN6matrix6sparse9CSRMatrixIidE4tuneEN4util6KernelENS3_6TuningE+0x16c>
    ac68:	0f 1f 84 00 00 00 00 	nopl   0x0(%rax,%rax,1)
    ac6f:	00 

000000000000ac70 <_ZN6matrix6sparse9CSRMatrixIifEC1ERKNSt7__cxx1112basic_stringIcSt11char_traitsIcESaIcEEEN4util8PlatformE>:
    ac70:	41 57                	push   %r15
    ac72:	41 56                	push   %r14
    ac74:	41 55                	push   %r13
    ac76:	41 54                	push   %r12
    ac78:	55                   	push   %rbp
    ac79:	53                   	push   %rbx
    ac7a:	48 89 fb             	mov    %rdi,%rbx
    ac7d:	48 81 ec 98 02 00 00 	sub    $0x298,%rsp
    ac84:	89 57 08             	mov    %edx,0x8(%rdi)
    ac87:	64 48 8b 04 25 28 00 	mov    %fs:0x28,%rax
    ac8e:	00 00 
    ac90:	48 89 84 24 88 02 00 	mov    %rax,0x288(%rsp)
    ac97:	00 
    ac98:	31 c0                	xor    %eax,%eax
    ac9a:	48 8d 05 bf 5a 20 00 	lea    0x205abf(%rip),%rax        # 210760 <_ZTVN6matrix6sparse9CSRMatrixIifEE+0x10>
    aca1:	c6 47 18 01          	movb   $0x1,0x18(%rdi)
    aca5:	48 89 07             	mov    %rax,(%rdi)
    aca8:	48 8d 44 24 50       	lea    0x50(%rsp),%rax
    acad:	48 c7 47 58 00 00 00 	movq   $0x0,0x58(%rdi)
    acb4:	00 
    acb5:	48 89 c7             	mov    %rax,%rdi
    acb8:	48 89 44 24 08       	mov    %rax,0x8(%rsp)
    acbd:	e8 0e c1 ff ff       	callq  6dd0 <_ZN4util2io3MMFIifEC1ERKNSt7__cxx1112basic_stringIcSt11char_traitsIcESaIcEEE>
    acc2:	8b 44 24 50          	mov    0x50(%rsp),%eax
    acc6:	8b 54 24 54          	mov    0x54(%rsp),%edx
    acca:	80 bc 24 68 02 00 00 	cmpb   $0x0,0x268(%rsp)
    acd1:	00 
    acd2:	89 43 0c             	mov    %eax,0xc(%rbx)
    acd5:	89 53 10             	mov    %edx,0x10(%rbx)
    acd8:	75 0e                	jne    ace8 <_ZN6matrix6sparse9CSRMatrixIifEC1ERKNSt7__cxx1112basic_stringIcSt11char_traitsIcESaIcEEEN4util8PlatformE+0x78>
    acda:	80 bc 24 69 02 00 00 	cmpb   $0x0,0x269(%rsp)
    ace1:	00 
    ace2:	0f 84 da 03 00 00    	je     b0c2 <_ZN6matrix6sparse9CSRMatrixIifEC1ERKNSt7__cxx1112basic_stringIcSt11char_traitsIcESaIcEEEN4util8PlatformE+0x452>
    ace8:	48 8b 94 24 78 02 00 	mov    0x278(%rsp),%rdx
    acef:	00 
    acf0:	48 2b 94 24 70 02 00 	sub    0x270(%rsp),%rdx
    acf7:	00 
    acf8:	48 c1 fa 02          	sar    $0x2,%rdx
    acfc:	69 d2 ab aa aa aa    	imul   $0xaaaaaaab,%edx,%edx
    ad02:	8d 78 01             	lea    0x1(%rax),%edi
    ad05:	89 53 14             	mov    %edx,0x14(%rbx)
    ad08:	8b 73 08             	mov    0x8(%rbx),%esi
    ad0b:	48 63 ff             	movslq %edi,%rdi
    ad0e:	48 c1 e7 02          	shl    $0x2,%rdi
    ad12:	e8 b9 0a 00 00       	callq  b7d0 <_ZN4util14internal_allocEmNS_8PlatformE>
    ad17:	48 63 7b 14          	movslq 0x14(%rbx),%rdi
    ad1b:	8b 73 08             	mov    0x8(%rbx),%esi
    ad1e:	48 89 43 20          	mov    %rax,0x20(%rbx)
    ad22:	48 c1 e7 02          	shl    $0x2,%rdi
    ad26:	e8 a5 0a 00 00       	callq  b7d0 <_ZN4util14internal_allocEmNS_8PlatformE>
    ad2b:	48 63 7b 14          	movslq 0x14(%rbx),%rdi
    ad2f:	8b 73 08             	mov    0x8(%rbx),%esi
    ad32:	48 89 43 28          	mov    %rax,0x28(%rbx)
    ad36:	48 c1 e7 02          	shl    $0x2,%rdi
    ad3a:	e8 91 0a 00 00       	callq  b7d0 <_ZN4util14internal_allocEmNS_8PlatformE>
    ad3f:	48 89 43 30          	mov    %rax,0x30(%rbx)
    ad43:	48 8d 6c 24 30       	lea    0x30(%rsp),%rbp
    ad48:	4c 8d 7c 24 10       	lea    0x10(%rsp),%r15
    ad4d:	c6 43 39 00          	movb   $0x0,0x39(%rbx)
    ad51:	c6 43 38 00          	movb   $0x0,0x38(%rbx)
    ad55:	e8 26 82 ff ff       	callq  2f80 <omp_get_max_threads@plt>
    ad5a:	48 89 ee             	mov    %rbp,%rsi
    ad5d:	31 c9                	xor    %ecx,%ecx
    ad5f:	48 89 5c 24 30       	mov    %rbx,0x30(%rsp)
    ad64:	89 43 3c             	mov    %eax,0x3c(%rbx)
    ad67:	89 c2                	mov    %eax,%edx
    ad69:	48 8d 3d 60 e3 ff ff 	lea    -0x1ca0(%rip),%rdi        # 90d0 <_ZN6matrix6sparse9CSRMatrixIifEC2ERKNSt7__cxx1112basic_stringIcSt11char_traitsIcESaIcEEEN4util8PlatformE._omp_fn.0>
    ad70:	48 c7 43 40 00 00 00 	movq   $0x0,0x40(%rbx)
    ad77:	00 
    ad78:	e8 73 81 ff ff       	callq  2ef0 <GOMP_parallel@plt>
    ad7d:	48 8b 74 24 08       	mov    0x8(%rsp),%rsi
    ad82:	31 d2                	xor    %edx,%edx
    ad84:	4c 89 ff             	mov    %r15,%rdi
    ad87:	e8 84 ac ff ff       	callq  5a10 <_ZN4util2io3MMFIifE8iteratorC1EPS2_m>
    ad8c:	80 bc 24 68 02 00 00 	cmpb   $0x0,0x268(%rsp)
    ad93:	00 
    ad94:	75 0e                	jne    ada4 <_ZN6matrix6sparse9CSRMatrixIifEC1ERKNSt7__cxx1112basic_stringIcSt11char_traitsIcESaIcEEEN4util8PlatformE+0x134>
    ad96:	80 bc 24 69 02 00 00 	cmpb   $0x0,0x269(%rsp)
    ad9d:	00 
    ad9e:	0f 84 07 03 00 00    	je     b0ab <_ZN6matrix6sparse9CSRMatrixIifEC1ERKNSt7__cxx1112basic_stringIcSt11char_traitsIcESaIcEEEN4util8PlatformE+0x43b>
    ada4:	48 8b 94 24 78 02 00 	mov    0x278(%rsp),%rdx
    adab:	00 
    adac:	48 2b 94 24 70 02 00 	sub    0x270(%rsp),%rdx
    adb3:	00 
    adb4:	48 89 ef             	mov    %rbp,%rdi
    adb7:	48 b8 ab aa aa aa aa 	movabs $0xaaaaaaaaaaaaaaab,%rax
    adbe:	aa aa aa 
    adc1:	48 c1 fa 02          	sar    $0x2,%rdx
    adc5:	48 8b 74 24 08       	mov    0x8(%rsp),%rsi
    adca:	48 0f af d0          	imul   %rax,%rdx
    adce:	e8 3d ac ff ff       	callq  5a10 <_ZN4util2io3MMFIifE8iteratorC1EPS2_m>
    add3:	48 8b 43 20          	mov    0x20(%rbx),%rax
    add7:	48 8b 7c 24 10       	mov    0x10(%rsp),%rdi
    addc:	45 31 e4             	xor    %r12d,%r12d
    addf:	4d 8d 77 10          	lea    0x10(%r15),%r14
    ade3:	4c 8b 54 24 30       	mov    0x30(%rsp),%r10
    ade8:	41 bd 01 00 00 00    	mov    $0x1,%r13d
    adee:	44 89 e6             	mov    %r12d,%esi
    adf1:	c7 00 00 00 00 00    	movl   $0x0,(%rax)
    adf7:	31 c0                	xor    %eax,%eax
    adf9:	4c 39 d7             	cmp    %r10,%rdi
    adfc:	0f 84 ed 00 00 00    	je     aeef <_ZN6matrix6sparse9CSRMatrixIifEC1ERKNSt7__cxx1112basic_stringIcSt11char_traitsIcESaIcEEEN4util8PlatformE+0x27f>
    ae02:	66 0f 1f 44 00 00    	nopw   0x0(%rax,%rax,1)
    ae08:	44 0f b6 8f 18 02 00 	movzbl 0x218(%rdi),%r9d
    ae0f:	00 
    ae10:	45 84 c9             	test   %r9b,%r9b
    ae13:	0f 85 ef 01 00 00    	jne    b008 <_ZN6matrix6sparse9CSRMatrixIifEC1ERKNSt7__cxx1112basic_stringIcSt11char_traitsIcESaIcEEEN4util8PlatformE+0x398>
    ae19:	80 bf 19 02 00 00 00 	cmpb   $0x0,0x219(%rdi)
    ae20:	0f 85 0a 02 00 00    	jne    b030 <_ZN6matrix6sparse9CSRMatrixIifEC1ERKNSt7__cxx1112basic_stringIcSt11char_traitsIcESaIcEEEN4util8PlatformE+0x3c0>
    ae26:	80 7c 24 2c 00       	cmpb   $0x0,0x2c(%rsp)
    ae2b:	0f 84 36 02 00 00    	je     b067 <_ZN6matrix6sparse9CSRMatrixIifEC1ERKNSt7__cxx1112basic_stringIcSt11char_traitsIcESaIcEEEN4util8PlatformE+0x3f7>
    ae31:	8b 54 24 20          	mov    0x20(%rsp),%edx
    ae35:	8b 4c 24 24          	mov    0x24(%rsp),%ecx
    ae39:	8d 6a ff             	lea    -0x1(%rdx),%ebp
    ae3c:	8d 51 ff             	lea    -0x1(%rcx),%edx
    ae3f:	4c 89 f1             	mov    %r14,%rcx
    ae42:	c5 fa 10 41 08       	vmovss 0x8(%rcx),%xmm0
    ae47:	39 e8                	cmp    %ebp,%eax
    ae49:	0f 8f d5 02 00 00    	jg     b124 <_ZN6matrix6sparse9CSRMatrixIifEC1ERKNSt7__cxx1112basic_stringIcSt11char_traitsIcESaIcEEEN4util8PlatformE+0x4b4>
    ae4f:	39 6b 0c             	cmp    %ebp,0xc(%rbx)
    ae52:	0f 8e eb 02 00 00    	jle    b143 <_ZN6matrix6sparse9CSRMatrixIifEC1ERKNSt7__cxx1112basic_stringIcSt11char_traitsIcESaIcEEEN4util8PlatformE+0x4d3>
    ae58:	85 d2                	test   %edx,%edx
    ae5a:	0f 88 a5 02 00 00    	js     b105 <_ZN6matrix6sparse9CSRMatrixIifEC1ERKNSt7__cxx1112basic_stringIcSt11char_traitsIcESaIcEEEN4util8PlatformE+0x495>
    ae60:	39 53 10             	cmp    %edx,0x10(%rbx)
    ae63:	0f 8e 9c 02 00 00    	jle    b105 <_ZN6matrix6sparse9CSRMatrixIifEC1ERKNSt7__cxx1112basic_stringIcSt11char_traitsIcESaIcEEEN4util8PlatformE+0x495>
    ae69:	39 73 14             	cmp    %esi,0x14(%rbx)
    ae6c:	0f 8e f0 02 00 00    	jle    b162 <_ZN6matrix6sparse9CSRMatrixIifEC1ERKNSt7__cxx1112basic_stringIcSt11char_traitsIcESaIcEEEN4util8PlatformE+0x4f2>
    ae72:	39 e8                	cmp    %ebp,%eax
    ae74:	74 3d                	je     aeb3 <_ZN6matrix6sparse9CSRMatrixIifEC1ERKNSt7__cxx1112basic_stringIcSt11char_traitsIcESaIcEEEN4util8PlatformE+0x243>
    ae76:	41 89 eb             	mov    %ebp,%r11d
    ae79:	41 29 c3             	sub    %eax,%r11d
    ae7c:	45 85 db             	test   %r11d,%r11d
    ae7f:	7e 32                	jle    aeb3 <_ZN6matrix6sparse9CSRMatrixIifEC1ERKNSt7__cxx1112basic_stringIcSt11char_traitsIcESaIcEEEN4util8PlatformE+0x243>
    ae81:	49 63 cd             	movslq %r13d,%rcx
    ae84:	45 8d 43 ff          	lea    -0x1(%r11),%r8d
    ae88:	4e 8d 44 01 01       	lea    0x1(%rcx,%r8,1),%r8
    ae8d:	48 8d 04 8d 00 00 00 	lea    0x0(,%rcx,4),%rax
    ae94:	00 
    ae95:	49 c1 e0 02          	shl    $0x2,%r8
    ae99:	0f 1f 80 00 00 00 00 	nopl   0x0(%rax)
    aea0:	48 8b 4b 20          	mov    0x20(%rbx),%rcx
    aea4:	89 34 01             	mov    %esi,(%rcx,%rax,1)
    aea7:	48 83 c0 04          	add    $0x4,%rax
    aeab:	49 39 c0             	cmp    %rax,%r8
    aeae:	75 f0                	jne    aea0 <_ZN6matrix6sparse9CSRMatrixIifEC1ERKNSt7__cxx1112basic_stringIcSt11char_traitsIcESaIcEEEN4util8PlatformE+0x230>
    aeb0:	45 01 dd             	add    %r11d,%r13d
    aeb3:	48 8b 43 28          	mov    0x28(%rbx),%rax
    aeb7:	42 89 14 a0          	mov    %edx,(%rax,%r12,4)
    aebb:	48 8b 43 30          	mov    0x30(%rbx),%rax
    aebf:	c4 a1 7a 11 04 a0    	vmovss %xmm0,(%rax,%r12,4)
    aec5:	48 83 44 24 18 01    	addq   $0x1,0x18(%rsp)
    aecb:	45 84 c9             	test   %r9b,%r9b
    aece:	75 0d                	jne    aedd <_ZN6matrix6sparse9CSRMatrixIifEC1ERKNSt7__cxx1112basic_stringIcSt11char_traitsIcESaIcEEEN4util8PlatformE+0x26d>
    aed0:	80 bf 19 02 00 00 00 	cmpb   $0x0,0x219(%rdi)
    aed7:	0f 84 ab 01 00 00    	je     b088 <_ZN6matrix6sparse9CSRMatrixIifEC1ERKNSt7__cxx1112basic_stringIcSt11char_traitsIcESaIcEEEN4util8PlatformE+0x418>
    aedd:	49 83 c4 01          	add    $0x1,%r12
    aee1:	89 e8                	mov    %ebp,%eax
    aee3:	44 89 e6             	mov    %r12d,%esi
    aee6:	4c 39 d7             	cmp    %r10,%rdi
    aee9:	0f 85 19 ff ff ff    	jne    ae08 <_ZN6matrix6sparse9CSRMatrixIifEC1ERKNSt7__cxx1112basic_stringIcSt11char_traitsIcESaIcEEEN4util8PlatformE+0x198>
    aeef:	48 8b 54 24 38       	mov    0x38(%rsp),%rdx
    aef4:	48 39 54 24 18       	cmp    %rdx,0x18(%rsp)
    aef9:	0f 85 09 ff ff ff    	jne    ae08 <_ZN6matrix6sparse9CSRMatrixIifEC1ERKNSt7__cxx1112basic_stringIcSt11char_traitsIcESaIcEEEN4util8PlatformE+0x198>
    aeff:	48 8b 43 20          	mov    0x20(%rbx),%rax
    af03:	49 63 d5             	movslq %r13d,%rdx
    af06:	44 89 24 90          	mov    %r12d,(%rax,%rdx,4)
    af0a:	44 39 6b 0c          	cmp    %r13d,0xc(%rbx)
    af0e:	0f 85 6d 02 00 00    	jne    b181 <_ZN6matrix6sparse9CSRMatrixIifEC1ERKNSt7__cxx1112basic_stringIcSt11char_traitsIcESaIcEEEN4util8PlatformE+0x511>
    af14:	44 39 63 14          	cmp    %r12d,0x14(%rbx)
    af18:	0f 85 be 02 00 00    	jne    b1dc <_ZN6matrix6sparse9CSRMatrixIifEC1ERKNSt7__cxx1112basic_stringIcSt11char_traitsIcESaIcEEEN4util8PlatformE+0x56c>
    af1e:	48 8b 44 24 08       	mov    0x8(%rsp),%rax
    af23:	48 8d b8 88 00 00 00 	lea    0x88(%rax),%rdi
    af2a:	e8 d1 7c ff ff       	callq  2c00 <_ZNKSt12__basic_fileIcE7is_openEv@plt>
    af2f:	84 c0                	test   %al,%al
    af31:	0f 85 94 01 00 00    	jne    b0cb <_ZN6matrix6sparse9CSRMatrixIifEC1ERKNSt7__cxx1112basic_stringIcSt11char_traitsIcESaIcEEEN4util8PlatformE+0x45b>
    af37:	48 8b bc 24 70 02 00 	mov    0x270(%rsp),%rdi
    af3e:	00 
    af3f:	48 85 ff             	test   %rdi,%rdi
    af42:	74 05                	je     af49 <_ZN6matrix6sparse9CSRMatrixIifEC1ERKNSt7__cxx1112basic_stringIcSt11char_traitsIcESaIcEEEN4util8PlatformE+0x2d9>
    af44:	e8 77 7e ff ff       	callq  2dc0 <_ZdlPv@plt>
    af49:	48 8b 5c 24 08       	mov    0x8(%rsp),%rbx
    af4e:	48 8d 05 7b 59 20 00 	lea    0x20597b(%rip),%rax        # 2108d0 <_ZTVSt14basic_ifstreamIcSt11char_traitsIcEE@@GLIBCXX_3.4+0x18>
    af55:	48 89 44 24 60       	mov    %rax,0x60(%rsp)
    af5a:	48 83 c0 28          	add    $0x28,%rax
    af5e:	48 89 84 24 60 01 00 	mov    %rax,0x160(%rsp)
    af65:	00 
    af66:	48 8d 7b 20          	lea    0x20(%rbx),%rdi
    af6a:	48 8d 05 a7 59 20 00 	lea    0x2059a7(%rip),%rax        # 210918 <_ZTVSt13basic_filebufIcSt11char_traitsIcEE@@GLIBCXX_3.4+0x10>
    af71:	48 89 44 24 70       	mov    %rax,0x70(%rsp)
    af76:	e8 75 7c ff ff       	callq  2bf0 <_ZNSt13basic_filebufIcSt11char_traitsIcEE5closeEv@plt>
    af7b:	48 8d bb 88 00 00 00 	lea    0x88(%rbx),%rdi
    af82:	e8 b9 80 ff ff       	callq  3040 <_ZNSt12__basic_fileIcED1Ev@plt>
    af87:	48 8d 05 ba 58 20 00 	lea    0x2058ba(%rip),%rax        # 210848 <_ZTVSt15basic_streambufIcSt11char_traitsIcEE@@GLIBCXX_3.4+0x10>
    af8e:	48 8d 7b 58          	lea    0x58(%rbx),%rdi
    af92:	48 89 44 24 70       	mov    %rax,0x70(%rsp)
    af97:	e8 24 7f ff ff       	callq  2ec0 <_ZNSt6localeD1Ev@plt>
    af9c:	48 8b 05 ed 59 20 00 	mov    0x2059ed(%rip),%rax        # 210990 <_ZTTSt14basic_ifstreamIcSt11char_traitsIcEE@@GLIBCXX_3.4+0x8>
    afa3:	48 8b 15 ee 59 20 00 	mov    0x2059ee(%rip),%rdx        # 210998 <_ZTTSt14basic_ifstreamIcSt11char_traitsIcEE@@GLIBCXX_3.4+0x10>
    afaa:	48 8d bb 10 01 00 00 	lea    0x110(%rbx),%rdi
    afb1:	48 89 44 24 60       	mov    %rax,0x60(%rsp)
    afb6:	48 8b 40 e8          	mov    -0x18(%rax),%rax
    afba:	48 89 54 04 60       	mov    %rdx,0x60(%rsp,%rax,1)
    afbf:	48 8d 05 62 58 20 00 	lea    0x205862(%rip),%rax        # 210828 <_ZTVSt9basic_iosIcSt11char_traitsIcEE@@GLIBCXX_3.4+0x10>
    afc6:	48 89 84 24 60 01 00 	mov    %rax,0x160(%rsp)
    afcd:	00 
    afce:	48 c7 44 24 68 00 00 	movq   $0x0,0x68(%rsp)
    afd5:	00 00 
    afd7:	e8 64 7c ff ff       	callq  2c40 <_ZNSt8ios_baseD2Ev@plt>
    afdc:	48 8b 84 24 88 02 00 	mov    0x288(%rsp),%rax
    afe3:	00 
    afe4:	64 48 33 04 25 28 00 	xor    %fs:0x28,%rax
    afeb:	00 00 
    afed:	0f 85 ad 01 00 00    	jne    b1a0 <_ZN6matrix6sparse9CSRMatrixIifEC1ERKNSt7__cxx1112basic_stringIcSt11char_traitsIcESaIcEEEN4util8PlatformE+0x530>
    aff3:	48 81 c4 98 02 00 00 	add    $0x298,%rsp
    affa:	5b                   	pop    %rbx
    affb:	5d                   	pop    %rbp
    affc:	41 5c                	pop    %r12
    affe:	41 5d                	pop    %r13
    b000:	41 5e                	pop    %r14
    b002:	41 5f                	pop    %r15
    b004:	c3                   	retq   
    b005:	0f 1f 00             	nopl   (%rax)
    b008:	48 8b 54 24 18       	mov    0x18(%rsp),%rdx
    b00d:	48 8d 0c 52          	lea    (%rdx,%rdx,2),%rcx
    b011:	48 8b 97 20 02 00 00 	mov    0x220(%rdi),%rdx
    b018:	48 8d 0c 8a          	lea    (%rdx,%rcx,4),%rcx
    b01c:	8b 11                	mov    (%rcx),%edx
    b01e:	8d 6a ff             	lea    -0x1(%rdx),%ebp
    b021:	8b 51 04             	mov    0x4(%rcx),%edx
    b024:	83 ea 01             	sub    $0x1,%edx
    b027:	e9 16 fe ff ff       	jmpq   ae42 <_ZN6matrix6sparse9CSRMatrixIifEC1ERKNSt7__cxx1112basic_stringIcSt11char_traitsIcESaIcEEEN4util8PlatformE+0x1d2>
    b02c:	0f 1f 40 00          	nopl   0x0(%rax)
    b030:	48 8b 54 24 18       	mov    0x18(%rsp),%rdx
    b035:	48 8d 0c 52          	lea    (%rdx,%rdx,2),%rcx
    b039:	48 8b 97 20 02 00 00 	mov    0x220(%rdi),%rdx
    b040:	48 8d 0c 8a          	lea    (%rdx,%rcx,4),%rcx
    b044:	8b 11                	mov    (%rcx),%edx
    b046:	8d 6a ff             	lea    -0x1(%rdx),%ebp
    b049:	8b 51 04             	mov    0x4(%rcx),%edx
    b04c:	83 ea 01             	sub    $0x1,%edx
    b04f:	80 bf 19 02 00 00 00 	cmpb   $0x0,0x219(%rdi)
    b056:	0f 85 e6 fd ff ff    	jne    ae42 <_ZN6matrix6sparse9CSRMatrixIifEC1ERKNSt7__cxx1112basic_stringIcSt11char_traitsIcESaIcEEEN4util8PlatformE+0x1d2>
    b05c:	80 7c 24 2c 00       	cmpb   $0x0,0x2c(%rsp)
    b061:	0f 85 94 01 00 00    	jne    b1fb <_ZN6matrix6sparse9CSRMatrixIifEC1ERKNSt7__cxx1112basic_stringIcSt11char_traitsIcESaIcEEEN4util8PlatformE+0x58b>
    b067:	48 8d 35 6a 17 00 00 	lea    0x176a(%rip),%rsi        # c7d8 <_IO_stdin_used+0x118>
    b06e:	48 8d 3d ab 5f 20 00 	lea    0x205fab(%rip),%rdi        # 211020 <_ZSt4cout@@GLIBCXX_3.4>
    b075:	e8 56 7d ff ff       	callq  2dd0 <_ZStlsISt11char_traitsIcEERSt13basic_ostreamIcT_ES5_PKc@plt>
    b07a:	bf 01 00 00 00       	mov    $0x1,%edi
    b07f:	e8 dc 7d ff ff       	callq  2e60 <exit@plt>
    b084:	0f 1f 40 00          	nopl   0x0(%rax)
    b088:	49 8d 4f 18          	lea    0x18(%r15),%rcx
    b08c:	49 8d 57 14          	lea    0x14(%r15),%rdx
    b090:	4c 89 f6             	mov    %r14,%rsi
    b093:	e8 68 a7 ff ff       	callq  5800 <_ZN4util2io3MMFIifE7GetNextERiS3_Rf>
    b098:	48 8b 7c 24 10       	mov    0x10(%rsp),%rdi
    b09d:	4c 8b 54 24 30       	mov    0x30(%rsp),%r10
    b0a2:	88 44 24 2c          	mov    %al,0x2c(%rsp)
    b0a6:	e9 32 fe ff ff       	jmpq   aedd <_ZN6matrix6sparse9CSRMatrixIifEC1ERKNSt7__cxx1112basic_stringIcSt11char_traitsIcESaIcEEEN4util8PlatformE+0x26d>
    b0ab:	48 63 54 24 58       	movslq 0x58(%rsp),%rdx
    b0b0:	48 8b 74 24 08       	mov    0x8(%rsp),%rsi
    b0b5:	48 89 ef             	mov    %rbp,%rdi
    b0b8:	e8 53 a9 ff ff       	callq  5a10 <_ZN4util2io3MMFIifE8iteratorC1EPS2_m>
    b0bd:	e9 11 fd ff ff       	jmpq   add3 <_ZN6matrix6sparse9CSRMatrixIifEC1ERKNSt7__cxx1112basic_stringIcSt11char_traitsIcESaIcEEEN4util8PlatformE+0x163>
    b0c2:	8b 54 24 58          	mov    0x58(%rsp),%edx
    b0c6:	e9 37 fc ff ff       	jmpq   ad02 <_ZN6matrix6sparse9CSRMatrixIifEC1ERKNSt7__cxx1112basic_stringIcSt11char_traitsIcESaIcEEEN4util8PlatformE+0x92>
    b0cb:	48 8b 44 24 08       	mov    0x8(%rsp),%rax
    b0d0:	48 8d 78 20          	lea    0x20(%rax),%rdi
    b0d4:	e8 17 7b ff ff       	callq  2bf0 <_ZNSt13basic_filebufIcSt11char_traitsIcEE5closeEv@plt>
    b0d9:	48 85 c0             	test   %rax,%rax
    b0dc:	0f 85 55 fe ff ff    	jne    af37 <_ZN6matrix6sparse9CSRMatrixIifEC1ERKNSt7__cxx1112basic_stringIcSt11char_traitsIcESaIcEEEN4util8PlatformE+0x2c7>
    b0e2:	48 8b 44 24 60       	mov    0x60(%rsp),%rax
    b0e7:	48 8b 74 24 08       	mov    0x8(%rsp),%rsi
    b0ec:	48 8b 40 e8          	mov    -0x18(%rax),%rax
    b0f0:	48 8d 7c 06 10       	lea    0x10(%rsi,%rax,1),%rdi
    b0f5:	8b 77 20             	mov    0x20(%rdi),%esi
    b0f8:	83 ce 04             	or     $0x4,%esi
    b0fb:	e8 b0 7e ff ff       	callq  2fb0 <_ZNSt9basic_iosIcSt11char_traitsIcEE5clearESt12_Ios_Iostate@plt>
    b100:	e9 32 fe ff ff       	jmpq   af37 <_ZN6matrix6sparse9CSRMatrixIifEC1ERKNSt7__cxx1112basic_stringIcSt11char_traitsIcESaIcEEEN4util8PlatformE+0x2c7>
    b105:	48 8d 0d f4 1d 00 00 	lea    0x1df4(%rip),%rcx        # cf00 <_ZZN6matrix6sparse9CSRMatrixIifEC4ERKNSt7__cxx1112basic_stringIcSt11char_traitsIcESaIcEEEN4util8PlatformEE19__PRETTY_FUNCTION__>
    b10c:	ba 52 00 00 00       	mov    $0x52,%edx
    b111:	48 8d 35 9f 1c 00 00 	lea    0x1c9f(%rip),%rsi        # cdb7 <_ZTSSt5_BindIFMN6matrix6sparse9COOMatrixIidEEFvPdPKdEPS3_St12_PlaceholderILi1EESA_ILi2EEEE+0x57>
    b118:	48 8d 3d c4 1c 00 00 	lea    0x1cc4(%rip),%rdi        # cde3 <_ZTSSt5_BindIFMN6matrix6sparse9COOMatrixIidEEFvPdPKdEPS3_St12_PlaceholderILi1EESA_ILi2EEEE+0x83>
    b11f:	e8 dc 7b ff ff       	callq  2d00 <__assert_fail@plt>
    b124:	48 8d 0d d5 1d 00 00 	lea    0x1dd5(%rip),%rcx        # cf00 <_ZZN6matrix6sparse9CSRMatrixIifEC4ERKNSt7__cxx1112basic_stringIcSt11char_traitsIcESaIcEEEN4util8PlatformEE19__PRETTY_FUNCTION__>
    b12b:	ba 50 00 00 00       	mov    $0x50,%edx
    b130:	48 8d 35 80 1c 00 00 	lea    0x1c80(%rip),%rsi        # cdb7 <_ZTSSt5_BindIFMN6matrix6sparse9COOMatrixIidEEFvPdPKdEPS3_St12_PlaceholderILi1EESA_ILi2EEEE+0x57>
    b137:	48 8d 3d 88 1c 00 00 	lea    0x1c88(%rip),%rdi        # cdc6 <_ZTSSt5_BindIFMN6matrix6sparse9COOMatrixIidEEFvPdPKdEPS3_St12_PlaceholderILi1EESA_ILi2EEEE+0x66>
    b13e:	e8 bd 7b ff ff       	callq  2d00 <__assert_fail@plt>
    b143:	48 8d 0d b6 1d 00 00 	lea    0x1db6(%rip),%rcx        # cf00 <_ZZN6matrix6sparse9CSRMatrixIifEC4ERKNSt7__cxx1112basic_stringIcSt11char_traitsIcESaIcEEEN4util8PlatformEE19__PRETTY_FUNCTION__>
    b14a:	ba 51 00 00 00       	mov    $0x51,%edx
    b14f:	48 8d 35 61 1c 00 00 	lea    0x1c61(%rip),%rsi        # cdb7 <_ZTSSt5_BindIFMN6matrix6sparse9COOMatrixIidEEFvPdPKdEPS3_St12_PlaceholderILi1EESA_ILi2EEEE+0x57>
    b156:	48 8d 3d 79 1c 00 00 	lea    0x1c79(%rip),%rdi        # cdd6 <_ZTSSt5_BindIFMN6matrix6sparse9COOMatrixIidEEFvPdPKdEPS3_St12_PlaceholderILi1EESA_ILi2EEEE+0x76>
    b15d:	e8 9e 7b ff ff       	callq  2d00 <__assert_fail@plt>
    b162:	48 8d 0d 97 1d 00 00 	lea    0x1d97(%rip),%rcx        # cf00 <_ZZN6matrix6sparse9CSRMatrixIifEC4ERKNSt7__cxx1112basic_stringIcSt11char_traitsIcESaIcEEEN4util8PlatformEE19__PRETTY_FUNCTION__>
    b169:	ba 53 00 00 00       	mov    $0x53,%edx
    b16e:	48 8d 35 42 1c 00 00 	lea    0x1c42(%rip),%rsi        # cdb7 <_ZTSSt5_BindIFMN6matrix6sparse9COOMatrixIidEEFvPdPKdEPS3_St12_PlaceholderILi1EESA_ILi2EEEE+0x57>
    b175:	48 8d 3d 80 1c 00 00 	lea    0x1c80(%rip),%rdi        # cdfc <_ZTSSt5_BindIFMN6matrix6sparse9COOMatrixIidEEFvPdPKdEPS3_St12_PlaceholderILi1EESA_ILi2EEEE+0x9c>
    b17c:	e8 7f 7b ff ff       	callq  2d00 <__assert_fail@plt>
    b181:	48 8d 0d 78 1d 00 00 	lea    0x1d78(%rip),%rcx        # cf00 <_ZZN6matrix6sparse9CSRMatrixIifEC4ERKNSt7__cxx1112basic_stringIcSt11char_traitsIcESaIcEEEN4util8PlatformEE19__PRETTY_FUNCTION__>
    b188:	ba 64 00 00 00       	mov    $0x64,%edx
    b18d:	48 8d 35 23 1c 00 00 	lea    0x1c23(%rip),%rsi        # cdb7 <_ZTSSt5_BindIFMN6matrix6sparse9COOMatrixIidEEFvPdPKdEPS3_St12_PlaceholderILi1EESA_ILi2EEEE+0x57>
    b194:	48 8d 3d 6e 1c 00 00 	lea    0x1c6e(%rip),%rdi        # ce09 <_ZTSSt5_BindIFMN6matrix6sparse9COOMatrixIidEEFvPdPKdEPS3_St12_PlaceholderILi1EESA_ILi2EEEE+0xa9>
    b19b:	e8 60 7b ff ff       	callq  2d00 <__assert_fail@plt>
    b1a0:	e8 5b 7c ff ff       	callq  2e00 <__stack_chk_fail@plt>
    b1a5:	48 8b 7c 24 08       	mov    0x8(%rsp),%rdi
    b1aa:	48 89 c5             	mov    %rax,%rbp
    b1ad:	c5 f8 77             	vzeroupper 
    b1b0:	e8 1b 98 ff ff       	callq  49d0 <_ZN4util2io3MMFIifED1Ev>
    b1b5:	48 8b 43 58          	mov    0x58(%rbx),%rax
    b1b9:	48 85 c0             	test   %rax,%rax
    b1bc:	74 0e                	je     b1cc <_ZN6matrix6sparse9CSRMatrixIifEC1ERKNSt7__cxx1112basic_stringIcSt11char_traitsIcESaIcEEEN4util8PlatformE+0x55c>
    b1be:	48 8d 7b 48          	lea    0x48(%rbx),%rdi
    b1c2:	ba 03 00 00 00       	mov    $0x3,%edx
    b1c7:	48 89 fe             	mov    %rdi,%rsi
    b1ca:	ff d0                	callq  *%rax
    b1cc:	48 89 ef             	mov    %rbp,%rdi
    b1cf:	e8 1c 7e ff ff       	callq  2ff0 <_Unwind_Resume@plt>
    b1d4:	48 89 c5             	mov    %rax,%rbp
    b1d7:	c5 f8 77             	vzeroupper 
    b1da:	eb d9                	jmp    b1b5 <_ZN6matrix6sparse9CSRMatrixIifEC1ERKNSt7__cxx1112basic_stringIcSt11char_traitsIcESaIcEEEN4util8PlatformE+0x545>
    b1dc:	48 8d 0d 1d 1d 00 00 	lea    0x1d1d(%rip),%rcx        # cf00 <_ZZN6matrix6sparse9CSRMatrixIifEC4ERKNSt7__cxx1112basic_stringIcSt11char_traitsIcESaIcEEEN4util8PlatformEE19__PRETTY_FUNCTION__>
    b1e3:	ba 65 00 00 00       	mov    $0x65,%edx
    b1e8:	48 8d 35 c8 1b 00 00 	lea    0x1bc8(%rip),%rsi        # cdb7 <_ZTSSt5_BindIFMN6matrix6sparse9COOMatrixIidEEFvPdPKdEPS3_St12_PlaceholderILi1EESA_ILi2EEEE+0x57>
    b1ef:	48 8d 3d 23 1c 00 00 	lea    0x1c23(%rip),%rdi        # ce19 <_ZTSSt5_BindIFMN6matrix6sparse9COOMatrixIidEEFvPdPKdEPS3_St12_PlaceholderILi1EESA_ILi2EEEE+0xb9>
    b1f6:	e8 05 7b ff ff       	callq  2d00 <__assert_fail@plt>
    b1fb:	4c 89 f1             	mov    %r14,%rcx
    b1fe:	e9 3f fc ff ff       	jmpq   ae42 <_ZN6matrix6sparse9CSRMatrixIifEC1ERKNSt7__cxx1112basic_stringIcSt11char_traitsIcESaIcEEEN4util8PlatformE+0x1d2>
    b203:	66 2e 0f 1f 84 00 00 	nopw   %cs:0x0(%rax,%rax,1)
    b20a:	00 00 00 
    b20d:	0f 1f 00             	nopl   (%rax)

000000000000b210 <_ZN6matrix6sparse9CSRMatrixIidEC1ERKNSt7__cxx1112basic_stringIcSt11char_traitsIcESaIcEEEN4util8PlatformE>:
    b210:	41 57                	push   %r15
    b212:	41 56                	push   %r14
    b214:	41 55                	push   %r13
    b216:	41 54                	push   %r12
    b218:	55                   	push   %rbp
    b219:	53                   	push   %rbx
    b21a:	48 89 fb             	mov    %rdi,%rbx
    b21d:	48 81 ec b8 02 00 00 	sub    $0x2b8,%rsp
    b224:	89 57 08             	mov    %edx,0x8(%rdi)
    b227:	64 48 8b 04 25 28 00 	mov    %fs:0x28,%rax
    b22e:	00 00 
    b230:	48 89 84 24 a8 02 00 	mov    %rax,0x2a8(%rsp)
    b237:	00 
    b238:	31 c0                	xor    %eax,%eax
    b23a:	48 8d 05 77 55 20 00 	lea    0x205577(%rip),%rax        # 2107b8 <_ZTVN6matrix6sparse9CSRMatrixIidEE+0x10>
    b241:	c6 47 18 01          	movb   $0x1,0x18(%rdi)
    b245:	48 89 07             	mov    %rax,(%rdi)
    b248:	48 8d 44 24 70       	lea    0x70(%rsp),%rax
    b24d:	48 c7 47 58 00 00 00 	movq   $0x0,0x58(%rdi)
    b254:	00 
    b255:	48 89 c7             	mov    %rax,%rdi
    b258:	48 89 44 24 08       	mov    %rax,0x8(%rsp)
    b25d:	e8 6e c6 ff ff       	callq  78d0 <_ZN4util2io3MMFIidEC1ERKNSt7__cxx1112basic_stringIcSt11char_traitsIcESaIcEEE>
    b262:	8b 44 24 70          	mov    0x70(%rsp),%eax
    b266:	8b 54 24 74          	mov    0x74(%rsp),%edx
    b26a:	80 bc 24 88 02 00 00 	cmpb   $0x0,0x288(%rsp)
    b271:	00 
    b272:	89 43 0c             	mov    %eax,0xc(%rbx)
    b275:	89 53 10             	mov    %edx,0x10(%rbx)
    b278:	75 0e                	jne    b288 <_ZN6matrix6sparse9CSRMatrixIidEC1ERKNSt7__cxx1112basic_stringIcSt11char_traitsIcESaIcEEEN4util8PlatformE+0x78>
    b27a:	80 bc 24 89 02 00 00 	cmpb   $0x0,0x289(%rsp)
    b281:	00 
    b282:	0f 84 da 03 00 00    	je     b662 <_ZN6matrix6sparse9CSRMatrixIidEC1ERKNSt7__cxx1112basic_stringIcSt11char_traitsIcESaIcEEEN4util8PlatformE+0x452>
    b288:	48 8b 94 24 98 02 00 	mov    0x298(%rsp),%rdx
    b28f:	00 
    b290:	48 2b 94 24 90 02 00 	sub    0x290(%rsp),%rdx
    b297:	00 
    b298:	48 c1 fa 04          	sar    $0x4,%rdx
    b29c:	8d 78 01             	lea    0x1(%rax),%edi
    b29f:	89 53 14             	mov    %edx,0x14(%rbx)
    b2a2:	8b 73 08             	mov    0x8(%rbx),%esi
    b2a5:	48 63 ff             	movslq %edi,%rdi
    b2a8:	48 c1 e7 02          	shl    $0x2,%rdi
    b2ac:	e8 1f 05 00 00       	callq  b7d0 <_ZN4util14internal_allocEmNS_8PlatformE>
    b2b1:	48 63 7b 14          	movslq 0x14(%rbx),%rdi
    b2b5:	8b 73 08             	mov    0x8(%rbx),%esi
    b2b8:	48 89 43 20          	mov    %rax,0x20(%rbx)
    b2bc:	48 c1 e7 02          	shl    $0x2,%rdi
    b2c0:	e8 0b 05 00 00       	callq  b7d0 <_ZN4util14internal_allocEmNS_8PlatformE>
    b2c5:	48 63 7b 14          	movslq 0x14(%rbx),%rdi
    b2c9:	8b 73 08             	mov    0x8(%rbx),%esi
    b2cc:	48 89 43 28          	mov    %rax,0x28(%rbx)
    b2d0:	48 c1 e7 03          	shl    $0x3,%rdi
    b2d4:	e8 f7 04 00 00       	callq  b7d0 <_ZN4util14internal_allocEmNS_8PlatformE>
    b2d9:	48 89 43 30          	mov    %rax,0x30(%rbx)
    b2dd:	48 8d 6c 24 40       	lea    0x40(%rsp),%rbp
    b2e2:	4c 8d 7c 24 10       	lea    0x10(%rsp),%r15
    b2e7:	c6 43 39 00          	movb   $0x0,0x39(%rbx)
    b2eb:	c6 43 38 00          	movb   $0x0,0x38(%rbx)
    b2ef:	e8 8c 7c ff ff       	callq  2f80 <omp_get_max_threads@plt>
    b2f4:	48 89 ee             	mov    %rbp,%rsi
    b2f7:	31 c9                	xor    %ecx,%ecx
    b2f9:	48 89 5c 24 40       	mov    %rbx,0x40(%rsp)
    b2fe:	89 43 3c             	mov    %eax,0x3c(%rbx)
    b301:	89 c2                	mov    %eax,%edx
    b303:	48 8d 3d 16 e8 ff ff 	lea    -0x17ea(%rip),%rdi        # 9b20 <_ZN6matrix6sparse9CSRMatrixIidEC2ERKNSt7__cxx1112basic_stringIcSt11char_traitsIcESaIcEEEN4util8PlatformE._omp_fn.3>
    b30a:	48 c7 43 40 00 00 00 	movq   $0x0,0x40(%rbx)
    b311:	00 
    b312:	e8 d9 7b ff ff       	callq  2ef0 <GOMP_parallel@plt>
    b317:	48 8b 74 24 08       	mov    0x8(%rsp),%rsi
    b31c:	31 d2                	xor    %edx,%edx
    b31e:	4c 89 ff             	mov    %r15,%rdi
    b321:	e8 5a ab ff ff       	callq  5e80 <_ZN4util2io3MMFIidE8iteratorC1EPS2_m>
    b326:	80 bc 24 88 02 00 00 	cmpb   $0x0,0x288(%rsp)
    b32d:	00 
    b32e:	75 0e                	jne    b33e <_ZN6matrix6sparse9CSRMatrixIidEC1ERKNSt7__cxx1112basic_stringIcSt11char_traitsIcESaIcEEEN4util8PlatformE+0x12e>
    b330:	80 bc 24 89 02 00 00 	cmpb   $0x0,0x289(%rsp)
    b337:	00 
    b338:	0f 84 0d 03 00 00    	je     b64b <_ZN6matrix6sparse9CSRMatrixIidEC1ERKNSt7__cxx1112basic_stringIcSt11char_traitsIcESaIcEEEN4util8PlatformE+0x43b>
    b33e:	48 8b 94 24 98 02 00 	mov    0x298(%rsp),%rdx
    b345:	00 
    b346:	48 8b 74 24 08       	mov    0x8(%rsp),%rsi
    b34b:	48 89 ef             	mov    %rbp,%rdi
    b34e:	48 2b 94 24 90 02 00 	sub    0x290(%rsp),%rdx
    b355:	00 
    b356:	48 c1 fa 04          	sar    $0x4,%rdx
    b35a:	e8 21 ab ff ff       	callq  5e80 <_ZN4util2io3MMFIidE8iteratorC1EPS2_m>
    b35f:	48 8b 43 20          	mov    0x20(%rbx),%rax
    b363:	48 8b 7c 24 10       	mov    0x10(%rsp),%rdi
    b368:	45 31 e4             	xor    %r12d,%r12d
    b36b:	45 31 c9             	xor    %r9d,%r9d
    b36e:	4c 8b 44 24 40       	mov    0x40(%rsp),%r8
    b373:	41 bd 01 00 00 00    	mov    $0x1,%r13d
    b379:	4d 8d 77 10          	lea    0x10(%r15),%r14
    b37d:	44 89 e1             	mov    %r12d,%ecx
    b380:	c7 00 00 00 00 00    	movl   $0x0,(%rax)
    b386:	4c 39 c7             	cmp    %r8,%rdi
    b389:	0f 84 ea 00 00 00    	je     b479 <_ZN6matrix6sparse9CSRMatrixIidEC1ERKNSt7__cxx1112basic_stringIcSt11char_traitsIcESaIcEEEN4util8PlatformE+0x269>
    b38f:	90                   	nop
    b390:	0f b6 b7 18 02 00 00 	movzbl 0x218(%rdi),%esi
    b397:	40 84 f6             	test   %sil,%sil
    b39a:	0f 85 08 02 00 00    	jne    b5a8 <_ZN6matrix6sparse9CSRMatrixIidEC1ERKNSt7__cxx1112basic_stringIcSt11char_traitsIcESaIcEEEN4util8PlatformE+0x398>
    b3a0:	80 bf 19 02 00 00 00 	cmpb   $0x0,0x219(%rdi)
    b3a7:	0f 85 23 02 00 00    	jne    b5d0 <_ZN6matrix6sparse9CSRMatrixIidEC1ERKNSt7__cxx1112basic_stringIcSt11char_traitsIcESaIcEEEN4util8PlatformE+0x3c0>
    b3ad:	80 7c 24 30 00       	cmpb   $0x0,0x30(%rsp)
    b3b2:	0f 84 4e 02 00 00    	je     b606 <_ZN6matrix6sparse9CSRMatrixIidEC1ERKNSt7__cxx1112basic_stringIcSt11char_traitsIcESaIcEEEN4util8PlatformE+0x3f6>
    b3b8:	8b 44 24 20          	mov    0x20(%rsp),%eax
    b3bc:	8d 68 ff             	lea    -0x1(%rax),%ebp
    b3bf:	8b 44 24 24          	mov    0x24(%rsp),%eax
    b3c3:	8d 50 ff             	lea    -0x1(%rax),%edx
    b3c6:	4c 89 f0             	mov    %r14,%rax
    b3c9:	c5 fb 10 40 08       	vmovsd 0x8(%rax),%xmm0
    b3ce:	41 39 e9             	cmp    %ebp,%r9d
    b3d1:	0f 8f f0 02 00 00    	jg     b6c7 <_ZN6matrix6sparse9CSRMatrixIidEC1ERKNSt7__cxx1112basic_stringIcSt11char_traitsIcESaIcEEEN4util8PlatformE+0x4b7>
    b3d7:	39 6b 0c             	cmp    %ebp,0xc(%rbx)
    b3da:	0f 8e 06 03 00 00    	jle    b6e6 <_ZN6matrix6sparse9CSRMatrixIidEC1ERKNSt7__cxx1112basic_stringIcSt11char_traitsIcESaIcEEEN4util8PlatformE+0x4d6>
    b3e0:	85 d2                	test   %edx,%edx
    b3e2:	0f 88 c0 02 00 00    	js     b6a8 <_ZN6matrix6sparse9CSRMatrixIidEC1ERKNSt7__cxx1112basic_stringIcSt11char_traitsIcESaIcEEEN4util8PlatformE+0x498>
    b3e8:	39 53 10             	cmp    %edx,0x10(%rbx)
    b3eb:	0f 8e b7 02 00 00    	jle    b6a8 <_ZN6matrix6sparse9CSRMatrixIidEC1ERKNSt7__cxx1112basic_stringIcSt11char_traitsIcESaIcEEEN4util8PlatformE+0x498>
    b3f1:	39 4b 14             	cmp    %ecx,0x14(%rbx)
    b3f4:	0f 8e 0b 03 00 00    	jle    b705 <_ZN6matrix6sparse9CSRMatrixIidEC1ERKNSt7__cxx1112basic_stringIcSt11char_traitsIcESaIcEEEN4util8PlatformE+0x4f5>
    b3fa:	41 39 e9             	cmp    %ebp,%r9d
    b3fd:	74 3d                	je     b43c <_ZN6matrix6sparse9CSRMatrixIidEC1ERKNSt7__cxx1112basic_stringIcSt11char_traitsIcESaIcEEEN4util8PlatformE+0x22c>
    b3ff:	41 89 eb             	mov    %ebp,%r11d
    b402:	45 29 cb             	sub    %r9d,%r11d
    b405:	45 85 db             	test   %r11d,%r11d
    b408:	7e 32                	jle    b43c <_ZN6matrix6sparse9CSRMatrixIidEC1ERKNSt7__cxx1112basic_stringIcSt11char_traitsIcESaIcEEEN4util8PlatformE+0x22c>
    b40a:	4d 63 cd             	movslq %r13d,%r9
    b40d:	45 8d 53 ff          	lea    -0x1(%r11),%r10d
    b411:	4f 8d 54 11 01       	lea    0x1(%r9,%r10,1),%r10
    b416:	4a 8d 04 8d 00 00 00 	lea    0x0(,%r9,4),%rax
    b41d:	00 
    b41e:	49 c1 e2 02          	shl    $0x2,%r10
    b422:	66 0f 1f 44 00 00    	nopw   0x0(%rax,%rax,1)
    b428:	4c 8b 4b 20          	mov    0x20(%rbx),%r9
    b42c:	41 89 0c 01          	mov    %ecx,(%r9,%rax,1)
    b430:	48 83 c0 04          	add    $0x4,%rax
    b434:	49 39 c2             	cmp    %rax,%r10
    b437:	75 ef                	jne    b428 <_ZN6matrix6sparse9CSRMatrixIidEC1ERKNSt7__cxx1112basic_stringIcSt11char_traitsIcESaIcEEEN4util8PlatformE+0x218>
    b439:	45 01 dd             	add    %r11d,%r13d
    b43c:	48 8b 43 28          	mov    0x28(%rbx),%rax
    b440:	42 89 14 a0          	mov    %edx,(%rax,%r12,4)
    b444:	48 8b 43 30          	mov    0x30(%rbx),%rax
    b448:	c4 a1 7b 11 04 e0    	vmovsd %xmm0,(%rax,%r12,8)
    b44e:	48 83 44 24 18 01    	addq   $0x1,0x18(%rsp)
    b454:	40 84 f6             	test   %sil,%sil
    b457:	75 0d                	jne    b466 <_ZN6matrix6sparse9CSRMatrixIidEC1ERKNSt7__cxx1112basic_stringIcSt11char_traitsIcESaIcEEEN4util8PlatformE+0x256>
    b459:	80 bf 19 02 00 00 00 	cmpb   $0x0,0x219(%rdi)
    b460:	0f 84 c2 01 00 00    	je     b628 <_ZN6matrix6sparse9CSRMatrixIidEC1ERKNSt7__cxx1112basic_stringIcSt11char_traitsIcESaIcEEEN4util8PlatformE+0x418>
    b466:	49 83 c4 01          	add    $0x1,%r12
    b46a:	41 89 e9             	mov    %ebp,%r9d
    b46d:	44 89 e1             	mov    %r12d,%ecx
    b470:	4c 39 c7             	cmp    %r8,%rdi
    b473:	0f 85 17 ff ff ff    	jne    b390 <_ZN6matrix6sparse9CSRMatrixIidEC1ERKNSt7__cxx1112basic_stringIcSt11char_traitsIcESaIcEEEN4util8PlatformE+0x180>
    b479:	48 8b 44 24 48       	mov    0x48(%rsp),%rax
    b47e:	48 39 44 24 18       	cmp    %rax,0x18(%rsp)
    b483:	0f 85 07 ff ff ff    	jne    b390 <_ZN6matrix6sparse9CSRMatrixIidEC1ERKNSt7__cxx1112basic_stringIcSt11char_traitsIcESaIcEEEN4util8PlatformE+0x180>
    b489:	48 8b 43 20          	mov    0x20(%rbx),%rax
    b48d:	49 63 d5             	movslq %r13d,%rdx
    b490:	44 89 24 90          	mov    %r12d,(%rax,%rdx,4)
    b494:	44 39 6b 0c          	cmp    %r13d,0xc(%rbx)
    b498:	0f 85 86 02 00 00    	jne    b724 <_ZN6matrix6sparse9CSRMatrixIidEC1ERKNSt7__cxx1112basic_stringIcSt11char_traitsIcESaIcEEEN4util8PlatformE+0x514>
    b49e:	44 39 63 14          	cmp    %r12d,0x14(%rbx)
    b4a2:	0f 85 d7 02 00 00    	jne    b77f <_ZN6matrix6sparse9CSRMatrixIidEC1ERKNSt7__cxx1112basic_stringIcSt11char_traitsIcESaIcEEEN4util8PlatformE+0x56f>
    b4a8:	48 8b 44 24 08       	mov    0x8(%rsp),%rax
    b4ad:	48 8d b8 88 00 00 00 	lea    0x88(%rax),%rdi
    b4b4:	e8 47 77 ff ff       	callq  2c00 <_ZNKSt12__basic_fileIcE7is_openEv@plt>
    b4b9:	84 c0                	test   %al,%al
    b4bb:	0f 85 aa 01 00 00    	jne    b66b <_ZN6matrix6sparse9CSRMatrixIidEC1ERKNSt7__cxx1112basic_stringIcSt11char_traitsIcESaIcEEEN4util8PlatformE+0x45b>
    b4c1:	48 8b bc 24 90 02 00 	mov    0x290(%rsp),%rdi
    b4c8:	00 
    b4c9:	48 85 ff             	test   %rdi,%rdi
    b4cc:	74 05                	je     b4d3 <_ZN6matrix6sparse9CSRMatrixIidEC1ERKNSt7__cxx1112basic_stringIcSt11char_traitsIcESaIcEEEN4util8PlatformE+0x2c3>
    b4ce:	e8 ed 78 ff ff       	callq  2dc0 <_ZdlPv@plt>
    b4d3:	48 8b 5c 24 08       	mov    0x8(%rsp),%rbx
    b4d8:	48 8d 05 f1 53 20 00 	lea    0x2053f1(%rip),%rax        # 2108d0 <_ZTVSt14basic_ifstreamIcSt11char_traitsIcEE@@GLIBCXX_3.4+0x18>
    b4df:	48 89 84 24 80 00 00 	mov    %rax,0x80(%rsp)
    b4e6:	00 
    b4e7:	48 83 c0 28          	add    $0x28,%rax
    b4eb:	48 89 84 24 80 01 00 	mov    %rax,0x180(%rsp)
    b4f2:	00 
    b4f3:	48 8d 7b 20          	lea    0x20(%rbx),%rdi
    b4f7:	48 8d 05 1a 54 20 00 	lea    0x20541a(%rip),%rax        # 210918 <_ZTVSt13basic_filebufIcSt11char_traitsIcEE@@GLIBCXX_3.4+0x10>
    b4fe:	48 89 84 24 90 00 00 	mov    %rax,0x90(%rsp)
    b505:	00 
    b506:	e8 e5 76 ff ff       	callq  2bf0 <_ZNSt13basic_filebufIcSt11char_traitsIcEE5closeEv@plt>
    b50b:	48 8d bb 88 00 00 00 	lea    0x88(%rbx),%rdi
    b512:	e8 29 7b ff ff       	callq  3040 <_ZNSt12__basic_fileIcED1Ev@plt>
    b517:	48 8d 05 2a 53 20 00 	lea    0x20532a(%rip),%rax        # 210848 <_ZTVSt15basic_streambufIcSt11char_traitsIcEE@@GLIBCXX_3.4+0x10>
    b51e:	48 8d 7b 58          	lea    0x58(%rbx),%rdi
    b522:	48 89 84 24 90 00 00 	mov    %rax,0x90(%rsp)
    b529:	00 
    b52a:	e8 91 79 ff ff       	callq  2ec0 <_ZNSt6localeD1Ev@plt>
    b52f:	48 8b 05 5a 54 20 00 	mov    0x20545a(%rip),%rax        # 210990 <_ZTTSt14basic_ifstreamIcSt11char_traitsIcEE@@GLIBCXX_3.4+0x8>
    b536:	48 8b 15 5b 54 20 00 	mov    0x20545b(%rip),%rdx        # 210998 <_ZTTSt14basic_ifstreamIcSt11char_traitsIcEE@@GLIBCXX_3.4+0x10>
    b53d:	48 8d bb 10 01 00 00 	lea    0x110(%rbx),%rdi
    b544:	48 89 84 24 80 00 00 	mov    %rax,0x80(%rsp)
    b54b:	00 
    b54c:	48 8b 40 e8          	mov    -0x18(%rax),%rax
    b550:	48 89 94 04 80 00 00 	mov    %rdx,0x80(%rsp,%rax,1)
    b557:	00 
    b558:	48 8d 05 c9 52 20 00 	lea    0x2052c9(%rip),%rax        # 210828 <_ZTVSt9basic_iosIcSt11char_traitsIcEE@@GLIBCXX_3.4+0x10>
    b55f:	48 89 84 24 80 01 00 	mov    %rax,0x180(%rsp)
    b566:	00 
    b567:	48 c7 84 24 88 00 00 	movq   $0x0,0x88(%rsp)
    b56e:	00 00 00 00 00 
    b573:	e8 c8 76 ff ff       	callq  2c40 <_ZNSt8ios_baseD2Ev@plt>
    b578:	48 8b 84 24 a8 02 00 	mov    0x2a8(%rsp),%rax
    b57f:	00 
    b580:	64 48 33 04 25 28 00 	xor    %fs:0x28,%rax
    b587:	00 00 
    b589:	0f 85 b4 01 00 00    	jne    b743 <_ZN6matrix6sparse9CSRMatrixIidEC1ERKNSt7__cxx1112basic_stringIcSt11char_traitsIcESaIcEEEN4util8PlatformE+0x533>
    b58f:	48 81 c4 b8 02 00 00 	add    $0x2b8,%rsp
    b596:	5b                   	pop    %rbx
    b597:	5d                   	pop    %rbp
    b598:	41 5c                	pop    %r12
    b59a:	41 5d                	pop    %r13
    b59c:	41 5e                	pop    %r14
    b59e:	41 5f                	pop    %r15
    b5a0:	c3                   	retq   
    b5a1:	0f 1f 80 00 00 00 00 	nopl   0x0(%rax)
    b5a8:	b8 04 00 00 00       	mov    $0x4,%eax
    b5ad:	c4 e2 f9 f7 44 24 18 	shlx   %rax,0x18(%rsp),%rax
    b5b4:	48 03 87 20 02 00 00 	add    0x220(%rdi),%rax
    b5bb:	8b 10                	mov    (%rax),%edx
    b5bd:	8d 6a ff             	lea    -0x1(%rdx),%ebp
    b5c0:	8b 50 04             	mov    0x4(%rax),%edx
    b5c3:	83 ea 01             	sub    $0x1,%edx
    b5c6:	e9 fe fd ff ff       	jmpq   b3c9 <_ZN6matrix6sparse9CSRMatrixIidEC1ERKNSt7__cxx1112basic_stringIcSt11char_traitsIcESaIcEEEN4util8PlatformE+0x1b9>
    b5cb:	0f 1f 44 00 00       	nopl   0x0(%rax,%rax,1)
    b5d0:	b8 04 00 00 00       	mov    $0x4,%eax
    b5d5:	c4 e2 f9 f7 44 24 18 	shlx   %rax,0x18(%rsp),%rax
    b5dc:	48 03 87 20 02 00 00 	add    0x220(%rdi),%rax
    b5e3:	8b 10                	mov    (%rax),%edx
    b5e5:	8d 6a ff             	lea    -0x1(%rdx),%ebp
    b5e8:	8b 50 04             	mov    0x4(%rax),%edx
    b5eb:	83 ea 01             	sub    $0x1,%edx
    b5ee:	80 bf 19 02 00 00 00 	cmpb   $0x0,0x219(%rdi)
    b5f5:	0f 85 ce fd ff ff    	jne    b3c9 <_ZN6matrix6sparse9CSRMatrixIidEC1ERKNSt7__cxx1112basic_stringIcSt11char_traitsIcESaIcEEEN4util8PlatformE+0x1b9>
    b5fb:	80 7c 24 30 00       	cmpb   $0x0,0x30(%rsp)
    b600:	0f 85 98 01 00 00    	jne    b79e <_ZN6matrix6sparse9CSRMatrixIidEC1ERKNSt7__cxx1112basic_stringIcSt11char_traitsIcESaIcEEEN4util8PlatformE+0x58e>
    b606:	48 8d 35 cb 11 00 00 	lea    0x11cb(%rip),%rsi        # c7d8 <_IO_stdin_used+0x118>
    b60d:	48 8d 3d 0c 5a 20 00 	lea    0x205a0c(%rip),%rdi        # 211020 <_ZSt4cout@@GLIBCXX_3.4>
    b614:	e8 b7 77 ff ff       	callq  2dd0 <_ZStlsISt11char_traitsIcEERSt13basic_ostreamIcT_ES5_PKc@plt>
    b619:	bf 01 00 00 00       	mov    $0x1,%edi
    b61e:	e8 3d 78 ff ff       	callq  2e60 <exit@plt>
    b623:	0f 1f 44 00 00       	nopl   0x0(%rax,%rax,1)
    b628:	49 8d 4f 18          	lea    0x18(%r15),%rcx
    b62c:	49 8d 57 14          	lea    0x14(%r15),%rdx
    b630:	4c 89 f6             	mov    %r14,%rsi
    b633:	e8 48 a6 ff ff       	callq  5c80 <_ZN4util2io3MMFIidE7GetNextERiS3_Rd>
    b638:	48 8b 7c 24 10       	mov    0x10(%rsp),%rdi
    b63d:	4c 8b 44 24 40       	mov    0x40(%rsp),%r8
    b642:	88 44 24 30          	mov    %al,0x30(%rsp)
    b646:	e9 1b fe ff ff       	jmpq   b466 <_ZN6matrix6sparse9CSRMatrixIidEC1ERKNSt7__cxx1112basic_stringIcSt11char_traitsIcESaIcEEEN4util8PlatformE+0x256>
    b64b:	48 63 54 24 78       	movslq 0x78(%rsp),%rdx
    b650:	48 8b 74 24 08       	mov    0x8(%rsp),%rsi
    b655:	48 89 ef             	mov    %rbp,%rdi
    b658:	e8 23 a8 ff ff       	callq  5e80 <_ZN4util2io3MMFIidE8iteratorC1EPS2_m>
    b65d:	e9 fd fc ff ff       	jmpq   b35f <_ZN6matrix6sparse9CSRMatrixIidEC1ERKNSt7__cxx1112basic_stringIcSt11char_traitsIcESaIcEEEN4util8PlatformE+0x14f>
    b662:	8b 54 24 78          	mov    0x78(%rsp),%edx
    b666:	e9 31 fc ff ff       	jmpq   b29c <_ZN6matrix6sparse9CSRMatrixIidEC1ERKNSt7__cxx1112basic_stringIcSt11char_traitsIcESaIcEEEN4util8PlatformE+0x8c>
    b66b:	48 8b 44 24 08       	mov    0x8(%rsp),%rax
    b670:	48 8d 78 20          	lea    0x20(%rax),%rdi
    b674:	e8 77 75 ff ff       	callq  2bf0 <_ZNSt13basic_filebufIcSt11char_traitsIcEE5closeEv@plt>
    b679:	48 85 c0             	test   %rax,%rax
    b67c:	0f 85 3f fe ff ff    	jne    b4c1 <_ZN6matrix6sparse9CSRMatrixIidEC1ERKNSt7__cxx1112basic_stringIcSt11char_traitsIcESaIcEEEN4util8PlatformE+0x2b1>
    b682:	48 8b 84 24 80 00 00 	mov    0x80(%rsp),%rax
    b689:	00 
    b68a:	48 8b 74 24 08       	mov    0x8(%rsp),%rsi
    b68f:	48 8b 40 e8          	mov    -0x18(%rax),%rax
    b693:	48 8d 7c 06 10       	lea    0x10(%rsi,%rax,1),%rdi
    b698:	8b 77 20             	mov    0x20(%rdi),%esi
    b69b:	83 ce 04             	or     $0x4,%esi
    b69e:	e8 0d 79 ff ff       	callq  2fb0 <_ZNSt9basic_iosIcSt11char_traitsIcEE5clearESt12_Ios_Iostate@plt>
    b6a3:	e9 19 fe ff ff       	jmpq   b4c1 <_ZN6matrix6sparse9CSRMatrixIidEC1ERKNSt7__cxx1112basic_stringIcSt11char_traitsIcESaIcEEEN4util8PlatformE+0x2b1>
    b6a8:	48 8d 0d 91 17 00 00 	lea    0x1791(%rip),%rcx        # ce40 <_ZZN6matrix6sparse9CSRMatrixIidEC4ERKNSt7__cxx1112basic_stringIcSt11char_traitsIcESaIcEEEN4util8PlatformEE19__PRETTY_FUNCTION__>
    b6af:	ba 52 00 00 00       	mov    $0x52,%edx
    b6b4:	48 8d 35 fc 16 00 00 	lea    0x16fc(%rip),%rsi        # cdb7 <_ZTSSt5_BindIFMN6matrix6sparse9COOMatrixIidEEFvPdPKdEPS3_St12_PlaceholderILi1EESA_ILi2EEEE+0x57>
    b6bb:	48 8d 3d 21 17 00 00 	lea    0x1721(%rip),%rdi        # cde3 <_ZTSSt5_BindIFMN6matrix6sparse9COOMatrixIidEEFvPdPKdEPS3_St12_PlaceholderILi1EESA_ILi2EEEE+0x83>
    b6c2:	e8 39 76 ff ff       	callq  2d00 <__assert_fail@plt>
    b6c7:	48 8d 0d 72 17 00 00 	lea    0x1772(%rip),%rcx        # ce40 <_ZZN6matrix6sparse9CSRMatrixIidEC4ERKNSt7__cxx1112basic_stringIcSt11char_traitsIcESaIcEEEN4util8PlatformEE19__PRETTY_FUNCTION__>
    b6ce:	ba 50 00 00 00       	mov    $0x50,%edx
    b6d3:	48 8d 35 dd 16 00 00 	lea    0x16dd(%rip),%rsi        # cdb7 <_ZTSSt5_BindIFMN6matrix6sparse9COOMatrixIidEEFvPdPKdEPS3_St12_PlaceholderILi1EESA_ILi2EEEE+0x57>
    b6da:	48 8d 3d e5 16 00 00 	lea    0x16e5(%rip),%rdi        # cdc6 <_ZTSSt5_BindIFMN6matrix6sparse9COOMatrixIidEEFvPdPKdEPS3_St12_PlaceholderILi1EESA_ILi2EEEE+0x66>
    b6e1:	e8 1a 76 ff ff       	callq  2d00 <__assert_fail@plt>
    b6e6:	48 8d 0d 53 17 00 00 	lea    0x1753(%rip),%rcx        # ce40 <_ZZN6matrix6sparse9CSRMatrixIidEC4ERKNSt7__cxx1112basic_stringIcSt11char_traitsIcESaIcEEEN4util8PlatformEE19__PRETTY_FUNCTION__>
    b6ed:	ba 51 00 00 00       	mov    $0x51,%edx
    b6f2:	48 8d 35 be 16 00 00 	lea    0x16be(%rip),%rsi        # cdb7 <_ZTSSt5_BindIFMN6matrix6sparse9COOMatrixIidEEFvPdPKdEPS3_St12_PlaceholderILi1EESA_ILi2EEEE+0x57>
    b6f9:	48 8d 3d d6 16 00 00 	lea    0x16d6(%rip),%rdi        # cdd6 <_ZTSSt5_BindIFMN6matrix6sparse9COOMatrixIidEEFvPdPKdEPS3_St12_PlaceholderILi1EESA_ILi2EEEE+0x76>
    b700:	e8 fb 75 ff ff       	callq  2d00 <__assert_fail@plt>
    b705:	48 8d 0d 34 17 00 00 	lea    0x1734(%rip),%rcx        # ce40 <_ZZN6matrix6sparse9CSRMatrixIidEC4ERKNSt7__cxx1112basic_stringIcSt11char_traitsIcESaIcEEEN4util8PlatformEE19__PRETTY_FUNCTION__>
    b70c:	ba 53 00 00 00       	mov    $0x53,%edx
    b711:	48 8d 35 9f 16 00 00 	lea    0x169f(%rip),%rsi        # cdb7 <_ZTSSt5_BindIFMN6matrix6sparse9COOMatrixIidEEFvPdPKdEPS3_St12_PlaceholderILi1EESA_ILi2EEEE+0x57>
    b718:	48 8d 3d dd 16 00 00 	lea    0x16dd(%rip),%rdi        # cdfc <_ZTSSt5_BindIFMN6matrix6sparse9COOMatrixIidEEFvPdPKdEPS3_St12_PlaceholderILi1EESA_ILi2EEEE+0x9c>
    b71f:	e8 dc 75 ff ff       	callq  2d00 <__assert_fail@plt>
    b724:	48 8d 0d 15 17 00 00 	lea    0x1715(%rip),%rcx        # ce40 <_ZZN6matrix6sparse9CSRMatrixIidEC4ERKNSt7__cxx1112basic_stringIcSt11char_traitsIcESaIcEEEN4util8PlatformEE19__PRETTY_FUNCTION__>
    b72b:	ba 64 00 00 00       	mov    $0x64,%edx
    b730:	48 8d 35 80 16 00 00 	lea    0x1680(%rip),%rsi        # cdb7 <_ZTSSt5_BindIFMN6matrix6sparse9COOMatrixIidEEFvPdPKdEPS3_St12_PlaceholderILi1EESA_ILi2EEEE+0x57>
    b737:	48 8d 3d cb 16 00 00 	lea    0x16cb(%rip),%rdi        # ce09 <_ZTSSt5_BindIFMN6matrix6sparse9COOMatrixIidEEFvPdPKdEPS3_St12_PlaceholderILi1EESA_ILi2EEEE+0xa9>
    b73e:	e8 bd 75 ff ff       	callq  2d00 <__assert_fail@plt>
    b743:	e8 b8 76 ff ff       	callq  2e00 <__stack_chk_fail@plt>
    b748:	48 8b 7c 24 08       	mov    0x8(%rsp),%rdi
    b74d:	48 89 c5             	mov    %rax,%rbp
    b750:	c5 f8 77             	vzeroupper 
    b753:	e8 d8 96 ff ff       	callq  4e30 <_ZN4util2io3MMFIidED1Ev>
    b758:	48 8b 43 58          	mov    0x58(%rbx),%rax
    b75c:	48 85 c0             	test   %rax,%rax
    b75f:	74 0e                	je     b76f <_ZN6matrix6sparse9CSRMatrixIidEC1ERKNSt7__cxx1112basic_stringIcSt11char_traitsIcESaIcEEEN4util8PlatformE+0x55f>
    b761:	48 8d 7b 48          	lea    0x48(%rbx),%rdi
    b765:	ba 03 00 00 00       	mov    $0x3,%edx
    b76a:	48 89 fe             	mov    %rdi,%rsi
    b76d:	ff d0                	callq  *%rax
    b76f:	48 89 ef             	mov    %rbp,%rdi
    b772:	e8 79 78 ff ff       	callq  2ff0 <_Unwind_Resume@plt>
    b777:	48 89 c5             	mov    %rax,%rbp
    b77a:	c5 f8 77             	vzeroupper 
    b77d:	eb d9                	jmp    b758 <_ZN6matrix6sparse9CSRMatrixIidEC1ERKNSt7__cxx1112basic_stringIcSt11char_traitsIcESaIcEEEN4util8PlatformE+0x548>
    b77f:	48 8d 0d ba 16 00 00 	lea    0x16ba(%rip),%rcx        # ce40 <_ZZN6matrix6sparse9CSRMatrixIidEC4ERKNSt7__cxx1112basic_stringIcSt11char_traitsIcESaIcEEEN4util8PlatformEE19__PRETTY_FUNCTION__>
    b786:	ba 65 00 00 00       	mov    $0x65,%edx
    b78b:	48 8d 35 25 16 00 00 	lea    0x1625(%rip),%rsi        # cdb7 <_ZTSSt5_BindIFMN6matrix6sparse9COOMatrixIidEEFvPdPKdEPS3_St12_PlaceholderILi1EESA_ILi2EEEE+0x57>
    b792:	48 8d 3d 80 16 00 00 	lea    0x1680(%rip),%rdi        # ce19 <_ZTSSt5_BindIFMN6matrix6sparse9COOMatrixIidEEFvPdPKdEPS3_St12_PlaceholderILi1EESA_ILi2EEEE+0xb9>
    b799:	e8 62 75 ff ff       	callq  2d00 <__assert_fail@plt>
    b79e:	4c 89 f0             	mov    %r14,%rax
    b7a1:	e9 23 fc ff ff       	jmpq   b3c9 <_ZN6matrix6sparse9CSRMatrixIidEC1ERKNSt7__cxx1112basic_stringIcSt11char_traitsIcESaIcEEEN4util8PlatformE+0x1b9>
    b7a6:	66 2e 0f 1f 84 00 00 	nopw   %cs:0x0(%rax,%rax,1)
    b7ad:	00 00 00 

000000000000b7b0 <_ZN4util13internal_freeEPvNS_8PlatformE>:
    b7b0:	85 f6                	test   %esi,%esi
    b7b2:	75 05                	jne    b7b9 <_ZN4util13internal_freeEPvNS_8PlatformE+0x9>
    b7b4:	48 85 ff             	test   %rdi,%rdi
    b7b7:	75 07                	jne    b7c0 <_ZN4util13internal_freeEPvNS_8PlatformE+0x10>
    b7b9:	c3                   	retq   
    b7ba:	66 0f 1f 44 00 00    	nopw   0x0(%rax,%rax,1)
    b7c0:	e9 8b 76 ff ff       	jmpq   2e50 <free@plt>
    b7c5:	90                   	nop
    b7c6:	66 2e 0f 1f 84 00 00 	nopw   %cs:0x0(%rax,%rax,1)
    b7cd:	00 00 00 

000000000000b7d0 <_ZN4util14internal_allocEmNS_8PlatformE>:
    b7d0:	48 83 ec 18          	sub    $0x18,%rsp
    b7d4:	64 48 8b 04 25 28 00 	mov    %fs:0x28,%rax
    b7db:	00 00 
    b7dd:	48 89 44 24 08       	mov    %rax,0x8(%rsp)
    b7e2:	31 c0                	xor    %eax,%eax
    b7e4:	48 c7 04 24 00 00 00 	movq   $0x0,(%rsp)
    b7eb:	00 
    b7ec:	85 f6                	test   %esi,%esi
    b7ee:	74 18                	je     b808 <_ZN4util14internal_allocEmNS_8PlatformE+0x38>
    b7f0:	48 8b 4c 24 08       	mov    0x8(%rsp),%rcx
    b7f5:	64 48 33 0c 25 28 00 	xor    %fs:0x28,%rcx
    b7fc:	00 00 
    b7fe:	75 25                	jne    b825 <_ZN4util14internal_allocEmNS_8PlatformE+0x55>
    b800:	48 83 c4 18          	add    $0x18,%rsp
    b804:	c3                   	retq   
    b805:	0f 1f 00             	nopl   (%rax)
    b808:	48 89 e0             	mov    %rsp,%rax
    b80b:	48 89 fa             	mov    %rdi,%rdx
    b80e:	be 40 00 00 00       	mov    $0x40,%esi
    b813:	48 89 c7             	mov    %rax,%rdi
    b816:	e8 a5 74 ff ff       	callq  2cc0 <posix_memalign@plt>
    b81b:	85 c0                	test   %eax,%eax
    b81d:	75 0b                	jne    b82a <_ZN4util14internal_allocEmNS_8PlatformE+0x5a>
    b81f:	48 8b 04 24          	mov    (%rsp),%rax
    b823:	eb cb                	jmp    b7f0 <_ZN4util14internal_allocEmNS_8PlatformE+0x20>
    b825:	e8 d6 75 ff ff       	callq  2e00 <__stack_chk_fail@plt>
    b82a:	ba 21 00 00 00       	mov    $0x21,%edx
    b82f:	48 8d 35 2a 1a 00 00 	lea    0x1a2a(%rip),%rsi        # d260 <_ZTSSt5_BindIFMN6matrix6sparse9CSRMatrixIidEEFvPdPKdEPS3_St12_PlaceholderILi1EESA_ILi2EEEE+0xc0>
    b836:	48 8d 3d e3 57 20 00 	lea    0x2057e3(%rip),%rdi        # 211020 <_ZSt4cout@@GLIBCXX_3.4>
    b83d:	e8 de 75 ff ff       	callq  2e20 <_ZSt16__ostream_insertIcSt11char_traitsIcEERSt13basic_ostreamIT_T0_ES6_PKS3_l@plt>
    b842:	48 8d 3d d7 57 20 00 	lea    0x2057d7(%rip),%rdi        # 211020 <_ZSt4cout@@GLIBCXX_3.4>
    b849:	e8 52 74 ff ff       	callq  2ca0 <_ZSt4endlIcSt11char_traitsIcEERSt13basic_ostreamIT_T0_ES6_@plt>
    b84e:	bf 01 00 00 00       	mov    $0x1,%edi
    b853:	e8 08 76 ff ff       	callq  2e60 <exit@plt>
    b858:	0f 1f 84 00 00 00 00 	nopl   0x0(%rax,%rax,1)
    b85f:	00 

000000000000b860 <main._omp_fn.0>:
    b860:	55                   	push   %rbp
    b861:	48 89 fd             	mov    %rdi,%rbp
    b864:	53                   	push   %rbx
    b865:	48 83 ec 08          	sub    $0x8,%rsp
    b869:	e8 e2 77 ff ff       	callq  3050 <omp_get_num_threads@plt>
    b86e:	89 c3                	mov    %eax,%ebx
    b870:	e8 bb 76 ff ff       	callq  2f30 <omp_get_thread_num@plt>
    b875:	89 c1                	mov    %eax,%ecx
    b877:	8b 45 08             	mov    0x8(%rbp),%eax
    b87a:	99                   	cltd   
    b87b:	f7 fb                	idiv   %ebx
    b87d:	39 d1                	cmp    %edx,%ecx
    b87f:	7d 05                	jge    b886 <main._omp_fn.0+0x26>
    b881:	83 c0 01             	add    $0x1,%eax
    b884:	31 d2                	xor    %edx,%edx
    b886:	0f af c8             	imul   %eax,%ecx
    b889:	01 d1                	add    %edx,%ecx
    b88b:	01 c8                	add    %ecx,%eax
    b88d:	39 c1                	cmp    %eax,%ecx
    b88f:	7d 2f                	jge    b8c0 <main._omp_fn.0+0x60>
    b891:	29 c8                	sub    %ecx,%eax
    b893:	48 63 c9             	movslq %ecx,%rcx
    b896:	31 f6                	xor    %esi,%esi
    b898:	83 e8 01             	sub    $0x1,%eax
    b89b:	48 8d 14 85 04 00 00 	lea    0x4(,%rax,4),%rdx
    b8a2:	00 
    b8a3:	48 8b 45 00          	mov    0x0(%rbp),%rax
    b8a7:	48 83 c4 08          	add    $0x8,%rsp
    b8ab:	5b                   	pop    %rbx
    b8ac:	5d                   	pop    %rbp
    b8ad:	48 8d 3c 88          	lea    (%rax,%rcx,4),%rdi
    b8b1:	e9 2a 74 ff ff       	jmpq   2ce0 <memset@plt>
    b8b6:	66 2e 0f 1f 84 00 00 	nopw   %cs:0x0(%rax,%rax,1)
    b8bd:	00 00 00 
    b8c0:	48 83 c4 08          	add    $0x8,%rsp
    b8c4:	5b                   	pop    %rbx
    b8c5:	5d                   	pop    %rbp
    b8c6:	c3                   	retq   
    b8c7:	66 0f 1f 84 00 00 00 	nopw   0x0(%rax,%rax,1)
    b8ce:	00 00 

000000000000b8d0 <main._omp_fn.1>:
    b8d0:	4c 8d 54 24 08       	lea    0x8(%rsp),%r10
    b8d5:	48 83 e4 e0          	and    $0xffffffffffffffe0,%rsp
    b8d9:	41 ff 72 f8          	pushq  -0x8(%r10)
    b8dd:	55                   	push   %rbp
    b8de:	48 89 e5             	mov    %rsp,%rbp
    b8e1:	41 57                	push   %r15
    b8e3:	49 89 ff             	mov    %rdi,%r15
    b8e6:	41 56                	push   %r14
    b8e8:	41 55                	push   %r13
    b8ea:	41 54                	push   %r12
    b8ec:	41 52                	push   %r10
    b8ee:	53                   	push   %rbx
    b8ef:	48 81 ec e0 00 00 00 	sub    $0xe0,%rsp
    b8f6:	48 89 bd 00 ff ff ff 	mov    %rdi,-0x100(%rbp)
    b8fd:	e8 4e 77 ff ff       	callq  3050 <omp_get_num_threads@plt>
    b902:	89 c3                	mov    %eax,%ebx
    b904:	e8 27 76 ff ff       	callq  2f30 <omp_get_thread_num@plt>
    b909:	89 c1                	mov    %eax,%ecx
    b90b:	41 8b 47 18          	mov    0x18(%r15),%eax
    b90f:	99                   	cltd   
    b910:	f7 fb                	idiv   %ebx
    b912:	39 d1                	cmp    %edx,%ecx
    b914:	7d 05                	jge    b91b <main._omp_fn.1+0x4b>
    b916:	83 c0 01             	add    $0x1,%eax
    b919:	31 d2                	xor    %edx,%edx
    b91b:	0f af c8             	imul   %eax,%ecx
    b91e:	01 ca                	add    %ecx,%edx
    b920:	01 d0                	add    %edx,%eax
    b922:	39 c2                	cmp    %eax,%edx
    b924:	0f 8d ec 01 00 00    	jge    bb16 <main._omp_fn.1+0x246>
    b92a:	48 8b bd 00 ff ff ff 	mov    -0x100(%rbp),%rdi
    b931:	29 d0                	sub    %edx,%eax
    b933:	48 63 f2             	movslq %edx,%rsi
    b936:	c4 41 39 57 c0       	vxorpd %xmm8,%xmm8,%xmm8
    b93b:	83 e8 01             	sub    $0x1,%eax
    b93e:	d9 05 fc 1d 00 00    	flds   0x1dfc(%rip)        # d740 <_ZZN6matrix6sparse9CSRMatrixIifEC4ERKNSt7__cxx1112basic_stringIcSt11char_traitsIcESaIcEEEN4util8PlatformEE19__PRETTY_FUNCTION__+0x160>
    b944:	c5 fb 10 3d 4c 1d 00 	vmovsd 0x1d4c(%rip),%xmm7        # d698 <_ZZN6matrix6sparse9CSRMatrixIifEC4ERKNSt7__cxx1112basic_stringIcSt11char_traitsIcESaIcEEEN4util8PlatformEE19__PRETTY_FUNCTION__+0xb8>
    b94b:	00 
    b94c:	48 8b 4f 10          	mov    0x10(%rdi),%rcx
    b950:	48 01 f0             	add    %rsi,%rax
    b953:	4c 8b 7f 08          	mov    0x8(%rdi),%r15
    b957:	4c 8b 37             	mov    (%rdi),%r14
    b95a:	c5 fd 6f 35 5e 1d 00 	vmovdqa 0x1d5e(%rip),%ymm6        # d6c0 <_ZZN6matrix6sparse9CSRMatrixIifEC4ERKNSt7__cxx1112basic_stringIcSt11char_traitsIcESaIcEEEN4util8PlatformEE19__PRETTY_FUNCTION__+0xe0>
    b961:	00 
    b962:	48 8d 1c b1          	lea    (%rcx,%rsi,4),%rbx
    b966:	48 8d 44 81 04       	lea    0x4(%rcx,%rax,4),%rax
    b96b:	4c 89 bd 78 ff ff ff 	mov    %r15,-0x88(%rbp)
    b972:	c5 fd 6f 2d 66 1d 00 	vmovdqa 0x1d66(%rip),%ymm5        # d6e0 <_ZZN6matrix6sparse9CSRMatrixIifEC4ERKNSt7__cxx1112basic_stringIcSt11char_traitsIcESaIcEEEN4util8PlatformEE19__PRETTY_FUNCTION__+0x100>
    b979:	00 
    b97a:	48 89 5d 88          	mov    %rbx,-0x78(%rbp)
    b97e:	c5 fd 6f 25 7a 1d 00 	vmovdqa 0x1d7a(%rip),%ymm4        # d700 <_ZZN6matrix6sparse9CSRMatrixIifEC4ERKNSt7__cxx1112basic_stringIcSt11char_traitsIcESaIcEEEN4util8PlatformEE19__PRETTY_FUNCTION__+0x120>
    b985:	00 
    b986:	48 89 85 08 ff ff ff 	mov    %rax,-0xf8(%rbp)
    b98d:	c5 fd 6f 1d 8b 1d 00 	vmovdqa 0x1d8b(%rip),%ymm3        # d720 <_ZZN6matrix6sparse9CSRMatrixIifEC4ERKNSt7__cxx1112basic_stringIcSt11char_traitsIcESaIcEEEN4util8PlatformEE19__PRETTY_FUNCTION__+0x140>
    b994:	00 
    b995:	0f 1f 00             	nopl   (%rax)
    b998:	4c 89 f0             	mov    %r14,%rax
    b99b:	c4 41 29 57 d2       	vxorpd %xmm10,%xmm10,%xmm10
    b9a0:	c5 fb 11 7d c0       	vmovsd %xmm7,-0x40(%rbp)
    b9a5:	c4 41 31 ef c9       	vpxor  %xmm9,%xmm9,%xmm9
    b9aa:	48 c1 e8 03          	shr    $0x3,%rax
    b9ae:	bb 8c 01 00 00       	mov    $0x18c,%ebx
    b9b3:	4d 8b 9e 80 13 00 00 	mov    0x1380(%r14),%r11
    b9ba:	c7 45 b8 02 00 00 00 	movl   $0x2,-0x48(%rbp)
    b9c1:	48 f7 d8             	neg    %rax
    b9c4:	48 89 c7             	mov    %rax,%rdi
    b9c7:	b8 e3 00 00 00       	mov    $0xe3,%eax
    b9cc:	83 e7 03             	and    $0x3,%edi
    b9cf:	48 29 f8             	sub    %rdi,%rax
    b9d2:	48 89 7d 90          	mov    %rdi,-0x70(%rbp)
    b9d6:	48 89 85 10 ff ff ff 	mov    %rax,-0xf0(%rbp)
    b9dd:	48 8d 04 fd 00 00 00 	lea    0x0(,%rdi,8),%rax
    b9e4:	00 
    b9e5:	49 8d 14 06          	lea    (%r14,%rax,1),%rdx
    b9e9:	4d 8d 44 06 08       	lea    0x8(%r14,%rax,1),%r8
    b9ee:	49 8d bc 06 68 0c 00 	lea    0xc68(%r14,%rax,1),%rdi
    b9f5:	00 
    b9f6:	49 8d 86 18 07 00 00 	lea    0x718(%r14),%rax
    b9fd:	48 c1 e8 03          	shr    $0x3,%rax
    ba01:	48 f7 d8             	neg    %rax
    ba04:	83 e0 03             	and    $0x3,%eax
    ba07:	48 29 c3             	sub    %rax,%rbx
    ba0a:	48 8d 0c c5 18 07 00 	lea    0x718(,%rax,8),%rcx
    ba11:	00 
    ba12:	48 89 45 b0          	mov    %rax,-0x50(%rbp)
    ba16:	49 89 df             	mov    %rbx,%r15
    ba19:	48 89 9d 50 ff ff ff 	mov    %rbx,-0xb0(%rbp)
    ba20:	48 83 e3 fc          	and    $0xfffffffffffffffc,%rbx
    ba24:	49 8d 04 0e          	lea    (%r14,%rcx,1),%rax
    ba28:	48 89 9d 30 ff ff ff 	mov    %rbx,-0xd0(%rbp)
    ba2f:	48 f7 d3             	not    %rbx
    ba32:	49 8d 74 0e 08       	lea    0x8(%r14,%rcx,1),%rsi
    ba37:	49 c1 ef 02          	shr    $0x2,%r15
    ba3b:	49 8d 8c 0e e8 f8 ff 	lea    -0x718(%r14,%rcx,1),%rcx
    ba42:	ff 
    ba43:	48 89 5d 80          	mov    %rbx,-0x80(%rbp)
    ba47:	49 81 fb 6f 02 00 00 	cmp    $0x26f,%r11
    ba4e:	0f 87 f0 00 00 00    	ja     bb44 <main._omp_fn.1+0x274>
    ba54:	4d 89 d9             	mov    %r11,%r9
    ba57:	49 83 c3 01          	add    $0x1,%r11
    ba5b:	4f 8b 14 ce          	mov    (%r14,%r9,8),%r10
    ba5f:	4d 89 9e 80 13 00 00 	mov    %r11,0x1380(%r14)
    ba66:	4d 89 d1             	mov    %r10,%r9
    ba69:	49 c1 e9 0b          	shr    $0xb,%r9
    ba6d:	45 89 c9             	mov    %r9d,%r9d
    ba70:	4d 31 d1             	xor    %r10,%r9
    ba73:	4d 89 ca             	mov    %r9,%r10
    ba76:	49 c1 e2 07          	shl    $0x7,%r10
    ba7a:	41 81 e2 80 56 2c 9d 	and    $0x9d2c5680,%r10d
    ba81:	4d 31 d1             	xor    %r10,%r9
    ba84:	4d 89 ca             	mov    %r9,%r10
    ba87:	49 c1 e2 0f          	shl    $0xf,%r10
    ba8b:	41 81 e2 00 00 c6 ef 	and    $0xefc60000,%r10d
    ba92:	4d 31 d1             	xor    %r10,%r9
    ba95:	4d 89 ca             	mov    %r9,%r10
    ba98:	49 c1 ea 12          	shr    $0x12,%r10
    ba9c:	4d 31 d1             	xor    %r10,%r9
    ba9f:	0f 88 1b 05 00 00    	js     bfc0 <main._omp_fn.1+0x6f0>
    baa5:	c5 f9 57 c0          	vxorpd %xmm0,%xmm0,%xmm0
    baa9:	c4 c1 fb 2a c1       	vcvtsi2sd %r9,%xmm0,%xmm0
    baae:	d9 c0                	fld    %st(0)
    bab0:	dc 4d c0             	fmull  -0x40(%rbp)
    bab3:	83 7d b8 01          	cmpl   $0x1,-0x48(%rbp)
    bab7:	c4 62 f9 b9 55 c0    	vfmadd231sd -0x40(%rbp),%xmm0,%xmm10
    babd:	dd 5d c0             	fstpl  -0x40(%rbp)
    bac0:	75 6e                	jne    bb30 <main._omp_fn.1+0x260>
    bac2:	c5 2b 5e 55 c0       	vdivsd -0x40(%rbp),%xmm10,%xmm10
    bac7:	c5 79 2e d7          	vucomisd %xmm7,%xmm10
    bacb:	0f 83 9a 05 00 00    	jae    c06b <main._omp_fn.1+0x79b>
    bad1:	48 8b 85 78 ff ff ff 	mov    -0x88(%rbp),%rax
    bad8:	c5 e8 57 d2          	vxorps %xmm2,%xmm2,%xmm2
    badc:	c5 fb 10 00          	vmovsd (%rax),%xmm0
    bae0:	c5 fb 10 48 08       	vmovsd 0x8(%rax),%xmm1
    bae5:	48 8b 45 88          	mov    -0x78(%rbp),%rax
    bae9:	c5 f3 5c c8          	vsubsd %xmm0,%xmm1,%xmm1
    baed:	48 83 c0 04          	add    $0x4,%rax
    baf1:	c4 62 f9 99 d1       	vfmadd132sd %xmm1,%xmm0,%xmm10
    baf6:	c4 c1 6b 5a d2       	vcvtsd2ss %xmm10,%xmm2,%xmm2
    bafb:	c5 fa 11 50 fc       	vmovss %xmm2,-0x4(%rax)
    bb00:	48 89 45 88          	mov    %rax,-0x78(%rbp)
    bb04:	48 3b 85 08 ff ff ff 	cmp    -0xf8(%rbp),%rax
    bb0b:	0f 85 87 fe ff ff    	jne    b998 <main._omp_fn.1+0xc8>
    bb11:	dd d8                	fstp   %st(0)
    bb13:	c5 f8 77             	vzeroupper 
    bb16:	48 81 c4 e0 00 00 00 	add    $0xe0,%rsp
    bb1d:	5b                   	pop    %rbx
    bb1e:	41 5a                	pop    %r10
    bb20:	41 5c                	pop    %r12
    bb22:	41 5d                	pop    %r13
    bb24:	41 5e                	pop    %r14
    bb26:	41 5f                	pop    %r15
    bb28:	5d                   	pop    %rbp
    bb29:	49 8d 62 f8          	lea    -0x8(%r10),%rsp
    bb2d:	c3                   	retq   
    bb2e:	66 90                	xchg   %ax,%ax
    bb30:	c7 45 b8 01 00 00 00 	movl   $0x1,-0x48(%rbp)
    bb37:	49 81 fb 6f 02 00 00 	cmp    $0x26f,%r11
    bb3e:	0f 86 10 ff ff ff    	jbe    ba54 <main._omp_fn.1+0x184>
    bb44:	48 83 7d 90 00       	cmpq   $0x0,-0x70(%rbp)
    bb49:	0f 84 cd 04 00 00    	je     c01c <main._omp_fn.1+0x74c>
    bb4f:	4d 8b 56 08          	mov    0x8(%r14),%r10
    bb53:	4d 8b 0e             	mov    (%r14),%r9
    bb56:	4d 89 d3             	mov    %r10,%r11
    bb59:	49 81 e1 00 00 00 80 	and    $0xffffffff80000000,%r9
    bb60:	41 81 e3 ff ff ff 7f 	and    $0x7fffffff,%r11d
    bb67:	4d 09 d9             	or     %r11,%r9
    bb6a:	4d 89 cb             	mov    %r9,%r11
    bb6d:	49 d1 eb             	shr    %r11
    bb70:	4d 33 9e 68 0c 00 00 	xor    0xc68(%r14),%r11
    bb77:	41 83 e1 01          	and    $0x1,%r9d
    bb7b:	74 08                	je     bb85 <main._omp_fn.1+0x2b5>
    bb7d:	bb df b0 08 99       	mov    $0x9908b0df,%ebx
    bb82:	49 31 db             	xor    %rbx,%r11
    bb85:	48 83 7d 90 01       	cmpq   $0x1,-0x70(%rbp)
    bb8a:	4d 89 1e             	mov    %r11,(%r14)
    bb8d:	0f 84 78 04 00 00    	je     c00b <main._omp_fn.1+0x73b>
    bb93:	4d 8b 4e 10          	mov    0x10(%r14),%r9
    bb97:	49 81 e2 00 00 00 80 	and    $0xffffffff80000000,%r10
    bb9e:	4d 89 cb             	mov    %r9,%r11
    bba1:	41 81 e3 ff ff ff 7f 	and    $0x7fffffff,%r11d
    bba8:	4d 09 da             	or     %r11,%r10
    bbab:	4d 89 d3             	mov    %r10,%r11
    bbae:	49 d1 eb             	shr    %r11
    bbb1:	4d 33 9e 70 0c 00 00 	xor    0xc70(%r14),%r11
    bbb8:	41 83 e2 01          	and    $0x1,%r10d
    bbbc:	74 08                	je     bbc6 <main._omp_fn.1+0x2f6>
    bbbe:	bb df b0 08 99       	mov    $0x9908b0df,%ebx
    bbc3:	49 31 db             	xor    %rbx,%r11
    bbc6:	48 83 7d 90 02       	cmpq   $0x2,-0x70(%rbp)
    bbcb:	4d 89 5e 08          	mov    %r11,0x8(%r14)
    bbcf:	0f 84 6f 04 00 00    	je     c044 <main._omp_fn.1+0x774>
    bbd5:	4d 8b 56 18          	mov    0x18(%r14),%r10
    bbd9:	49 81 e1 00 00 00 80 	and    $0xffffffff80000000,%r9
    bbe0:	41 81 e2 ff ff ff 7f 	and    $0x7fffffff,%r10d
    bbe7:	4d 09 d1             	or     %r10,%r9
    bbea:	4d 89 ca             	mov    %r9,%r10
    bbed:	49 d1 ea             	shr    %r10
    bbf0:	4d 33 96 78 0c 00 00 	xor    0xc78(%r14),%r10
    bbf7:	41 83 e1 01          	and    $0x1,%r9d
    bbfb:	0f 85 36 04 00 00    	jne    c037 <main._omp_fn.1+0x767>
    bc01:	4d 89 56 10          	mov    %r10,0x10(%r14)
    bc05:	41 bd e0 00 00 00    	mov    $0xe0,%r13d
    bc0b:	41 bb 03 00 00 00    	mov    $0x3,%r11d
    bc11:	45 31 c9             	xor    %r9d,%r9d
    bc14:	45 31 d2             	xor    %r10d,%r10d
    bc17:	66 0f 1f 84 00 00 00 	nopw   0x0(%rax,%rax,1)
    bc1e:	00 00 
    bc20:	c4 81 55 db 04 08    	vpand  (%r8,%r9,1),%ymm5,%ymm0
    bc26:	c4 a1 4d db 0c 0a    	vpand  (%rdx,%r9,1),%ymm6,%ymm1
    bc2c:	49 83 c2 01          	add    $0x1,%r10
    bc30:	c5 f5 eb c8          	vpor   %ymm0,%ymm1,%ymm1
    bc34:	c5 fd 73 d1 01       	vpsrlq $0x1,%ymm1,%ymm0
    bc39:	c5 f5 db cc          	vpand  %ymm4,%ymm1,%ymm1
    bc3d:	c4 a1 7d ef 04 0f    	vpxor  (%rdi,%r9,1),%ymm0,%ymm0
    bc43:	c4 c2 75 29 c9       	vpcmpeqq %ymm9,%ymm1,%ymm1
    bc48:	c5 fd ef d3          	vpxor  %ymm3,%ymm0,%ymm2
    bc4c:	c4 e3 6d 4c c0 10    	vpblendvb %ymm1,%ymm0,%ymm2,%ymm0
    bc52:	c4 a1 7d 7f 04 0a    	vmovdqa %ymm0,(%rdx,%r9,1)
    bc58:	49 83 c1 20          	add    $0x20,%r9
    bc5c:	49 83 fa 38          	cmp    $0x38,%r10
    bc60:	75 be                	jne    bc20 <main._omp_fn.1+0x350>
    bc62:	48 81 bd 10 ff ff ff 	cmpq   $0xe0,-0xf0(%rbp)
    bc69:	e0 00 00 00 
    bc6d:	4d 8d 8b e0 00 00 00 	lea    0xe0(%r11),%r9
    bc74:	0f 84 e2 00 00 00    	je     bd5c <main._omp_fn.1+0x48c>
    bc7a:	4b 8d 1c ce          	lea    (%r14,%r9,8),%rbx
    bc7e:	4d 8d 8b e1 00 00 00 	lea    0xe1(%r11),%r9
    bc85:	4c 89 8d 70 ff ff ff 	mov    %r9,-0x90(%rbp)
    bc8c:	4c 8b 4b 08          	mov    0x8(%rbx),%r9
    bc90:	4c 8b 13             	mov    (%rbx),%r10
    bc93:	4d 89 cc             	mov    %r9,%r12
    bc96:	41 81 e4 ff ff ff 7f 	and    $0x7fffffff,%r12d
    bc9d:	49 81 e2 00 00 00 80 	and    $0xffffffff80000000,%r10
    bca4:	4d 09 e2             	or     %r12,%r10
    bca7:	4d 89 d4             	mov    %r10,%r12
    bcaa:	49 d1 ec             	shr    %r12
    bcad:	4c 33 a3 68 0c 00 00 	xor    0xc68(%rbx),%r12
    bcb4:	41 83 e2 01          	and    $0x1,%r10d
    bcb8:	74 09                	je     bcc3 <main._omp_fn.1+0x3f3>
    bcba:	41 ba df b0 08 99    	mov    $0x9908b0df,%r10d
    bcc0:	4d 31 d4             	xor    %r10,%r12
    bcc3:	4c 89 23             	mov    %r12,(%rbx)
    bcc6:	49 81 fd e1 00 00 00 	cmp    $0xe1,%r13
    bccd:	0f 84 89 00 00 00    	je     bd5c <main._omp_fn.1+0x48c>
    bcd3:	48 8b 9d 70 ff ff ff 	mov    -0x90(%rbp),%rbx
    bcda:	49 81 e1 00 00 00 80 	and    $0xffffffff80000000,%r9
    bce1:	49 81 c3 e2 00 00 00 	add    $0xe2,%r11
    bce8:	49 8d 1c de          	lea    (%r14,%rbx,8),%rbx
    bcec:	4c 8b 53 08          	mov    0x8(%rbx),%r10
    bcf0:	4d 89 d4             	mov    %r10,%r12
    bcf3:	41 81 e4 ff ff ff 7f 	and    $0x7fffffff,%r12d
    bcfa:	4d 09 e1             	or     %r12,%r9
    bcfd:	4d 89 cc             	mov    %r9,%r12
    bd00:	49 d1 ec             	shr    %r12
    bd03:	4c 33 a3 68 0c 00 00 	xor    0xc68(%rbx),%r12
    bd0a:	41 83 e1 01          	and    $0x1,%r9d
    bd0e:	74 09                	je     bd19 <main._omp_fn.1+0x449>
    bd10:	41 b9 df b0 08 99    	mov    $0x9908b0df,%r9d
    bd16:	4d 31 cc             	xor    %r9,%r12
    bd19:	4c 89 23             	mov    %r12,(%rbx)
    bd1c:	49 81 fd e2 00 00 00 	cmp    $0xe2,%r13
    bd23:	74 37                	je     bd5c <main._omp_fn.1+0x48c>
    bd25:	4f 8d 0c de          	lea    (%r14,%r11,8),%r9
    bd29:	49 81 e2 00 00 00 80 	and    $0xffffffff80000000,%r10
    bd30:	4d 8b 59 08          	mov    0x8(%r9),%r11
    bd34:	41 81 e3 ff ff ff 7f 	and    $0x7fffffff,%r11d
    bd3b:	4d 09 da             	or     %r11,%r10
    bd3e:	4d 89 d3             	mov    %r10,%r11
    bd41:	49 d1 eb             	shr    %r11
    bd44:	4d 33 99 68 0c 00 00 	xor    0xc68(%r9),%r11
    bd4b:	41 83 e2 01          	and    $0x1,%r10d
    bd4f:	74 08                	je     bd59 <main._omp_fn.1+0x489>
    bd51:	bb df b0 08 99       	mov    $0x9908b0df,%ebx
    bd56:	49 31 db             	xor    %rbx,%r11
    bd59:	4d 89 19             	mov    %r11,(%r9)
    bd5c:	48 83 7d b0 00       	cmpq   $0x0,-0x50(%rbp)
    bd61:	0f 84 8e 02 00 00    	je     bff5 <main._omp_fn.1+0x725>
    bd67:	4d 8b 8e 20 07 00 00 	mov    0x720(%r14),%r9
    bd6e:	4d 8b 96 18 07 00 00 	mov    0x718(%r14),%r10
    bd75:	4d 89 cb             	mov    %r9,%r11
    bd78:	49 81 e2 00 00 00 80 	and    $0xffffffff80000000,%r10
    bd7f:	41 81 e3 ff ff ff 7f 	and    $0x7fffffff,%r11d
    bd86:	4d 09 da             	or     %r11,%r10
    bd89:	4d 89 d3             	mov    %r10,%r11
    bd8c:	49 d1 eb             	shr    %r11
    bd8f:	4d 33 1e             	xor    (%r14),%r11
    bd92:	41 83 e2 01          	and    $0x1,%r10d
    bd96:	74 08                	je     bda0 <main._omp_fn.1+0x4d0>
    bd98:	bb df b0 08 99       	mov    $0x9908b0df,%ebx
    bd9d:	49 31 db             	xor    %rbx,%r11
    bda0:	48 83 7d b0 01       	cmpq   $0x1,-0x50(%rbp)
    bda5:	4d 89 9e 18 07 00 00 	mov    %r11,0x718(%r14)
    bdac:	0f 84 2d 02 00 00    	je     bfdf <main._omp_fn.1+0x70f>
    bdb2:	4d 8b 96 28 07 00 00 	mov    0x728(%r14),%r10
    bdb9:	49 81 e1 00 00 00 80 	and    $0xffffffff80000000,%r9
    bdc0:	4d 89 d3             	mov    %r10,%r11
    bdc3:	41 81 e3 ff ff ff 7f 	and    $0x7fffffff,%r11d
    bdca:	4d 09 d9             	or     %r11,%r9
    bdcd:	4d 89 cb             	mov    %r9,%r11
    bdd0:	49 d1 eb             	shr    %r11
    bdd3:	4d 33 5e 08          	xor    0x8(%r14),%r11
    bdd7:	41 83 e1 01          	and    $0x1,%r9d
    bddb:	74 08                	je     bde5 <main._omp_fn.1+0x515>
    bddd:	bb df b0 08 99       	mov    $0x9908b0df,%ebx
    bde2:	49 31 db             	xor    %rbx,%r11
    bde5:	48 83 7d b0 02       	cmpq   $0x2,-0x50(%rbp)
    bdea:	4d 89 9e 20 07 00 00 	mov    %r11,0x720(%r14)
    bdf1:	0f 84 5e 02 00 00    	je     c055 <main._omp_fn.1+0x785>
    bdf7:	4d 8b 8e 30 07 00 00 	mov    0x730(%r14),%r9
    bdfe:	49 81 e2 00 00 00 80 	and    $0xffffffff80000000,%r10
    be05:	41 81 e1 ff ff ff 7f 	and    $0x7fffffff,%r9d
    be0c:	4d 09 ca             	or     %r9,%r10
    be0f:	4d 89 d1             	mov    %r10,%r9
    be12:	49 d1 e9             	shr    %r9
    be15:	4d 33 4e 10          	xor    0x10(%r14),%r9
    be19:	41 83 e2 01          	and    $0x1,%r10d
    be1d:	0f 85 07 02 00 00    	jne    c02a <main._omp_fn.1+0x75a>
    be23:	48 c7 85 70 ff ff ff 	movq   $0x189,-0x90(%rbp)
    be2a:	89 01 00 00 
    be2e:	4d 89 8e 28 07 00 00 	mov    %r9,0x728(%r14)
    be35:	41 b9 e6 00 00 00    	mov    $0xe6,%r9d
    be3b:	45 31 d2             	xor    %r10d,%r10d
    be3e:	45 31 db             	xor    %r11d,%r11d
    be41:	0f 1f 80 00 00 00 00 	nopl   0x0(%rax)
    be48:	c4 a1 55 db 04 16    	vpand  (%rsi,%r10,1),%ymm5,%ymm0
    be4e:	c4 a1 4d db 0c 10    	vpand  (%rax,%r10,1),%ymm6,%ymm1
    be54:	49 83 c3 01          	add    $0x1,%r11
    be58:	c5 f5 eb c8          	vpor   %ymm0,%ymm1,%ymm1
    be5c:	c5 fd 73 d1 01       	vpsrlq $0x1,%ymm1,%ymm0
    be61:	c5 f5 db cc          	vpand  %ymm4,%ymm1,%ymm1
    be65:	c4 a1 7d ef 04 11    	vpxor  (%rcx,%r10,1),%ymm0,%ymm0
    be6b:	c4 c2 75 29 c9       	vpcmpeqq %ymm9,%ymm1,%ymm1
    be70:	c5 fd ef d3          	vpxor  %ymm3,%ymm0,%ymm2
    be74:	c4 e3 6d 4c c0 10    	vpblendvb %ymm1,%ymm0,%ymm2,%ymm0
    be7a:	c4 a1 7d 7f 04 10    	vmovdqa %ymm0,(%rax,%r10,1)
    be80:	49 83 c2 20          	add    $0x20,%r10
    be84:	4d 39 fb             	cmp    %r15,%r11
    be87:	72 bf                	jb     be48 <main._omp_fn.1+0x578>
    be89:	48 8b 9d 30 ff ff ff 	mov    -0xd0(%rbp),%rbx
    be90:	49 01 d9             	add    %rbx,%r9
    be93:	48 39 9d 50 ff ff ff 	cmp    %rbx,-0xb0(%rbp)
    be9a:	0f 84 ce 00 00 00    	je     bf6e <main._omp_fn.1+0x69e>
    bea0:	4b 8d 1c ce          	lea    (%r14,%r9,8),%rbx
    bea4:	4d 8d 69 01          	lea    0x1(%r9),%r13
    bea8:	4c 8b 53 08          	mov    0x8(%rbx),%r10
    beac:	4c 8b 1b             	mov    (%rbx),%r11
    beaf:	4d 89 d4             	mov    %r10,%r12
    beb2:	49 81 e3 00 00 00 80 	and    $0xffffffff80000000,%r11
    beb9:	41 81 e4 ff ff ff 7f 	and    $0x7fffffff,%r12d
    bec0:	4d 09 e3             	or     %r12,%r11
    bec3:	4d 89 dc             	mov    %r11,%r12
    bec6:	49 d1 ec             	shr    %r12
    bec9:	4c 33 a3 e8 f8 ff ff 	xor    -0x718(%rbx),%r12
    bed0:	41 83 e3 01          	and    $0x1,%r11d
    bed4:	74 09                	je     bedf <main._omp_fn.1+0x60f>
    bed6:	41 bb df b0 08 99    	mov    $0x9908b0df,%r11d
    bedc:	4d 31 dc             	xor    %r11,%r12
    bedf:	4c 89 23             	mov    %r12,(%rbx)
    bee2:	48 8b 9d 70 ff ff ff 	mov    -0x90(%rbp),%rbx
    bee9:	48 03 5d 80          	add    -0x80(%rbp),%rbx
    beed:	74 7f                	je     bf6e <main._omp_fn.1+0x69e>
    beef:	4f 8d 24 ee          	lea    (%r14,%r13,8),%r12
    bef3:	49 81 e2 00 00 00 80 	and    $0xffffffff80000000,%r10
    befa:	49 83 c1 02          	add    $0x2,%r9
    befe:	4d 8b 5c 24 08       	mov    0x8(%r12),%r11
    bf03:	4d 89 dd             	mov    %r11,%r13
    bf06:	41 81 e5 ff ff ff 7f 	and    $0x7fffffff,%r13d
    bf0d:	4d 09 ea             	or     %r13,%r10
    bf10:	4d 89 d5             	mov    %r10,%r13
    bf13:	49 d1 ed             	shr    %r13
    bf16:	4d 33 ac 24 e8 f8 ff 	xor    -0x718(%r12),%r13
    bf1d:	ff 
    bf1e:	41 83 e2 01          	and    $0x1,%r10d
    bf22:	74 09                	je     bf2d <main._omp_fn.1+0x65d>
    bf24:	41 ba df b0 08 99    	mov    $0x9908b0df,%r10d
    bf2a:	4d 31 d5             	xor    %r10,%r13
    bf2d:	4d 89 2c 24          	mov    %r13,(%r12)
    bf31:	48 83 fb 01          	cmp    $0x1,%rbx
    bf35:	74 37                	je     bf6e <main._omp_fn.1+0x69e>
    bf37:	4f 8d 0c ce          	lea    (%r14,%r9,8),%r9
    bf3b:	49 81 e3 00 00 00 80 	and    $0xffffffff80000000,%r11
    bf42:	4d 8b 51 08          	mov    0x8(%r9),%r10
    bf46:	41 81 e2 ff ff ff 7f 	and    $0x7fffffff,%r10d
    bf4d:	4d 09 d3             	or     %r10,%r11
    bf50:	4d 89 da             	mov    %r11,%r10
    bf53:	49 d1 ea             	shr    %r10
    bf56:	4d 33 91 e8 f8 ff ff 	xor    -0x718(%r9),%r10
    bf5d:	41 83 e3 01          	and    $0x1,%r11d
    bf61:	74 08                	je     bf6b <main._omp_fn.1+0x69b>
    bf63:	bb df b0 08 99       	mov    $0x9908b0df,%ebx
    bf68:	49 31 da             	xor    %rbx,%r10
    bf6b:	4d 89 11             	mov    %r10,(%r9)
    bf6e:	4d 8b 96 78 13 00 00 	mov    0x1378(%r14),%r10
    bf75:	4d 8b 0e             	mov    (%r14),%r9
    bf78:	49 81 e2 00 00 00 80 	and    $0xffffffff80000000,%r10
    bf7f:	41 81 e1 ff ff ff 7f 	and    $0x7fffffff,%r9d
    bf86:	4d 09 d1             	or     %r10,%r9
    bf89:	4d 89 ca             	mov    %r9,%r10
    bf8c:	49 d1 ea             	shr    %r10
    bf8f:	4d 33 96 60 0c 00 00 	xor    0xc60(%r14),%r10
    bf96:	41 83 e1 01          	and    $0x1,%r9d
    bf9a:	74 08                	je     bfa4 <main._omp_fn.1+0x6d4>
    bf9c:	bb df b0 08 99       	mov    $0x9908b0df,%ebx
    bfa1:	49 31 da             	xor    %rbx,%r10
    bfa4:	4d 89 96 78 13 00 00 	mov    %r10,0x1378(%r14)
    bfab:	41 bb 01 00 00 00    	mov    $0x1,%r11d
    bfb1:	45 31 c9             	xor    %r9d,%r9d
    bfb4:	e9 a2 fa ff ff       	jmpq   ba5b <main._omp_fn.1+0x18b>
    bfb9:	0f 1f 80 00 00 00 00 	nopl   0x0(%rax)
    bfc0:	4c 89 cb             	mov    %r9,%rbx
    bfc3:	41 83 e1 01          	and    $0x1,%r9d
    bfc7:	c5 f9 57 c0          	vxorpd %xmm0,%xmm0,%xmm0
    bfcb:	48 d1 eb             	shr    %rbx
    bfce:	4c 09 cb             	or     %r9,%rbx
    bfd1:	c4 e1 fb 2a c3       	vcvtsi2sd %rbx,%xmm0,%xmm0
    bfd6:	c5 fb 58 c0          	vaddsd %xmm0,%xmm0,%xmm0
    bfda:	e9 cf fa ff ff       	jmpq   baae <main._omp_fn.1+0x1de>
    bfdf:	48 c7 85 70 ff ff ff 	movq   $0x18b,-0x90(%rbp)
    bfe6:	8b 01 00 00 
    bfea:	41 b9 e4 00 00 00    	mov    $0xe4,%r9d
    bff0:	e9 46 fe ff ff       	jmpq   be3b <main._omp_fn.1+0x56b>
    bff5:	48 c7 85 70 ff ff ff 	movq   $0x18c,-0x90(%rbp)
    bffc:	8c 01 00 00 
    c000:	41 b9 e3 00 00 00    	mov    $0xe3,%r9d
    c006:	e9 30 fe ff ff       	jmpq   be3b <main._omp_fn.1+0x56b>
    c00b:	41 bd e2 00 00 00    	mov    $0xe2,%r13d
    c011:	41 bb 01 00 00 00    	mov    $0x1,%r11d
    c017:	e9 f5 fb ff ff       	jmpq   bc11 <main._omp_fn.1+0x341>
    c01c:	41 bd e3 00 00 00    	mov    $0xe3,%r13d
    c022:	45 31 db             	xor    %r11d,%r11d
    c025:	e9 e7 fb ff ff       	jmpq   bc11 <main._omp_fn.1+0x341>
    c02a:	bb df b0 08 99       	mov    $0x9908b0df,%ebx
    c02f:	49 31 d9             	xor    %rbx,%r9
    c032:	e9 ec fd ff ff       	jmpq   be23 <main._omp_fn.1+0x553>
    c037:	bb df b0 08 99       	mov    $0x9908b0df,%ebx
    c03c:	49 31 da             	xor    %rbx,%r10
    c03f:	e9 bd fb ff ff       	jmpq   bc01 <main._omp_fn.1+0x331>
    c044:	41 bd e1 00 00 00    	mov    $0xe1,%r13d
    c04a:	41 bb 02 00 00 00    	mov    $0x2,%r11d
    c050:	e9 bc fb ff ff       	jmpq   bc11 <main._omp_fn.1+0x341>
    c055:	48 c7 85 70 ff ff ff 	movq   $0x18a,-0x90(%rbp)
    c05c:	8a 01 00 00 
    c060:	41 b9 e5 00 00 00    	mov    $0xe5,%r9d
    c066:	e9 d0 fd ff ff       	jmpq   be3b <main._omp_fn.1+0x56b>
    c06b:	d9 5d b0             	fstps  -0x50(%rbp)
    c06e:	c5 f1 57 c9          	vxorpd %xmm1,%xmm1,%xmm1
    c072:	c5 f9 28 c7          	vmovapd %xmm7,%xmm0
    c076:	c5 fd 7f 9d 10 ff ff 	vmovdqa %ymm3,-0xf0(%rbp)
    c07d:	ff 
    c07e:	c5 fd 7f a5 30 ff ff 	vmovdqa %ymm4,-0xd0(%rbp)
    c085:	ff 
    c086:	c5 fd 7f ad 50 ff ff 	vmovdqa %ymm5,-0xb0(%rbp)
    c08d:	ff 
    c08e:	c5 fd 7f 75 90       	vmovdqa %ymm6,-0x70(%rbp)
    c093:	c5 7b 11 45 b8       	vmovsd %xmm8,-0x48(%rbp)
    c098:	c5 fb 11 7d c0       	vmovsd %xmm7,-0x40(%rbp)
    c09d:	c5 f8 77             	vzeroupper 
    c0a0:	e8 9b 6c ff ff       	callq  2d40 <nextafter@plt>
    c0a5:	48 8b 85 78 ff ff ff 	mov    -0x88(%rbp),%rax
    c0ac:	c5 c0 57 ff          	vxorps %xmm7,%xmm7,%xmm7
    c0b0:	c5 fb 10 08          	vmovsd (%rax),%xmm1
    c0b4:	c5 fb 10 50 08       	vmovsd 0x8(%rax),%xmm2
    c0b9:	48 8b 45 88          	mov    -0x78(%rbp),%rax
    c0bd:	c5 eb 5c d1          	vsubsd %xmm1,%xmm2,%xmm2
    c0c1:	48 83 c0 04          	add    $0x4,%rax
    c0c5:	c4 e2 f9 b9 ca       	vfmadd231sd %xmm2,%xmm0,%xmm1
    c0ca:	c5 c3 5a f9          	vcvtsd2ss %xmm1,%xmm7,%xmm7
    c0ce:	c5 fa 11 78 fc       	vmovss %xmm7,-0x4(%rax)
    c0d3:	48 89 45 88          	mov    %rax,-0x78(%rbp)
    c0d7:	48 3b 85 08 ff ff ff 	cmp    -0xf8(%rbp),%rax
    c0de:	0f 84 32 fa ff ff    	je     bb16 <main._omp_fn.1+0x246>
    c0e4:	48 8b 85 00 ff ff ff 	mov    -0x100(%rbp),%rax
    c0eb:	c5 fb 10 7d c0       	vmovsd -0x40(%rbp),%xmm7
    c0f0:	c5 7b 10 45 b8       	vmovsd -0x48(%rbp),%xmm8
    c0f5:	d9 45 b0             	flds   -0x50(%rbp)
    c0f8:	4c 8b 30             	mov    (%rax),%r14
    c0fb:	48 8b 40 08          	mov    0x8(%rax),%rax
    c0ff:	c5 fd 6f 75 90       	vmovdqa -0x70(%rbp),%ymm6
    c104:	c5 fd 6f ad 50 ff ff 	vmovdqa -0xb0(%rbp),%ymm5
    c10b:	ff 
    c10c:	48 89 85 78 ff ff ff 	mov    %rax,-0x88(%rbp)
    c113:	c5 fd 6f a5 30 ff ff 	vmovdqa -0xd0(%rbp),%ymm4
    c11a:	ff 
    c11b:	c5 fd 6f 9d 10 ff ff 	vmovdqa -0xf0(%rbp),%ymm3
    c122:	ff 
    c123:	e9 70 f8 ff ff       	jmpq   b998 <main._omp_fn.1+0xc8>
    c128:	0f 1f 84 00 00 00 00 	nopl   0x0(%rax,%rax,1)
    c12f:	00 

000000000000c130 <_ZN6matrix6sparse9CSRMatrixIifEC2ERKNSt7__cxx1112basic_stringIcSt11char_traitsIcESaIcEEEN4util8PlatformE._omp_fn.6>:
    c130:	41 54                	push   %r12
    c132:	55                   	push   %rbp
    c133:	53                   	push   %rbx
    c134:	48 8b 1f             	mov    (%rdi),%rbx
    c137:	e8 14 6f ff ff       	callq  3050 <omp_get_num_threads@plt>
    c13c:	89 c5                	mov    %eax,%ebp
    c13e:	e8 ed 6d ff ff       	callq  2f30 <omp_get_thread_num@plt>
    c143:	41 89 c4             	mov    %eax,%r12d
    c146:	8b 43 0c             	mov    0xc(%rbx),%eax
    c149:	83 c0 01             	add    $0x1,%eax
    c14c:	99                   	cltd   
    c14d:	f7 fd                	idiv   %ebp
    c14f:	41 39 d4             	cmp    %edx,%r12d
    c152:	7d 05                	jge    c159 <_ZN6matrix6sparse9CSRMatrixIifEC2ERKNSt7__cxx1112basic_stringIcSt11char_traitsIcESaIcEEEN4util8PlatformE._omp_fn.6+0x29>
    c154:	83 c0 01             	add    $0x1,%eax
    c157:	31 d2                	xor    %edx,%edx
    c159:	89 c1                	mov    %eax,%ecx
    c15b:	41 0f af cc          	imul   %r12d,%ecx
    c15f:	01 ca                	add    %ecx,%edx
    c161:	01 d0                	add    %edx,%eax
    c163:	39 c2                	cmp    %eax,%edx
    c165:	7d 2d                	jge    c194 <_ZN6matrix6sparse9CSRMatrixIifEC2ERKNSt7__cxx1112basic_stringIcSt11char_traitsIcESaIcEEEN4util8PlatformE._omp_fn.6+0x64>
    c167:	29 d0                	sub    %edx,%eax
    c169:	48 63 f2             	movslq %edx,%rsi
    c16c:	83 e8 01             	sub    $0x1,%eax
    c16f:	48 8d 0c b5 00 00 00 	lea    0x0(,%rsi,4),%rcx
    c176:	00 
    c177:	48 8d 54 06 01       	lea    0x1(%rsi,%rax,1),%rdx
    c17c:	48 c1 e2 02          	shl    $0x2,%rdx
    c180:	48 8b 43 20          	mov    0x20(%rbx),%rax
    c184:	c7 04 08 00 00 00 00 	movl   $0x0,(%rax,%rcx,1)
    c18b:	48 83 c1 04          	add    $0x4,%rcx
    c18f:	48 39 ca             	cmp    %rcx,%rdx
    c192:	75 ec                	jne    c180 <_ZN6matrix6sparse9CSRMatrixIifEC2ERKNSt7__cxx1112basic_stringIcSt11char_traitsIcESaIcEEEN4util8PlatformE._omp_fn.6+0x50>
    c194:	e8 87 6e ff ff       	callq  3020 <GOMP_barrier@plt>
    c199:	8b 43 14             	mov    0x14(%rbx),%eax
    c19c:	99                   	cltd   
    c19d:	f7 fd                	idiv   %ebp
    c19f:	41 39 d4             	cmp    %edx,%r12d
    c1a2:	7d 05                	jge    c1a9 <_ZN6matrix6sparse9CSRMatrixIifEC2ERKNSt7__cxx1112basic_stringIcSt11char_traitsIcESaIcEEEN4util8PlatformE._omp_fn.6+0x79>
    c1a4:	83 c0 01             	add    $0x1,%eax
    c1a7:	31 d2                	xor    %edx,%edx
    c1a9:	44 0f af e0          	imul   %eax,%r12d
    c1ad:	44 01 e2             	add    %r12d,%edx
    c1b0:	01 d0                	add    %edx,%eax
    c1b2:	39 c2                	cmp    %eax,%edx
    c1b4:	7d 39                	jge    c1ef <_ZN6matrix6sparse9CSRMatrixIifEC2ERKNSt7__cxx1112basic_stringIcSt11char_traitsIcESaIcEEEN4util8PlatformE._omp_fn.6+0xbf>
    c1b6:	29 d0                	sub    %edx,%eax
    c1b8:	48 63 f2             	movslq %edx,%rsi
    c1bb:	83 e8 01             	sub    $0x1,%eax
    c1be:	48 8d 0c b5 00 00 00 	lea    0x0(,%rsi,4),%rcx
    c1c5:	00 
    c1c6:	48 8d 54 06 01       	lea    0x1(%rsi,%rax,1),%rdx
    c1cb:	48 c1 e2 02          	shl    $0x2,%rdx
    c1cf:	90                   	nop
    c1d0:	48 8b 43 28          	mov    0x28(%rbx),%rax
    c1d4:	c7 04 08 00 00 00 00 	movl   $0x0,(%rax,%rcx,1)
    c1db:	48 8b 43 30          	mov    0x30(%rbx),%rax
    c1df:	c7 04 08 00 00 00 00 	movl   $0x0,(%rax,%rcx,1)
    c1e6:	48 83 c1 04          	add    $0x4,%rcx
    c1ea:	48 39 d1             	cmp    %rdx,%rcx
    c1ed:	75 e1                	jne    c1d0 <_ZN6matrix6sparse9CSRMatrixIifEC2ERKNSt7__cxx1112basic_stringIcSt11char_traitsIcESaIcEEEN4util8PlatformE._omp_fn.6+0xa0>
    c1ef:	5b                   	pop    %rbx
    c1f0:	5d                   	pop    %rbp
    c1f1:	41 5c                	pop    %r12
    c1f3:	c3                   	retq   
    c1f4:	66 90                	xchg   %ax,%ax
    c1f6:	66 2e 0f 1f 84 00 00 	nopw   %cs:0x0(%rax,%rax,1)
    c1fd:	00 00 00 

000000000000c200 <_ZNSt7__cxx1112basic_stringIcSt11char_traitsIcESaIcEE12_M_constructIPKcEEvT_S8_St20forward_iterator_tag.isra.42>:
    c200:	41 54                	push   %r12
    c202:	49 89 f4             	mov    %rsi,%r12
    c205:	55                   	push   %rbp
    c206:	48 89 fd             	mov    %rdi,%rbp
    c209:	53                   	push   %rbx
    c20a:	48 83 ec 10          	sub    $0x10,%rsp
    c20e:	64 48 8b 04 25 28 00 	mov    %fs:0x28,%rax
    c215:	00 00 
    c217:	48 89 44 24 08       	mov    %rax,0x8(%rsp)
    c21c:	31 c0                	xor    %eax,%eax
    c21e:	48 85 f6             	test   %rsi,%rsi
    c221:	75 09                	jne    c22c <_ZNSt7__cxx1112basic_stringIcSt11char_traitsIcESaIcEE12_M_constructIPKcEEvT_S8_St20forward_iterator_tag.isra.42+0x2c>
    c223:	48 85 d2             	test   %rdx,%rdx
    c226:	0f 85 81 00 00 00    	jne    c2ad <_ZNSt7__cxx1112basic_stringIcSt11char_traitsIcESaIcEE12_M_constructIPKcEEvT_S8_St20forward_iterator_tag.isra.42+0xad>
    c22c:	48 89 d3             	mov    %rdx,%rbx
    c22f:	4c 29 e3             	sub    %r12,%rbx
    c232:	48 89 1c 24          	mov    %rbx,(%rsp)
    c236:	48 83 fb 0f          	cmp    $0xf,%rbx
    c23a:	77 3d                	ja     c279 <_ZNSt7__cxx1112basic_stringIcSt11char_traitsIcESaIcEE12_M_constructIPKcEEvT_S8_St20forward_iterator_tag.isra.42+0x79>
    c23c:	48 8b 55 00          	mov    0x0(%rbp),%rdx
    c240:	48 89 d0             	mov    %rdx,%rax
    c243:	48 83 fb 01          	cmp    $0x1,%rbx
    c247:	75 5d                	jne    c2a6 <_ZNSt7__cxx1112basic_stringIcSt11char_traitsIcESaIcEE12_M_constructIPKcEEvT_S8_St20forward_iterator_tag.isra.42+0xa6>
    c249:	41 0f b6 04 24       	movzbl (%r12),%eax
    c24e:	88 02                	mov    %al,(%rdx)
    c250:	48 8b 55 00          	mov    0x0(%rbp),%rdx
    c254:	48 8b 04 24          	mov    (%rsp),%rax
    c258:	48 89 45 08          	mov    %rax,0x8(%rbp)
    c25c:	c6 04 02 00          	movb   $0x0,(%rdx,%rax,1)
    c260:	48 8b 44 24 08       	mov    0x8(%rsp),%rax
    c265:	64 48 33 04 25 28 00 	xor    %fs:0x28,%rax
    c26c:	00 00 
    c26e:	75 49                	jne    c2b9 <_ZNSt7__cxx1112basic_stringIcSt11char_traitsIcESaIcEE12_M_constructIPKcEEvT_S8_St20forward_iterator_tag.isra.42+0xb9>
    c270:	48 83 c4 10          	add    $0x10,%rsp
    c274:	5b                   	pop    %rbx
    c275:	5d                   	pop    %rbp
    c276:	41 5c                	pop    %r12
    c278:	c3                   	retq   
    c279:	31 d2                	xor    %edx,%edx
    c27b:	48 89 e6             	mov    %rsp,%rsi
    c27e:	48 89 ef             	mov    %rbp,%rdi
    c281:	e8 8a 6d ff ff       	callq  3010 <_ZNSt7__cxx1112basic_stringIcSt11char_traitsIcESaIcEE9_M_createERmm@plt>
    c286:	48 8b 14 24          	mov    (%rsp),%rdx
    c28a:	48 89 45 00          	mov    %rax,0x0(%rbp)
    c28e:	48 89 55 10          	mov    %rdx,0x10(%rbp)
    c292:	48 89 da             	mov    %rbx,%rdx
    c295:	4c 89 e6             	mov    %r12,%rsi
    c298:	48 89 c7             	mov    %rax,%rdi
    c29b:	e8 d0 6a ff ff       	callq  2d70 <memcpy@plt>
    c2a0:	48 8b 55 00          	mov    0x0(%rbp),%rdx
    c2a4:	eb ae                	jmp    c254 <_ZNSt7__cxx1112basic_stringIcSt11char_traitsIcESaIcEE12_M_constructIPKcEEvT_S8_St20forward_iterator_tag.isra.42+0x54>
    c2a6:	48 85 db             	test   %rbx,%rbx
    c2a9:	74 a9                	je     c254 <_ZNSt7__cxx1112basic_stringIcSt11char_traitsIcESaIcEE12_M_constructIPKcEEvT_S8_St20forward_iterator_tag.isra.42+0x54>
    c2ab:	eb e5                	jmp    c292 <_ZNSt7__cxx1112basic_stringIcSt11char_traitsIcESaIcEE12_M_constructIPKcEEvT_S8_St20forward_iterator_tag.isra.42+0x92>
    c2ad:	48 8d 3d 4c 05 00 00 	lea    0x54c(%rip),%rdi        # c800 <_IO_stdin_used+0x140>
    c2b4:	e8 67 6a ff ff       	callq  2d20 <_ZSt19__throw_logic_errorPKc@plt>
    c2b9:	e8 42 6b ff ff       	callq  2e00 <__stack_chk_fail@plt>
    c2be:	66 90                	xchg   %ax,%ax

000000000000c2c0 <main._omp_fn.2>:
    c2c0:	41 57                	push   %r15
    c2c2:	41 56                	push   %r14
    c2c4:	41 55                	push   %r13
    c2c6:	41 54                	push   %r12
    c2c8:	55                   	push   %rbp
    c2c9:	53                   	push   %rbx
    c2ca:	48 89 fb             	mov    %rdi,%rbx
    c2cd:	48 83 ec 18          	sub    $0x18,%rsp
    c2d1:	e8 5a 6c ff ff       	callq  2f30 <omp_get_thread_num@plt>
    c2d6:	85 c0                	test   %eax,%eax
    c2d8:	74 16                	je     c2f0 <main._omp_fn.2+0x30>
    c2da:	48 83 c4 18          	add    $0x18,%rsp
    c2de:	5b                   	pop    %rbx
    c2df:	5d                   	pop    %rbp
    c2e0:	41 5c                	pop    %r12
    c2e2:	41 5d                	pop    %r13
    c2e4:	41 5e                	pop    %r14
    c2e6:	41 5f                	pop    %r15
    c2e8:	c3                   	retq   
    c2e9:	0f 1f 80 00 00 00 00 	nopl   0x0(%rax)
    c2f0:	c5 fb 10 4b 20       	vmovsd 0x20(%rbx),%xmm1
    c2f5:	c5 fb 10 53 18       	vmovsd 0x18(%rbx),%xmm2
    c2fa:	4c 8d 2d 1f 4d 20 00 	lea    0x204d1f(%rip),%r13        # 211020 <_ZSt4cout@@GLIBCXX_3.4>
    c301:	ba 08 00 00 00       	mov    $0x8,%edx
    c306:	48 8b 05 13 4d 20 00 	mov    0x204d13(%rip),%rax        # 211020 <_ZSt4cout@@GLIBCXX_3.4>
    c30d:	48 8d 35 4c 10 00 00 	lea    0x104c(%rip),%rsi        # d360 <_ZTSSt5_BindIFMN6matrix6sparse9CSRMatrixIidEEFvPdPKdEPS3_St12_PlaceholderILi1EESA_ILi2EEEE+0x1c0>
    c314:	4c 89 ef             	mov    %r13,%rdi
    c317:	8b 6b 30             	mov    0x30(%rbx),%ebp
    c31a:	c5 fb 10 5b 10       	vmovsd 0x10(%rbx),%xmm3
    c31f:	c4 c1 f9 7e cf       	vmovq  %xmm1,%r15
    c324:	c5 fb 11 14 24       	vmovsd %xmm2,(%rsp)
    c329:	4c 8b 63 28          	mov    0x28(%rbx),%r12
    c32d:	48 8b 40 e8          	mov    -0x18(%rax),%rax
    c331:	c5 fb 11 5c 24 08    	vmovsd %xmm3,0x8(%rsp)
    c337:	49 c7 44 05 08 04 00 	movq   $0x4,0x8(%r13,%rax,1)
    c33e:	00 00 
    c340:	e8 db 6a ff ff       	callq  2e20 <_ZSt16__ostream_insertIcSt11char_traitsIcEERSt13basic_ostreamIT_T0_ES6_PKS3_l@plt>
    c345:	48 8b 03             	mov    (%rbx),%rax
    c348:	48 8b 38             	mov    (%rax),%rdi
    c34b:	e8 90 6b ff ff       	callq  2ee0 <basename@plt>
    c350:	49 89 c6             	mov    %rax,%r14
    c353:	48 85 c0             	test   %rax,%rax
    c356:	0f 84 c4 01 00 00    	je     c520 <main._omp_fn.2+0x260>
    c35c:	48 89 c7             	mov    %rax,%rdi
    c35f:	e8 2c 69 ff ff       	callq  2c90 <strlen@plt>
    c364:	4c 89 f6             	mov    %r14,%rsi
    c367:	4c 89 ef             	mov    %r13,%rdi
    c36a:	48 89 c2             	mov    %rax,%rdx
    c36d:	e8 ae 6a ff ff       	callq  2e20 <_ZSt16__ostream_insertIcSt11char_traitsIcEERSt13basic_ostreamIT_T0_ES6_PKS3_l@plt>
    c372:	ba 09 00 00 00       	mov    $0x9,%edx
    c377:	48 8d 35 eb 0f 00 00 	lea    0xfeb(%rip),%rsi        # d369 <_ZTSSt5_BindIFMN6matrix6sparse9CSRMatrixIidEEFvPdPKdEPS3_St12_PlaceholderILi1EESA_ILi2EEEE+0x1c9>
    c37e:	48 8d 3d 9b 4c 20 00 	lea    0x204c9b(%rip),%rdi        # 211020 <_ZSt4cout@@GLIBCXX_3.4>
    c385:	e8 96 6a ff ff       	callq  2e20 <_ZSt16__ostream_insertIcSt11char_traitsIcEERSt13basic_ostreamIT_T0_ES6_PKS3_l@plt>
    c38a:	48 8b 43 08          	mov    0x8(%rbx),%rax
    c38e:	48 8d 3d 8b 4c 20 00 	lea    0x204c8b(%rip),%rdi        # 211020 <_ZSt4cout@@GLIBCXX_3.4>
    c395:	48 8b 50 08          	mov    0x8(%rax),%rdx
    c399:	48 8b 30             	mov    (%rax),%rsi
    c39c:	e8 7f 6a ff ff       	callq  2e20 <_ZSt16__ostream_insertIcSt11char_traitsIcEERSt13basic_ostreamIT_T0_ES6_PKS3_l@plt>
    c3a1:	ba 0f 00 00 00       	mov    $0xf,%edx
    c3a6:	48 8d 35 c6 0f 00 00 	lea    0xfc6(%rip),%rsi        # d373 <_ZTSSt5_BindIFMN6matrix6sparse9CSRMatrixIidEEFvPdPKdEPS3_St12_PlaceholderILi1EESA_ILi2EEEE+0x1d3>
    c3ad:	48 89 c7             	mov    %rax,%rdi
    c3b0:	48 89 c3             	mov    %rax,%rbx
    c3b3:	e8 68 6a ff ff       	callq  2e20 <_ZSt16__ostream_insertIcSt11char_traitsIcEERSt13basic_ostreamIT_T0_ES6_PKS3_l@plt>
    c3b8:	c5 fb 10 04 24       	vmovsd (%rsp),%xmm0
    c3bd:	48 89 df             	mov    %rbx,%rdi
    c3c0:	e8 7b 6b ff ff       	callq  2f40 <_ZNSo9_M_insertIdEERSoT_@plt>
    c3c5:	ba 09 00 00 00       	mov    $0x9,%edx
    c3ca:	48 8d 35 b2 0f 00 00 	lea    0xfb2(%rip),%rsi        # d383 <_ZTSSt5_BindIFMN6matrix6sparse9CSRMatrixIidEEFvPdPKdEPS3_St12_PlaceholderILi1EESA_ILi2EEEE+0x1e3>
    c3d1:	48 89 c7             	mov    %rax,%rdi
    c3d4:	48 89 c3             	mov    %rax,%rbx
    c3d7:	e8 44 6a ff ff       	callq  2e20 <_ZSt16__ostream_insertIcSt11char_traitsIcEERSt13basic_ostreamIT_T0_ES6_PKS3_l@plt>
    c3dc:	c5 f9 57 c0          	vxorpd %xmm0,%xmm0,%xmm0
    c3e0:	c5 fb 10 64 24 08    	vmovsd 0x8(%rsp),%xmm4
    c3e6:	48 89 df             	mov    %rbx,%rdi
    c3e9:	c4 e1 fb 2a c5       	vcvtsi2sd %rbp,%xmm0,%xmm0
    c3ee:	c5 db 5e c0          	vdivsd %xmm0,%xmm4,%xmm0
    c3f2:	e8 49 6b ff ff       	callq  2f40 <_ZNSo9_M_insertIdEERSoT_@plt>
    c3f7:	ba 0b 00 00 00       	mov    $0xb,%edx
    c3fc:	48 8d 35 8a 0f 00 00 	lea    0xf8a(%rip),%rsi        # d38d <_ZTSSt5_BindIFMN6matrix6sparse9CSRMatrixIidEEFvPdPKdEPS3_St12_PlaceholderILi1EESA_ILi2EEEE+0x1ed>
    c403:	48 89 c3             	mov    %rax,%rbx
    c406:	48 89 c7             	mov    %rax,%rdi
    c409:	e8 12 6a ff ff       	callq  2e20 <_ZSt16__ostream_insertIcSt11char_traitsIcEERSt13basic_ostreamIT_T0_ES6_PKS3_l@plt>
    c40e:	c4 c1 f9 6e c7       	vmovq  %r15,%xmm0
    c413:	48 89 df             	mov    %rbx,%rdi
    c416:	e8 25 6b ff ff       	callq  2f40 <_ZNSo9_M_insertIdEERSoT_@plt>
    c41b:	ba 0a 00 00 00       	mov    $0xa,%edx
    c420:	48 8d 35 72 0f 00 00 	lea    0xf72(%rip),%rsi        # d399 <_ZTSSt5_BindIFMN6matrix6sparse9CSRMatrixIidEEFvPdPKdEPS3_St12_PlaceholderILi1EESA_ILi2EEEE+0x1f9>
    c427:	48 89 c7             	mov    %rax,%rdi
    c42a:	48 89 c3             	mov    %rax,%rbx
    c42d:	e8 ee 69 ff ff       	callq  2e20 <_ZSt16__ostream_insertIcSt11char_traitsIcEERSt13basic_ostreamIT_T0_ES6_PKS3_l@plt>
    c432:	e8 19 6c ff ff       	callq  3050 <omp_get_num_threads@plt>
    c437:	48 89 df             	mov    %rbx,%rdi
    c43a:	89 c6                	mov    %eax,%esi
    c43c:	e8 8f 6b ff ff       	callq  2fd0 <_ZNSolsEi@plt>
    c441:	ba 0b 00 00 00       	mov    $0xb,%edx
    c446:	48 8d 35 57 0f 00 00 	lea    0xf57(%rip),%rsi        # d3a4 <_ZTSSt5_BindIFMN6matrix6sparse9CSRMatrixIidEEFvPdPKdEPS3_St12_PlaceholderILi1EESA_ILi2EEEE+0x204>
    c44d:	48 89 c7             	mov    %rax,%rdi
    c450:	48 89 c3             	mov    %rax,%rbx
    c453:	e8 c8 69 ff ff       	callq  2e20 <_ZSt16__ostream_insertIcSt11char_traitsIcEERSt13basic_ostreamIT_T0_ES6_PKS3_l@plt>
    c458:	49 8b 04 24          	mov    (%r12),%rax
    c45c:	4c 89 e7             	mov    %r12,%rdi
    c45f:	ff 50 28             	callq  *0x28(%rax)
    c462:	48 85 c0             	test   %rax,%rax
    c465:	78 69                	js     c4d0 <main._omp_fn.2+0x210>
    c467:	c5 f8 57 c0          	vxorps %xmm0,%xmm0,%xmm0
    c46b:	c4 e1 fa 2a c0       	vcvtsi2ss %rax,%xmm0,%xmm0
    c470:	c5 fa 59 05 cc 12 00 	vmulss 0x12cc(%rip),%xmm0,%xmm0        # d744 <_ZZN6matrix6sparse9CSRMatrixIifEC4ERKNSt7__cxx1112basic_stringIcSt11char_traitsIcESaIcEEEN4util8PlatformEE19__PRETTY_FUNCTION__+0x164>
    c477:	00 
    c478:	48 89 df             	mov    %rbx,%rdi
    c47b:	c5 fa 5a c0          	vcvtss2sd %xmm0,%xmm0,%xmm0
    c47f:	e8 bc 6a ff ff       	callq  2f40 <_ZNSo9_M_insertIdEERSoT_@plt>
    c484:	48 89 c5             	mov    %rax,%rbp
    c487:	48 8b 00             	mov    (%rax),%rax
    c48a:	48 8b 40 e8          	mov    -0x18(%rax),%rax
    c48e:	48 8b 9c 05 f0 00 00 	mov    0xf0(%rbp,%rax,1),%rbx
    c495:	00 
    c496:	48 85 db             	test   %rbx,%rbx
    c499:	0f 84 9f 00 00 00    	je     c53e <main._omp_fn.2+0x27e>
    c49f:	80 7b 38 00          	cmpb   $0x0,0x38(%rbx)
    c4a3:	74 4b                	je     c4f0 <main._omp_fn.2+0x230>
    c4a5:	0f be 73 43          	movsbl 0x43(%rbx),%esi
    c4a9:	48 89 ef             	mov    %rbp,%rdi
    c4ac:	e8 2f 67 ff ff       	callq  2be0 <_ZNSo3putEc@plt>
    c4b1:	48 83 c4 18          	add    $0x18,%rsp
    c4b5:	5b                   	pop    %rbx
    c4b6:	48 89 c7             	mov    %rax,%rdi
    c4b9:	5d                   	pop    %rbp
    c4ba:	41 5c                	pop    %r12
    c4bc:	41 5d                	pop    %r13
    c4be:	41 5e                	pop    %r14
    c4c0:	41 5f                	pop    %r15
    c4c2:	e9 49 68 ff ff       	jmpq   2d10 <_ZNSo5flushEv@plt>
    c4c7:	66 0f 1f 84 00 00 00 	nopw   0x0(%rax,%rax,1)
    c4ce:	00 00 
    c4d0:	48 89 c2             	mov    %rax,%rdx
    c4d3:	83 e0 01             	and    $0x1,%eax
    c4d6:	c5 f8 57 c0          	vxorps %xmm0,%xmm0,%xmm0
    c4da:	48 d1 ea             	shr    %rdx
    c4dd:	48 09 c2             	or     %rax,%rdx
    c4e0:	c4 e1 fa 2a c2       	vcvtsi2ss %rdx,%xmm0,%xmm0
    c4e5:	c5 fa 58 c0          	vaddss %xmm0,%xmm0,%xmm0
    c4e9:	eb 85                	jmp    c470 <main._omp_fn.2+0x1b0>
    c4eb:	0f 1f 44 00 00       	nopl   0x0(%rax,%rax,1)
    c4f0:	48 89 df             	mov    %rbx,%rdi
    c4f3:	e8 38 69 ff ff       	callq  2e30 <_ZNKSt5ctypeIcE13_M_widen_initEv@plt>
    c4f8:	48 8b 03             	mov    (%rbx),%rax
    c4fb:	be 0a 00 00 00       	mov    $0xa,%esi
    c500:	48 8d 15 b9 84 ff ff 	lea    -0x7b47(%rip),%rdx        # 49c0 <_ZNKSt5ctypeIcE8do_widenEc>
    c507:	48 8b 40 30          	mov    0x30(%rax),%rax
    c50b:	48 39 d0             	cmp    %rdx,%rax
    c50e:	74 99                	je     c4a9 <main._omp_fn.2+0x1e9>
    c510:	48 89 df             	mov    %rbx,%rdi
    c513:	ff d0                	callq  *%rax
    c515:	0f be f0             	movsbl %al,%esi
    c518:	eb 8f                	jmp    c4a9 <main._omp_fn.2+0x1e9>
    c51a:	66 0f 1f 44 00 00    	nopw   0x0(%rax,%rax,1)
    c520:	48 8b 05 f9 4a 20 00 	mov    0x204af9(%rip),%rax        # 211020 <_ZSt4cout@@GLIBCXX_3.4>
    c527:	48 8b 78 e8          	mov    -0x18(%rax),%rdi
    c52b:	4c 01 ef             	add    %r13,%rdi
    c52e:	8b 77 20             	mov    0x20(%rdi),%esi
    c531:	83 ce 01             	or     $0x1,%esi
    c534:	e8 77 6a ff ff       	callq  2fb0 <_ZNSt9basic_iosIcSt11char_traitsIcEE5clearESt12_Ios_Iostate@plt>
    c539:	e9 34 fe ff ff       	jmpq   c372 <main._omp_fn.2+0xb2>
    c53e:	e8 3d 69 ff ff       	callq  2e80 <_ZSt16__throw_bad_castv@plt>
    c543:	0f 1f 00             	nopl   (%rax)
    c546:	66 2e 0f 1f 84 00 00 	nopw   %cs:0x0(%rax,%rax,1)
    c54d:	00 00 00 

000000000000c550 <send_local_addrs>:
    c550:	55                   	push   %rbp
    c551:	48 8d 35 58 0e 00 00 	lea    0xe58(%rip),%rsi        # d3b0 <_ZTSSt5_BindIFMN6matrix6sparse9CSRMatrixIidEEFvPdPKdEPS3_St12_PlaceholderILi1EESA_ILi2EEEE+0x210>
    c558:	48 89 fd             	mov    %rdi,%rbp
    c55b:	31 c0                	xor    %eax,%eax
    c55d:	53                   	push   %rbx
    c55e:	89 d3                	mov    %edx,%ebx
    c560:	48 83 ec 08          	sub    $0x8,%rsp
    c564:	48 8b 4f 08          	mov    0x8(%rdi),%rcx
    c568:	bf 01 00 00 00       	mov    $0x1,%edi
    c56d:	83 05 e4 4c 20 00 09 	addl   $0x9,0x204ce4(%rip)        # 211258 <_ZZ16send_local_addrsE1w>
    c574:	e8 57 66 ff ff       	callq  2bd0 <__printf_chk@plt>
    c579:	48 8b 4d 00          	mov    0x0(%rbp),%rcx
    c57d:	89 da                	mov    %ebx,%edx
    c57f:	bf 01 00 00 00       	mov    $0x1,%edi
    c584:	48 8d 35 fd 0c 00 00 	lea    0xcfd(%rip),%rsi        # d288 <_ZTSSt5_BindIFMN6matrix6sparse9CSRMatrixIidEEFvPdPKdEPS3_St12_PlaceholderILi1EESA_ILi2EEEE+0xe8>
    c58b:	31 c0                	xor    %eax,%eax
    c58d:	e8 3e 66 ff ff       	callq  2bd0 <__printf_chk@plt>
    c592:	8b 05 c0 4c 20 00    	mov    0x204cc0(%rip),%eax        # 211258 <_ZZ16send_local_addrsE1w>
    c598:	48 83 c4 08          	add    $0x8,%rsp
    c59c:	5b                   	pop    %rbx
    c59d:	5d                   	pop    %rbp
    c59e:	c3                   	retq   
    c59f:	90                   	nop

000000000000c5a0 <_ZN6kernel6sparse5SpDMVIifEclEPfiPKfi>:
    c5a0:	41 56                	push   %r14
    c5a2:	41 89 d6             	mov    %edx,%r14d
    c5a5:	41 55                	push   %r13
    c5a7:	45 89 c5             	mov    %r8d,%r13d
    c5aa:	41 54                	push   %r12
    c5ac:	49 89 cc             	mov    %rcx,%r12
    c5af:	55                   	push   %rbp
    c5b0:	48 89 f5             	mov    %rsi,%rbp
    c5b3:	53                   	push   %rbx
    c5b4:	48 89 fb             	mov    %rdi,%rbx
    c5b7:	48 8b 3f             	mov    (%rdi),%rdi
    c5ba:	48 8b 07             	mov    (%rdi),%rax
    c5bd:	ff 50 10             	callq  *0x10(%rax)
    c5c0:	44 39 f0             	cmp    %r14d,%eax
    c5c3:	75 28                	jne    c5ed <_ZN6kernel6sparse5SpDMVIifEclEPfiPKfi+0x4d>
    c5c5:	48 8b 3b             	mov    (%rbx),%rdi
    c5c8:	48 8b 07             	mov    (%rdi),%rax
    c5cb:	ff 50 18             	callq  *0x18(%rax)
    c5ce:	44 39 e8             	cmp    %r13d,%eax
    c5d1:	75 39                	jne    c60c <_ZN6kernel6sparse5SpDMVIifEclEPfiPKfi+0x6c>
    c5d3:	48 8b 3b             	mov    (%rbx),%rdi
    c5d6:	4c 89 e2             	mov    %r12,%rdx
    c5d9:	5b                   	pop    %rbx
    c5da:	48 89 ee             	mov    %rbp,%rsi
    c5dd:	5d                   	pop    %rbp
    c5de:	41 5c                	pop    %r12
    c5e0:	48 8b 07             	mov    (%rdi),%rax
    c5e3:	41 5d                	pop    %r13
    c5e5:	41 5e                	pop    %r14
    c5e7:	48 8b 40 40          	mov    0x40(%rax),%rax
    c5eb:	ff e0                	jmpq   *%rax
    c5ed:	48 8d 0d 8c 0e 00 00 	lea    0xe8c(%rip),%rcx        # d480 <_ZZN6kernel6sparse5SpDMVIifEclEPfiPKfiE19__PRETTY_FUNCTION__>
    c5f4:	ba 1b 00 00 00       	mov    $0x1b,%edx
    c5f9:	48 8d 35 3b 0e 00 00 	lea    0xe3b(%rip),%rsi        # d43b <_ZTSSt5_BindIFMN6matrix6sparse9CSRMatrixIidEEFvPdPKdEPS3_St12_PlaceholderILi1EESA_ILi2EEEE+0x29b>
    c600:	48 8d 3d 47 0e 00 00 	lea    0xe47(%rip),%rdi        # d44e <_ZTSSt5_BindIFMN6matrix6sparse9CSRMatrixIidEEFvPdPKdEPS3_St12_PlaceholderILi1EESA_ILi2EEEE+0x2ae>
    c607:	e8 f4 66 ff ff       	callq  2d00 <__assert_fail@plt>
    c60c:	48 8d 0d 6d 0e 00 00 	lea    0xe6d(%rip),%rcx        # d480 <_ZZN6kernel6sparse5SpDMVIifEclEPfiPKfiE19__PRETTY_FUNCTION__>
    c613:	ba 1c 00 00 00       	mov    $0x1c,%edx
    c618:	48 8d 35 1c 0e 00 00 	lea    0xe1c(%rip),%rsi        # d43b <_ZTSSt5_BindIFMN6matrix6sparse9CSRMatrixIidEEFvPdPKdEPS3_St12_PlaceholderILi1EESA_ILi2EEEE+0x29b>
    c61f:	48 8d 3d 39 0e 00 00 	lea    0xe39(%rip),%rdi        # d45f <_ZTSSt5_BindIFMN6matrix6sparse9CSRMatrixIidEEFvPdPKdEPS3_St12_PlaceholderILi1EESA_ILi2EEEE+0x2bf>
    c626:	e8 d5 66 ff ff       	callq  2d00 <__assert_fail@plt>
    c62b:	0f 1f 44 00 00       	nopl   0x0(%rax,%rax,1)

000000000000c630 <__libc_csu_init>:
    c630:	41 57                	push   %r15
    c632:	41 56                	push   %r14
    c634:	49 89 d7             	mov    %rdx,%r15
    c637:	41 55                	push   %r13
    c639:	41 54                	push   %r12
    c63b:	4c 8d 25 1e 40 20 00 	lea    0x20401e(%rip),%r12        # 210660 <__frame_dummy_init_array_entry>
    c642:	55                   	push   %rbp
    c643:	48 8d 2d 4e 40 20 00 	lea    0x20404e(%rip),%rbp        # 210698 <__init_array_end>
    c64a:	53                   	push   %rbx
    c64b:	41 89 fd             	mov    %edi,%r13d
    c64e:	49 89 f6             	mov    %rsi,%r14
    c651:	4c 29 e5             	sub    %r12,%rbp
    c654:	48 83 ec 08          	sub    $0x8,%rsp
    c658:	48 c1 fd 03          	sar    $0x3,%rbp
    c65c:	e8 47 65 ff ff       	callq  2ba8 <_init>
    c661:	48 85 ed             	test   %rbp,%rbp
    c664:	74 20                	je     c686 <__libc_csu_init+0x56>
    c666:	31 db                	xor    %ebx,%ebx
    c668:	0f 1f 84 00 00 00 00 	nopl   0x0(%rax,%rax,1)
    c66f:	00 
    c670:	4c 89 fa             	mov    %r15,%rdx
    c673:	4c 89 f6             	mov    %r14,%rsi
    c676:	44 89 ef             	mov    %r13d,%edi
    c679:	41 ff 14 dc          	callq  *(%r12,%rbx,8)
    c67d:	48 83 c3 01          	add    $0x1,%rbx
    c681:	48 39 dd             	cmp    %rbx,%rbp
    c684:	75 ea                	jne    c670 <__libc_csu_init+0x40>
    c686:	48 83 c4 08          	add    $0x8,%rsp
    c68a:	5b                   	pop    %rbx
    c68b:	5d                   	pop    %rbp
    c68c:	41 5c                	pop    %r12
    c68e:	41 5d                	pop    %r13
    c690:	41 5e                	pop    %r14
    c692:	41 5f                	pop    %r15
    c694:	c3                   	retq   
    c695:	90                   	nop
    c696:	66 2e 0f 1f 84 00 00 	nopw   %cs:0x0(%rax,%rax,1)
    c69d:	00 00 00 

000000000000c6a0 <__libc_csu_fini>:
    c6a0:	f3 c3                	repz retq 

Disassembly of section .fini:

000000000000c6a4 <_fini>:
    c6a4:	48 83 ec 08          	sub    $0x8,%rsp
    c6a8:	48 83 c4 08          	add    $0x8,%rsp
    c6ac:	c3                   	retq   
