
bench_spdmv:     file format elf64-x86-64


Disassembly of section .init:

0000000000002ba8 <_init>:
    2ba8:	48 83 ec 08          	sub    $0x8,%rsp
    2bac:	48 8b 05 35 e4 20 00 	mov    0x20e435(%rip),%rax        # 210fe8 <__gmon_start__>
    2bb3:	48 85 c0             	test   %rax,%rax
    2bb6:	74 02                	je     2bba <_init+0x12>
    2bb8:	ff d0                	callq  *%rax
    2bba:	48 83 c4 08          	add    $0x8,%rsp
    2bbe:	c3                   	retq   

Disassembly of section .plt:

0000000000002bc0 <.plt>:
    2bc0:	ff 35 9a e1 20 00    	pushq  0x20e19a(%rip)        # 210d60 <_GLOBAL_OFFSET_TABLE_+0x8>
    2bc6:	ff 25 9c e1 20 00    	jmpq   *0x20e19c(%rip)        # 210d68 <_GLOBAL_OFFSET_TABLE_+0x10>
    2bcc:	0f 1f 40 00          	nopl   0x0(%rax)

0000000000002bd0 <__printf_chk@plt>:
    2bd0:	ff 25 9a e1 20 00    	jmpq   *0x20e19a(%rip)        # 210d70 <__printf_chk@GLIBC_2.3.4>
    2bd6:	68 00 00 00 00       	pushq  $0x0
    2bdb:	e9 e0 ff ff ff       	jmpq   2bc0 <.plt>

0000000000002be0 <_ZNSo3putEc@plt>:
    2be0:	ff 25 92 e1 20 00    	jmpq   *0x20e192(%rip)        # 210d78 <_ZNSo3putEc@GLIBCXX_3.4>
    2be6:	68 01 00 00 00       	pushq  $0x1
    2beb:	e9 d0 ff ff ff       	jmpq   2bc0 <.plt>

0000000000002bf0 <_ZNSt13basic_filebufIcSt11char_traitsIcEE5closeEv@plt>:
    2bf0:	ff 25 8a e1 20 00    	jmpq   *0x20e18a(%rip)        # 210d80 <_ZNSt13basic_filebufIcSt11char_traitsIcEE5closeEv@GLIBCXX_3.4>
    2bf6:	68 02 00 00 00       	pushq  $0x2
    2bfb:	e9 c0 ff ff ff       	jmpq   2bc0 <.plt>

0000000000002c00 <_ZNKSt12__basic_fileIcE7is_openEv@plt>:
    2c00:	ff 25 82 e1 20 00    	jmpq   *0x20e182(%rip)        # 210d88 <_ZNKSt12__basic_fileIcE7is_openEv@GLIBCXX_3.4>
    2c06:	68 03 00 00 00       	pushq  $0x3
    2c0b:	e9 b0 ff ff ff       	jmpq   2bc0 <.plt>

0000000000002c10 <_ZNSt14basic_ifstreamIcSt11char_traitsIcEED1Ev@plt>:
    2c10:	ff 25 7a e1 20 00    	jmpq   *0x20e17a(%rip)        # 210d90 <_ZNSt14basic_ifstreamIcSt11char_traitsIcEED1Ev@GLIBCXX_3.4>
    2c16:	68 04 00 00 00       	pushq  $0x4
    2c1b:	e9 a0 ff ff ff       	jmpq   2bc0 <.plt>

0000000000002c20 <_ZNKSt7__cxx1112basic_stringIcSt11char_traitsIcESaIcEE7compareEPKc@plt>:
    2c20:	ff 25 72 e1 20 00    	jmpq   *0x20e172(%rip)        # 210d98 <_ZNKSt7__cxx1112basic_stringIcSt11char_traitsIcESaIcEE7compareEPKc@GLIBCXX_3.4.21>
    2c26:	68 05 00 00 00       	pushq  $0x5
    2c2b:	e9 90 ff ff ff       	jmpq   2bc0 <.plt>

0000000000002c30 <_ZNSt8ios_baseC2Ev@plt>:
    2c30:	ff 25 6a e1 20 00    	jmpq   *0x20e16a(%rip)        # 210da0 <_ZNSt8ios_baseC2Ev@GLIBCXX_3.4>
    2c36:	68 06 00 00 00       	pushq  $0x6
    2c3b:	e9 80 ff ff ff       	jmpq   2bc0 <.plt>

0000000000002c40 <_ZNSt8ios_baseD2Ev@plt>:
    2c40:	ff 25 62 e1 20 00    	jmpq   *0x20e162(%rip)        # 210da8 <_ZNSt8ios_baseD2Ev@GLIBCXX_3.4>
    2c46:	68 07 00 00 00       	pushq  $0x7
    2c4b:	e9 70 ff ff ff       	jmpq   2bc0 <.plt>

0000000000002c50 <_ZNSt8ios_base7failureB5cxx11C1EPKcRKSt10error_code@plt>:
    2c50:	ff 25 5a e1 20 00    	jmpq   *0x20e15a(%rip)        # 210db0 <_ZNSt8ios_base7failureB5cxx11C1EPKcRKSt10error_code@GLIBCXX_3.4.21>
    2c56:	68 08 00 00 00       	pushq  $0x8
    2c5b:	e9 60 ff ff ff       	jmpq   2bc0 <.plt>

0000000000002c60 <_ZSt25__throw_bad_function_callv@plt>:
    2c60:	ff 25 52 e1 20 00    	jmpq   *0x20e152(%rip)        # 210db8 <_ZSt25__throw_bad_function_callv@GLIBCXX_3.4.14>
    2c66:	68 09 00 00 00       	pushq  $0x9
    2c6b:	e9 50 ff ff ff       	jmpq   2bc0 <.plt>

0000000000002c70 <_ZNSi4peekEv@plt>:
    2c70:	ff 25 4a e1 20 00    	jmpq   *0x20e14a(%rip)        # 210dc0 <_ZNSi4peekEv@GLIBCXX_3.4>
    2c76:	68 0a 00 00 00       	pushq  $0xa
    2c7b:	e9 40 ff ff ff       	jmpq   2bc0 <.plt>

0000000000002c80 <__cxa_begin_catch@plt>:
    2c80:	ff 25 42 e1 20 00    	jmpq   *0x20e142(%rip)        # 210dc8 <__cxa_begin_catch@CXXABI_1.3>
    2c86:	68 0b 00 00 00       	pushq  $0xb
    2c8b:	e9 30 ff ff ff       	jmpq   2bc0 <.plt>

0000000000002c90 <strlen@plt>:
    2c90:	ff 25 3a e1 20 00    	jmpq   *0x20e13a(%rip)        # 210dd0 <strlen@GLIBC_2.2.5>
    2c96:	68 0c 00 00 00       	pushq  $0xc
    2c9b:	e9 20 ff ff ff       	jmpq   2bc0 <.plt>

0000000000002ca0 <_ZSt4endlIcSt11char_traitsIcEERSt13basic_ostreamIT_T0_ES6_@plt>:
    2ca0:	ff 25 32 e1 20 00    	jmpq   *0x20e132(%rip)        # 210dd8 <_ZSt4endlIcSt11char_traitsIcEERSt13basic_ostreamIT_T0_ES6_@GLIBCXX_3.4>
    2ca6:	68 0d 00 00 00       	pushq  $0xd
    2cab:	e9 10 ff ff ff       	jmpq   2bc0 <.plt>

0000000000002cb0 <__cxa_allocate_exception@plt>:
    2cb0:	ff 25 2a e1 20 00    	jmpq   *0x20e12a(%rip)        # 210de0 <__cxa_allocate_exception@CXXABI_1.3>
    2cb6:	68 0e 00 00 00       	pushq  $0xe
    2cbb:	e9 00 ff ff ff       	jmpq   2bc0 <.plt>

0000000000002cc0 <posix_memalign@plt>:
    2cc0:	ff 25 22 e1 20 00    	jmpq   *0x20e122(%rip)        # 210de8 <posix_memalign@GLIBC_2.2.5>
    2cc6:	68 0f 00 00 00       	pushq  $0xf
    2ccb:	e9 f0 fe ff ff       	jmpq   2bc0 <.plt>

0000000000002cd0 <_ZSt20__throw_length_errorPKc@plt>:
    2cd0:	ff 25 1a e1 20 00    	jmpq   *0x20e11a(%rip)        # 210df0 <_ZSt20__throw_length_errorPKc@GLIBCXX_3.4>
    2cd6:	68 10 00 00 00       	pushq  $0x10
    2cdb:	e9 e0 fe ff ff       	jmpq   2bc0 <.plt>

0000000000002ce0 <memset@plt>:
    2ce0:	ff 25 12 e1 20 00    	jmpq   *0x20e112(%rip)        # 210df8 <memset@GLIBC_2.2.5>
    2ce6:	68 11 00 00 00       	pushq  $0x11
    2ceb:	e9 d0 fe ff ff       	jmpq   2bc0 <.plt>

0000000000002cf0 <_ZNSi6ignoreEli@plt>:
    2cf0:	ff 25 0a e1 20 00    	jmpq   *0x20e10a(%rip)        # 210e00 <_ZNSi6ignoreEli@GLIBCXX_3.4>
    2cf6:	68 12 00 00 00       	pushq  $0x12
    2cfb:	e9 c0 fe ff ff       	jmpq   2bc0 <.plt>

0000000000002d00 <__assert_fail@plt>:
    2d00:	ff 25 02 e1 20 00    	jmpq   *0x20e102(%rip)        # 210e08 <__assert_fail@GLIBC_2.2.5>
    2d06:	68 13 00 00 00       	pushq  $0x13
    2d0b:	e9 b0 fe ff ff       	jmpq   2bc0 <.plt>

0000000000002d10 <_ZNSo5flushEv@plt>:
    2d10:	ff 25 fa e0 20 00    	jmpq   *0x20e0fa(%rip)        # 210e10 <_ZNSo5flushEv@GLIBCXX_3.4>
    2d16:	68 14 00 00 00       	pushq  $0x14
    2d1b:	e9 a0 fe ff ff       	jmpq   2bc0 <.plt>

0000000000002d20 <_ZSt19__throw_logic_errorPKc@plt>:
    2d20:	ff 25 f2 e0 20 00    	jmpq   *0x20e0f2(%rip)        # 210e18 <_ZSt19__throw_logic_errorPKc@GLIBCXX_3.4>
    2d26:	68 15 00 00 00       	pushq  $0x15
    2d2b:	e9 90 fe ff ff       	jmpq   2bc0 <.plt>

0000000000002d30 <__cxa_free_exception@plt>:
    2d30:	ff 25 ea e0 20 00    	jmpq   *0x20e0ea(%rip)        # 210e20 <__cxa_free_exception@CXXABI_1.3>
    2d36:	68 16 00 00 00       	pushq  $0x16
    2d3b:	e9 80 fe ff ff       	jmpq   2bc0 <.plt>

0000000000002d40 <nextafter@plt>:
    2d40:	ff 25 e2 e0 20 00    	jmpq   *0x20e0e2(%rip)        # 210e28 <nextafter@GLIBC_2.2.5>
    2d46:	68 17 00 00 00       	pushq  $0x17
    2d4b:	e9 70 fe ff ff       	jmpq   2bc0 <.plt>

0000000000002d50 <strtod@plt>:
    2d50:	ff 25 da e0 20 00    	jmpq   *0x20e0da(%rip)        # 210e30 <strtod@GLIBC_2.2.5>
    2d56:	68 18 00 00 00       	pushq  $0x18
    2d5b:	e9 60 fe ff ff       	jmpq   2bc0 <.plt>

0000000000002d60 <sched_setaffinity@plt>:
    2d60:	ff 25 d2 e0 20 00    	jmpq   *0x20e0d2(%rip)        # 210e38 <sched_setaffinity@GLIBC_2.3.4>
    2d66:	68 19 00 00 00       	pushq  $0x19
    2d6b:	e9 50 fe ff ff       	jmpq   2bc0 <.plt>

0000000000002d70 <memcpy@plt>:
    2d70:	ff 25 ca e0 20 00    	jmpq   *0x20e0ca(%rip)        # 210e40 <memcpy@GLIBC_2.14>
    2d76:	68 1a 00 00 00       	pushq  $0x1a
    2d7b:	e9 40 fe ff ff       	jmpq   2bc0 <.plt>

0000000000002d80 <__cxa_atexit@plt>:
    2d80:	ff 25 c2 e0 20 00    	jmpq   *0x20e0c2(%rip)        # 210e48 <__cxa_atexit@GLIBC_2.2.5>
    2d86:	68 1b 00 00 00       	pushq  $0x1b
    2d8b:	e9 30 fe ff ff       	jmpq   2bc0 <.plt>

0000000000002d90 <_ZNSt13basic_filebufIcSt11char_traitsIcEE4openEPKcSt13_Ios_Openmode@plt>:
    2d90:	ff 25 ba e0 20 00    	jmpq   *0x20e0ba(%rip)        # 210e50 <_ZNSt13basic_filebufIcSt11char_traitsIcEE4openEPKcSt13_Ios_Openmode@GLIBCXX_3.4>
    2d96:	68 1c 00 00 00       	pushq  $0x1c
    2d9b:	e9 20 fe ff ff       	jmpq   2bc0 <.plt>

0000000000002da0 <_ZSt17iostream_categoryv@plt>:
    2da0:	ff 25 b2 e0 20 00    	jmpq   *0x20e0b2(%rip)        # 210e58 <_ZSt17iostream_categoryv@GLIBCXX_3.4.21>
    2da6:	68 1d 00 00 00       	pushq  $0x1d
    2dab:	e9 10 fe ff ff       	jmpq   2bc0 <.plt>

0000000000002db0 <_ZNSt13random_device7_M_finiEv@plt>:
    2db0:	ff 25 aa e0 20 00    	jmpq   *0x20e0aa(%rip)        # 210e60 <_ZNSt13random_device7_M_finiEv@GLIBCXX_3.4.18>
    2db6:	68 1e 00 00 00       	pushq  $0x1e
    2dbb:	e9 00 fe ff ff       	jmpq   2bc0 <.plt>

0000000000002dc0 <_ZdlPv@plt>:
    2dc0:	ff 25 a2 e0 20 00    	jmpq   *0x20e0a2(%rip)        # 210e68 <_ZdlPv@GLIBCXX_3.4>
    2dc6:	68 1f 00 00 00       	pushq  $0x1f
    2dcb:	e9 f0 fd ff ff       	jmpq   2bc0 <.plt>

0000000000002dd0 <_ZStlsISt11char_traitsIcEERSt13basic_ostreamIcT_ES5_PKc@plt>:
    2dd0:	ff 25 9a e0 20 00    	jmpq   *0x20e09a(%rip)        # 210e70 <_ZStlsISt11char_traitsIcEERSt13basic_ostreamIcT_ES5_PKc@GLIBCXX_3.4>
    2dd6:	68 20 00 00 00       	pushq  $0x20
    2ddb:	e9 e0 fd ff ff       	jmpq   2bc0 <.plt>

0000000000002de0 <_Znwm@plt>:
    2de0:	ff 25 92 e0 20 00    	jmpq   *0x20e092(%rip)        # 210e78 <_Znwm@GLIBCXX_3.4>
    2de6:	68 21 00 00 00       	pushq  $0x21
    2deb:	e9 d0 fd ff ff       	jmpq   2bc0 <.plt>

0000000000002df0 <_ZNSt13basic_filebufIcSt11char_traitsIcEEC1Ev@plt>:
    2df0:	ff 25 8a e0 20 00    	jmpq   *0x20e08a(%rip)        # 210e80 <_ZNSt13basic_filebufIcSt11char_traitsIcEEC1Ev@GLIBCXX_3.4>
    2df6:	68 22 00 00 00       	pushq  $0x22
    2dfb:	e9 c0 fd ff ff       	jmpq   2bc0 <.plt>

0000000000002e00 <__stack_chk_fail@plt>:
    2e00:	ff 25 82 e0 20 00    	jmpq   *0x20e082(%rip)        # 210e88 <__stack_chk_fail@GLIBC_2.4>
    2e06:	68 23 00 00 00       	pushq  $0x23
    2e0b:	e9 b0 fd ff ff       	jmpq   2bc0 <.plt>

0000000000002e10 <omp_set_num_threads@plt>:
    2e10:	ff 25 7a e0 20 00    	jmpq   *0x20e07a(%rip)        # 210e90 <omp_set_num_threads@OMP_1.0>
    2e16:	68 24 00 00 00       	pushq  $0x24
    2e1b:	e9 a0 fd ff ff       	jmpq   2bc0 <.plt>

0000000000002e20 <_ZSt16__ostream_insertIcSt11char_traitsIcEERSt13basic_ostreamIT_T0_ES6_PKS3_l@plt>:
    2e20:	ff 25 72 e0 20 00    	jmpq   *0x20e072(%rip)        # 210e98 <_ZSt16__ostream_insertIcSt11char_traitsIcEERSt13basic_ostreamIT_T0_ES6_PKS3_l@GLIBCXX_3.4.9>
    2e26:	68 25 00 00 00       	pushq  $0x25
    2e2b:	e9 90 fd ff ff       	jmpq   2bc0 <.plt>

0000000000002e30 <_ZNKSt5ctypeIcE13_M_widen_initEv@plt>:
    2e30:	ff 25 6a e0 20 00    	jmpq   *0x20e06a(%rip)        # 210ea0 <_ZNKSt5ctypeIcE13_M_widen_initEv@GLIBCXX_3.4.11>
    2e36:	68 26 00 00 00       	pushq  $0x26
    2e3b:	e9 80 fd ff ff       	jmpq   2bc0 <.plt>

0000000000002e40 <_ZNSt7__cxx1112basic_stringIcSt11char_traitsIcESaIcEE8_M_eraseEmm@plt>:
    2e40:	ff 25 62 e0 20 00    	jmpq   *0x20e062(%rip)        # 210ea8 <_ZNSt7__cxx1112basic_stringIcSt11char_traitsIcESaIcEE8_M_eraseEmm@GLIBCXX_3.4.21>
    2e46:	68 27 00 00 00       	pushq  $0x27
    2e4b:	e9 70 fd ff ff       	jmpq   2bc0 <.plt>

0000000000002e50 <free@plt>:
    2e50:	ff 25 5a e0 20 00    	jmpq   *0x20e05a(%rip)        # 210eb0 <free@GLIBC_2.2.5>
    2e56:	68 28 00 00 00       	pushq  $0x28
    2e5b:	e9 60 fd ff ff       	jmpq   2bc0 <.plt>

0000000000002e60 <exit@plt>:
    2e60:	ff 25 52 e0 20 00    	jmpq   *0x20e052(%rip)        # 210eb8 <exit@GLIBC_2.2.5>
    2e66:	68 29 00 00 00       	pushq  $0x29
    2e6b:	e9 50 fd ff ff       	jmpq   2bc0 <.plt>

0000000000002e70 <getenv@plt>:
    2e70:	ff 25 4a e0 20 00    	jmpq   *0x20e04a(%rip)        # 210ec0 <getenv@GLIBC_2.2.5>
    2e76:	68 2a 00 00 00       	pushq  $0x2a
    2e7b:	e9 40 fd ff ff       	jmpq   2bc0 <.plt>

0000000000002e80 <_ZSt16__throw_bad_castv@plt>:
    2e80:	ff 25 42 e0 20 00    	jmpq   *0x20e042(%rip)        # 210ec8 <_ZSt16__throw_bad_castv@GLIBCXX_3.4>
    2e86:	68 2b 00 00 00       	pushq  $0x2b
    2e8b:	e9 30 fd ff ff       	jmpq   2bc0 <.plt>

0000000000002e90 <_ZNSt9basic_iosIcSt11char_traitsIcEE4initEPSt15basic_streambufIcS1_E@plt>:
    2e90:	ff 25 3a e0 20 00    	jmpq   *0x20e03a(%rip)        # 210ed0 <_ZNSt9basic_iosIcSt11char_traitsIcEE4initEPSt15basic_streambufIcS1_E@GLIBCXX_3.4>
    2e96:	68 2c 00 00 00       	pushq  $0x2c
    2e9b:	e9 20 fd ff ff       	jmpq   2bc0 <.plt>

0000000000002ea0 <_ZNSt13random_device9_M_getvalEv@plt>:
    2ea0:	ff 25 32 e0 20 00    	jmpq   *0x20e032(%rip)        # 210ed8 <_ZNSt13random_device9_M_getvalEv@GLIBCXX_3.4.18>
    2ea6:	68 2d 00 00 00       	pushq  $0x2d
    2eab:	e9 10 fd ff ff       	jmpq   2bc0 <.plt>

0000000000002eb0 <strtol@plt>:
    2eb0:	ff 25 2a e0 20 00    	jmpq   *0x20e02a(%rip)        # 210ee0 <strtol@GLIBC_2.2.5>
    2eb6:	68 2e 00 00 00       	pushq  $0x2e
    2ebb:	e9 00 fd ff ff       	jmpq   2bc0 <.plt>

0000000000002ec0 <_ZNSt6localeD1Ev@plt>:
    2ec0:	ff 25 22 e0 20 00    	jmpq   *0x20e022(%rip)        # 210ee8 <_ZNSt6localeD1Ev@GLIBCXX_3.4>
    2ec6:	68 2f 00 00 00       	pushq  $0x2f
    2ecb:	e9 f0 fc ff ff       	jmpq   2bc0 <.plt>

0000000000002ed0 <__cxa_rethrow@plt>:
    2ed0:	ff 25 1a e0 20 00    	jmpq   *0x20e01a(%rip)        # 210ef0 <__cxa_rethrow@CXXABI_1.3>
    2ed6:	68 30 00 00 00       	pushq  $0x30
    2edb:	e9 e0 fc ff ff       	jmpq   2bc0 <.plt>

0000000000002ee0 <basename@plt>:
    2ee0:	ff 25 12 e0 20 00    	jmpq   *0x20e012(%rip)        # 210ef8 <basename@GLIBC_2.2.5>
    2ee6:	68 31 00 00 00       	pushq  $0x31
    2eeb:	e9 d0 fc ff ff       	jmpq   2bc0 <.plt>

0000000000002ef0 <GOMP_parallel@plt>:
    2ef0:	ff 25 0a e0 20 00    	jmpq   *0x20e00a(%rip)        # 210f00 <GOMP_parallel@GOMP_4.0>
    2ef6:	68 32 00 00 00       	pushq  $0x32
    2efb:	e9 c0 fc ff ff       	jmpq   2bc0 <.plt>

0000000000002f00 <_ZSt24__throw_out_of_range_fmtPKcz@plt>:
    2f00:	ff 25 02 e0 20 00    	jmpq   *0x20e002(%rip)        # 210f08 <_ZSt24__throw_out_of_range_fmtPKcz@GLIBCXX_3.4.20>
    2f06:	68 33 00 00 00       	pushq  $0x33
    2f0b:	e9 b0 fc ff ff       	jmpq   2bc0 <.plt>

0000000000002f10 <_ZNSt8ios_base4InitC1Ev@plt>:
    2f10:	ff 25 fa df 20 00    	jmpq   *0x20dffa(%rip)        # 210f10 <_ZNSt8ios_base4InitC1Ev@GLIBCXX_3.4>
    2f16:	68 34 00 00 00       	pushq  $0x34
    2f1b:	e9 a0 fc ff ff       	jmpq   2bc0 <.plt>

0000000000002f20 <_ZNSt13basic_filebufIcSt11char_traitsIcEED1Ev@plt>:
    2f20:	ff 25 f2 df 20 00    	jmpq   *0x20dff2(%rip)        # 210f18 <_ZNSt13basic_filebufIcSt11char_traitsIcEED1Ev@GLIBCXX_3.4>
    2f26:	68 35 00 00 00       	pushq  $0x35
    2f2b:	e9 90 fc ff ff       	jmpq   2bc0 <.plt>

0000000000002f30 <omp_get_thread_num@plt>:
    2f30:	ff 25 ea df 20 00    	jmpq   *0x20dfea(%rip)        # 210f20 <omp_get_thread_num@OMP_1.0>
    2f36:	68 36 00 00 00       	pushq  $0x36
    2f3b:	e9 80 fc ff ff       	jmpq   2bc0 <.plt>

0000000000002f40 <_ZNSo9_M_insertIdEERSoT_@plt>:
    2f40:	ff 25 e2 df 20 00    	jmpq   *0x20dfe2(%rip)        # 210f28 <_ZNSo9_M_insertIdEERSoT_@GLIBCXX_3.4.9>
    2f46:	68 37 00 00 00       	pushq  $0x37
    2f4b:	e9 70 fc ff ff       	jmpq   2bc0 <.plt>

0000000000002f50 <_ZNKSt7__cxx1112basic_stringIcSt11char_traitsIcESaIcEE16find_last_not_ofEPKcmm@plt>:
    2f50:	ff 25 da df 20 00    	jmpq   *0x20dfda(%rip)        # 210f30 <_ZNKSt7__cxx1112basic_stringIcSt11char_traitsIcESaIcEE16find_last_not_ofEPKcmm@GLIBCXX_3.4.21>
    2f56:	68 38 00 00 00       	pushq  $0x38
    2f5b:	e9 60 fc ff ff       	jmpq   2bc0 <.plt>

0000000000002f60 <memmove@plt>:
    2f60:	ff 25 d2 df 20 00    	jmpq   *0x20dfd2(%rip)        # 210f38 <memmove@GLIBC_2.2.5>
    2f66:	68 39 00 00 00       	pushq  $0x39
    2f6b:	e9 50 fc ff ff       	jmpq   2bc0 <.plt>

0000000000002f70 <__cxa_end_catch@plt>:
    2f70:	ff 25 ca df 20 00    	jmpq   *0x20dfca(%rip)        # 210f40 <__cxa_end_catch@CXXABI_1.3>
    2f76:	68 3a 00 00 00       	pushq  $0x3a
    2f7b:	e9 40 fc ff ff       	jmpq   2bc0 <.plt>

0000000000002f80 <omp_get_max_threads@plt>:
    2f80:	ff 25 c2 df 20 00    	jmpq   *0x20dfc2(%rip)        # 210f48 <omp_get_max_threads@OMP_1.0>
    2f86:	68 3b 00 00 00       	pushq  $0x3b
    2f8b:	e9 30 fc ff ff       	jmpq   2bc0 <.plt>

0000000000002f90 <_ZNKSt7__cxx1112basic_stringIcSt11char_traitsIcESaIcEE17find_first_not_ofEPKcmm@plt>:
    2f90:	ff 25 ba df 20 00    	jmpq   *0x20dfba(%rip)        # 210f50 <_ZNKSt7__cxx1112basic_stringIcSt11char_traitsIcESaIcEE17find_first_not_ofEPKcmm@GLIBCXX_3.4.21>
    2f96:	68 3c 00 00 00       	pushq  $0x3c
    2f9b:	e9 20 fc ff ff       	jmpq   2bc0 <.plt>

0000000000002fa0 <_ZNSt13random_device7_M_initERKNSt7__cxx1112basic_stringIcSt11char_traitsIcESaIcEEE@plt>:
    2fa0:	ff 25 b2 df 20 00    	jmpq   *0x20dfb2(%rip)        # 210f58 <_ZNSt13random_device7_M_initERKNSt7__cxx1112basic_stringIcSt11char_traitsIcESaIcEEE@GLIBCXX_3.4.21>
    2fa6:	68 3d 00 00 00       	pushq  $0x3d
    2fab:	e9 10 fc ff ff       	jmpq   2bc0 <.plt>

0000000000002fb0 <_ZNSt9basic_iosIcSt11char_traitsIcEE5clearESt12_Ios_Iostate@plt>:
    2fb0:	ff 25 aa df 20 00    	jmpq   *0x20dfaa(%rip)        # 210f60 <_ZNSt9basic_iosIcSt11char_traitsIcEE5clearESt12_Ios_Iostate@GLIBCXX_3.4>
    2fb6:	68 3e 00 00 00       	pushq  $0x3e
    2fbb:	e9 00 fc ff ff       	jmpq   2bc0 <.plt>

0000000000002fc0 <__cxa_throw@plt>:
    2fc0:	ff 25 a2 df 20 00    	jmpq   *0x20dfa2(%rip)        # 210f68 <__cxa_throw@CXXABI_1.3>
    2fc6:	68 3f 00 00 00       	pushq  $0x3f
    2fcb:	e9 f0 fb ff ff       	jmpq   2bc0 <.plt>

0000000000002fd0 <_ZNSolsEi@plt>:
    2fd0:	ff 25 9a df 20 00    	jmpq   *0x20df9a(%rip)        # 210f70 <_ZNSolsEi@GLIBCXX_3.4>
    2fd6:	68 40 00 00 00       	pushq  $0x40
    2fdb:	e9 e0 fb ff ff       	jmpq   2bc0 <.plt>

0000000000002fe0 <_ZNKSt7__cxx1112basic_stringIcSt11char_traitsIcESaIcEE4findEPKcmm@plt>:
    2fe0:	ff 25 92 df 20 00    	jmpq   *0x20df92(%rip)        # 210f78 <_ZNKSt7__cxx1112basic_stringIcSt11char_traitsIcESaIcEE4findEPKcmm@GLIBCXX_3.4.21>
    2fe6:	68 41 00 00 00       	pushq  $0x41
    2feb:	e9 d0 fb ff ff       	jmpq   2bc0 <.plt>

0000000000002ff0 <_Unwind_Resume@plt>:
    2ff0:	ff 25 8a df 20 00    	jmpq   *0x20df8a(%rip)        # 210f80 <_Unwind_Resume@GCC_3.0>
    2ff6:	68 42 00 00 00       	pushq  $0x42
    2ffb:	e9 c0 fb ff ff       	jmpq   2bc0 <.plt>

0000000000003000 <omp_get_wtime@plt>:
    3000:	ff 25 82 df 20 00    	jmpq   *0x20df82(%rip)        # 210f88 <omp_get_wtime@OMP_2.0>
    3006:	68 43 00 00 00       	pushq  $0x43
    300b:	e9 b0 fb ff ff       	jmpq   2bc0 <.plt>

0000000000003010 <_ZNSt7__cxx1112basic_stringIcSt11char_traitsIcESaIcEE9_M_createERmm@plt>:
    3010:	ff 25 7a df 20 00    	jmpq   *0x20df7a(%rip)        # 210f90 <_ZNSt7__cxx1112basic_stringIcSt11char_traitsIcESaIcEE9_M_createERmm@GLIBCXX_3.4.21>
    3016:	68 44 00 00 00       	pushq  $0x44
    301b:	e9 a0 fb ff ff       	jmpq   2bc0 <.plt>

0000000000003020 <GOMP_barrier@plt>:
    3020:	ff 25 72 df 20 00    	jmpq   *0x20df72(%rip)        # 210f98 <GOMP_barrier@GOMP_1.0>
    3026:	68 45 00 00 00       	pushq  $0x45
    302b:	e9 90 fb ff ff       	jmpq   2bc0 <.plt>

0000000000003030 <_ZSt7getlineIcSt11char_traitsIcESaIcEERSt13basic_istreamIT_T0_ES7_RNSt7__cxx1112basic_stringIS4_S5_T1_EES4_@plt>:
    3030:	ff 25 6a df 20 00    	jmpq   *0x20df6a(%rip)        # 210fa0 <_ZSt7getlineIcSt11char_traitsIcESaIcEERSt13basic_istreamIT_T0_ES7_RNSt7__cxx1112basic_stringIS4_S5_T1_EES4_@GLIBCXX_3.4.21>
    3036:	68 46 00 00 00       	pushq  $0x46
    303b:	e9 80 fb ff ff       	jmpq   2bc0 <.plt>

0000000000003040 <_ZNSt12__basic_fileIcED1Ev@plt>:
    3040:	ff 25 62 df 20 00    	jmpq   *0x20df62(%rip)        # 210fa8 <_ZNSt12__basic_fileIcED1Ev@GLIBCXX_3.4>
    3046:	68 47 00 00 00       	pushq  $0x47
    304b:	e9 70 fb ff ff       	jmpq   2bc0 <.plt>

0000000000003050 <omp_get_num_threads@plt>:
    3050:	ff 25 5a df 20 00    	jmpq   *0x20df5a(%rip)        # 210fb0 <omp_get_num_threads@OMP_1.0>
    3056:	68 48 00 00 00       	pushq  $0x48
    305b:	e9 60 fb ff ff       	jmpq   2bc0 <.plt>

0000000000003060 <omp_set_dynamic@plt>:
    3060:	ff 25 52 df 20 00    	jmpq   *0x20df52(%rip)        # 210fb8 <omp_set_dynamic@OMP_1.0>
    3066:	68 49 00 00 00       	pushq  $0x49
    306b:	e9 50 fb ff ff       	jmpq   2bc0 <.plt>

0000000000003070 <_ZNSt7__cxx1112basic_stringIcSt11char_traitsIcESaIcEE6assignEPKc@plt>:
    3070:	ff 25 4a df 20 00    	jmpq   *0x20df4a(%rip)        # 210fc0 <_ZNSt7__cxx1112basic_stringIcSt11char_traitsIcESaIcEE6assignEPKc@GLIBCXX_3.4.21>
    3076:	68 4a 00 00 00       	pushq  $0x4a
    307b:	e9 40 fb ff ff       	jmpq   2bc0 <.plt>

Disassembly of section .plt.got:

0000000000003080 <__cxa_finalize@plt>:
    3080:	ff 25 42 df 20 00    	jmpq   *0x20df42(%rip)        # 210fc8 <__cxa_finalize@GLIBC_2.2.5>
    3086:	66 90                	xchg   %ax,%ax

Disassembly of section .text:

0000000000003090 <_GLOBAL__sub_I__ZN4util2io6DoReadERSt14basic_ifstreamIcSt11char_traitsIcEERSt6vectorINSt7__cxx1112basic_stringIcS3_SaIcEEESaISA_EE>:
    3090:	48 83 ec 08          	sub    $0x8,%rsp
    3094:	48 8d 3d b6 e1 20 00 	lea    0x20e1b6(%rip),%rdi        # 211251 <_ZStL8__ioinit>
    309b:	e8 70 fe ff ff       	callq  2f10 <_ZNSt8ios_base4InitC1Ev@plt>
    30a0:	48 8b 3d 51 df 20 00 	mov    0x20df51(%rip),%rdi        # 210ff8 <_ZNSt8ios_base4InitD1Ev@GLIBCXX_3.4>
    30a7:	48 83 c4 08          	add    $0x8,%rsp
    30ab:	48 8d 15 56 df 20 00 	lea    0x20df56(%rip),%rdx        # 211008 <__dso_handle>
    30b2:	48 8d 35 98 e1 20 00 	lea    0x20e198(%rip),%rsi        # 211251 <_ZStL8__ioinit>
    30b9:	e9 c2 fc ff ff       	jmpq   2d80 <__cxa_atexit@plt>
    30be:	66 90                	xchg   %ax,%ax

00000000000030c0 <_GLOBAL__sub_I__ZN4util7runtime11get_threadsEv>:
    30c0:	48 83 ec 08          	sub    $0x8,%rsp
    30c4:	48 8d 3d 87 e1 20 00 	lea    0x20e187(%rip),%rdi        # 211252 <_ZStL8__ioinit>
    30cb:	e8 40 fe ff ff       	callq  2f10 <_ZNSt8ios_base4InitC1Ev@plt>
    30d0:	48 8b 3d 21 df 20 00 	mov    0x20df21(%rip),%rdi        # 210ff8 <_ZNSt8ios_base4InitD1Ev@GLIBCXX_3.4>
    30d7:	48 83 c4 08          	add    $0x8,%rsp
    30db:	48 8d 15 26 df 20 00 	lea    0x20df26(%rip),%rdx        # 211008 <__dso_handle>
    30e2:	48 8d 35 69 e1 20 00 	lea    0x20e169(%rip),%rsi        # 211252 <_ZStL8__ioinit>
    30e9:	e9 92 fc ff ff       	jmpq   2d80 <__cxa_atexit@plt>
    30ee:	66 90                	xchg   %ax,%ax

00000000000030f0 <_GLOBAL__sub_I_coo_matrix.cpp>:
    30f0:	48 83 ec 08          	sub    $0x8,%rsp
    30f4:	48 8d 3d 58 e1 20 00 	lea    0x20e158(%rip),%rdi        # 211253 <_ZStL8__ioinit>
    30fb:	e8 10 fe ff ff       	callq  2f10 <_ZNSt8ios_base4InitC1Ev@plt>
    3100:	48 8b 3d f1 de 20 00 	mov    0x20def1(%rip),%rdi        # 210ff8 <_ZNSt8ios_base4InitD1Ev@GLIBCXX_3.4>
    3107:	48 83 c4 08          	add    $0x8,%rsp
    310b:	48 8d 15 f6 de 20 00 	lea    0x20def6(%rip),%rdx        # 211008 <__dso_handle>
    3112:	48 8d 35 3a e1 20 00 	lea    0x20e13a(%rip),%rsi        # 211253 <_ZStL8__ioinit>
    3119:	e9 62 fc ff ff       	jmpq   2d80 <__cxa_atexit@plt>
    311e:	66 90                	xchg   %ax,%ax

0000000000003120 <_GLOBAL__sub_I_csr_matrix.cpp>:
    3120:	48 83 ec 08          	sub    $0x8,%rsp
    3124:	48 8d 3d 29 e1 20 00 	lea    0x20e129(%rip),%rdi        # 211254 <_ZStL8__ioinit>
    312b:	e8 e0 fd ff ff       	callq  2f10 <_ZNSt8ios_base4InitC1Ev@plt>
    3130:	48 8b 3d c1 de 20 00 	mov    0x20dec1(%rip),%rdi        # 210ff8 <_ZNSt8ios_base4InitD1Ev@GLIBCXX_3.4>
    3137:	48 83 c4 08          	add    $0x8,%rsp
    313b:	48 8d 15 c6 de 20 00 	lea    0x20dec6(%rip),%rdx        # 211008 <__dso_handle>
    3142:	48 8d 35 0b e1 20 00 	lea    0x20e10b(%rip),%rsi        # 211254 <_ZStL8__ioinit>
    3149:	e9 32 fc ff ff       	jmpq   2d80 <__cxa_atexit@plt>
    314e:	66 90                	xchg   %ax,%ax

0000000000003150 <_GLOBAL__sub_I__ZN4util13internal_freeEPvNS_8PlatformE>:
    3150:	48 83 ec 08          	sub    $0x8,%rsp
    3154:	48 8d 3d fa e0 20 00 	lea    0x20e0fa(%rip),%rdi        # 211255 <_ZStL8__ioinit>
    315b:	e8 b0 fd ff ff       	callq  2f10 <_ZNSt8ios_base4InitC1Ev@plt>
    3160:	48 8b 3d 91 de 20 00 	mov    0x20de91(%rip),%rdi        # 210ff8 <_ZNSt8ios_base4InitD1Ev@GLIBCXX_3.4>
    3167:	48 83 c4 08          	add    $0x8,%rsp
    316b:	48 8d 15 96 de 20 00 	lea    0x20de96(%rip),%rdx        # 211008 <__dso_handle>
    3172:	48 8d 35 dc e0 20 00 	lea    0x20e0dc(%rip),%rsi        # 211255 <_ZStL8__ioinit>
    3179:	e9 02 fc ff ff       	jmpq   2d80 <__cxa_atexit@plt>
    317e:	66 90                	xchg   %ax,%ax

0000000000003180 <main>:
    3180:	41 57                	push   %r15
    3182:	41 56                	push   %r14
    3184:	41 55                	push   %r13
    3186:	41 54                	push   %r12
    3188:	55                   	push   %rbp
    3189:	53                   	push   %rbx
    318a:	48 89 f3             	mov    %rsi,%rbx
    318d:	48 81 ec 48 28 00 00 	sub    $0x2848,%rsp
    3194:	64 48 8b 04 25 28 00 	mov    %fs:0x28,%rax
    319b:	00 00 
    319d:	48 89 84 24 38 28 00 	mov    %rax,0x2838(%rsp)
    31a4:	00 
    31a5:	31 c0                	xor    %eax,%eax
    31a7:	83 ff 04             	cmp    $0x4,%edi
    31aa:	0f 84 c4 00 00 00    	je     3274 <main+0xf4>
    31b0:	ba 07 00 00 00       	mov    $0x7,%edx
    31b5:	48 8d 35 12 a2 00 00 	lea    0xa212(%rip),%rsi        # d3ce <_ZTSSt5_BindIFMN6matrix6sparse9CSRMatrixIidEEFvPdPKdEPS3_St12_PlaceholderILi1EESA_ILi2EEEE+0x22e>
    31bc:	48 8d 3d 7d df 20 00 	lea    0x20df7d(%rip),%rdi        # 211140 <_ZSt4cerr@@GLIBCXX_3.4>
    31c3:	e8 58 fc ff ff       	callq  2e20 <_ZSt16__ostream_insertIcSt11char_traitsIcEERSt13basic_ostreamIT_T0_ES6_PKS3_l@plt>
    31c8:	48 8b 33             	mov    (%rbx),%rsi
    31cb:	48 8d 3d 6e df 20 00 	lea    0x20df6e(%rip),%rdi        # 211140 <_ZSt4cerr@@GLIBCXX_3.4>
    31d2:	e8 f9 fb ff ff       	callq  2dd0 <_ZStlsISt11char_traitsIcEERSt13basic_ostreamIcT_ES5_PKc@plt>
    31d7:	ba 14 00 00 00       	mov    $0x14,%edx
    31dc:	48 8d 35 f3 a1 00 00 	lea    0xa1f3(%rip),%rsi        # d3d6 <_ZTSSt5_BindIFMN6matrix6sparse9CSRMatrixIidEEFvPdPKdEPS3_St12_PlaceholderILi1EESA_ILi2EEEE+0x236>
    31e3:	48 89 c3             	mov    %rax,%rbx
    31e6:	48 89 c7             	mov    %rax,%rdi
    31e9:	e8 32 fc ff ff       	callq  2e20 <_ZSt16__ostream_insertIcSt11char_traitsIcEERSt13basic_ostreamIT_T0_ES6_PKS3_l@plt>
    31ee:	ba 23 00 00 00       	mov    $0x23,%edx
    31f3:	48 8d 35 ae a0 00 00 	lea    0xa0ae(%rip),%rsi        # d2a8 <_ZTSSt5_BindIFMN6matrix6sparse9CSRMatrixIidEEFvPdPKdEPS3_St12_PlaceholderILi1EESA_ILi2EEEE+0x108>
    31fa:	48 89 df             	mov    %rbx,%rdi
    31fd:	e8 1e fc ff ff       	callq  2e20 <_ZSt16__ostream_insertIcSt11char_traitsIcEERSt13basic_ostreamIT_T0_ES6_PKS3_l@plt>
    3202:	ba 20 00 00 00       	mov    $0x20,%edx
    3207:	48 8d 35 c2 a0 00 00 	lea    0xa0c2(%rip),%rsi        # d2d0 <_ZTSSt5_BindIFMN6matrix6sparse9CSRMatrixIidEEFvPdPKdEPS3_St12_PlaceholderILi1EESA_ILi2EEEE+0x130>
    320e:	48 89 df             	mov    %rbx,%rdi
    3211:	e8 0a fc ff ff       	callq  2e20 <_ZSt16__ostream_insertIcSt11char_traitsIcEERSt13basic_ostreamIT_T0_ES6_PKS3_l@plt>
    3216:	ba 27 00 00 00       	mov    $0x27,%edx
    321b:	48 8d 35 d6 a0 00 00 	lea    0xa0d6(%rip),%rsi        # d2f8 <_ZTSSt5_BindIFMN6matrix6sparse9CSRMatrixIidEEFvPdPKdEPS3_St12_PlaceholderILi1EESA_ILi2EEEE+0x158>
    3222:	48 89 df             	mov    %rbx,%rdi
    3225:	e8 f6 fb ff ff       	callq  2e20 <_ZSt16__ostream_insertIcSt11char_traitsIcEERSt13basic_ostreamIT_T0_ES6_PKS3_l@plt>
    322a:	ba 38 00 00 00       	mov    $0x38,%edx
    322f:	48 8d 35 ea a0 00 00 	lea    0xa0ea(%rip),%rsi        # d320 <_ZTSSt5_BindIFMN6matrix6sparse9CSRMatrixIidEEFvPdPKdEPS3_St12_PlaceholderILi1EESA_ILi2EEEE+0x180>
    3236:	48 89 df             	mov    %rbx,%rdi
    3239:	e8 e2 fb ff ff       	callq  2e20 <_ZSt16__ostream_insertIcSt11char_traitsIcEERSt13basic_ostreamIT_T0_ES6_PKS3_l@plt>
    323e:	48 89 df             	mov    %rbx,%rdi
    3241:	e8 5a fa ff ff       	callq  2ca0 <_ZSt4endlIcSt11char_traitsIcEERSt13basic_ostreamIT_T0_ES6_@plt>
    3246:	b8 01 00 00 00       	mov    $0x1,%eax
    324b:	48 8b b4 24 38 28 00 	mov    0x2838(%rsp),%rsi
    3252:	00 
    3253:	64 48 33 34 25 28 00 	xor    %fs:0x28,%rsi
    325a:	00 00 
    325c:	0f 85 26 0f 00 00    	jne    4188 <main+0x1008>
    3262:	48 81 c4 48 28 00 00 	add    $0x2848,%rsp
    3269:	5b                   	pop    %rbx
    326a:	5d                   	pop    %rbp
    326b:	41 5c                	pop    %r12
    326d:	41 5d                	pop    %r13
    326f:	41 5e                	pop    %r14
    3271:	41 5f                	pop    %r15
    3273:	c3                   	retq   
    3274:	48 8b 7e 10          	mov    0x10(%rsi),%rdi
    3278:	4c 8b 76 08          	mov    0x8(%rsi),%r14
    327c:	ba 0a 00 00 00       	mov    $0xa,%edx
    3281:	31 f6                	xor    %esi,%esi
    3283:	e8 28 fc ff ff       	callq  2eb0 <strtol@plt>
    3288:	48 8b 7b 18          	mov    0x18(%rbx),%rdi
    328c:	ba 0a 00 00 00       	mov    $0xa,%edx
    3291:	31 f6                	xor    %esi,%esi
    3293:	48 89 c5             	mov    %rax,%rbp
    3296:	41 89 c5             	mov    %eax,%r13d
    3299:	e8 12 fc ff ff       	callq  2eb0 <strtol@plt>
    329e:	ba 08 00 00 00       	mov    $0x8,%edx
    32a3:	48 8d 35 41 a1 00 00 	lea    0xa141(%rip),%rsi        # d3eb <_ZTSSt5_BindIFMN6matrix6sparse9CSRMatrixIidEEFvPdPKdEPS3_St12_PlaceholderILi1EESA_ILi2EEEE+0x24b>
    32aa:	48 8d 3d 6f dd 20 00 	lea    0x20dd6f(%rip),%rdi        # 211020 <_ZSt4cout@@GLIBCXX_3.4>
    32b1:	49 89 c4             	mov    %rax,%r12
    32b4:	e8 67 fb ff ff       	callq  2e20 <_ZSt16__ostream_insertIcSt11char_traitsIcEERSt13basic_ostreamIT_T0_ES6_PKS3_l@plt>
    32b9:	4c 89 f6             	mov    %r14,%rsi
    32bc:	48 8d 3d 5d dd 20 00 	lea    0x20dd5d(%rip),%rdi        # 211020 <_ZSt4cout@@GLIBCXX_3.4>
    32c3:	e8 08 fb ff ff       	callq  2dd0 <_ZStlsISt11char_traitsIcEERSt13basic_ostreamIcT_ES5_PKc@plt>
    32c8:	48 8d 35 dc 95 00 00 	lea    0x95dc(%rip),%rsi        # c8ab <_IO_stdin_used+0x1eb>
    32cf:	48 89 c7             	mov    %rax,%rdi
    32d2:	e8 f9 fa ff ff       	callq  2dd0 <_ZStlsISt11char_traitsIcEERSt13basic_ostreamIcT_ES5_PKc@plt>
    32d7:	ba 08 00 00 00       	mov    $0x8,%edx
    32dc:	48 8d 35 11 a1 00 00 	lea    0xa111(%rip),%rsi        # d3f4 <_ZTSSt5_BindIFMN6matrix6sparse9CSRMatrixIidEEFvPdPKdEPS3_St12_PlaceholderILi1EESA_ILi2EEEE+0x254>
    32e3:	48 8d 3d 36 dd 20 00 	lea    0x20dd36(%rip),%rdi        # 211020 <_ZSt4cout@@GLIBCXX_3.4>
    32ea:	e8 31 fb ff ff       	callq  2e20 <_ZSt16__ostream_insertIcSt11char_traitsIcEERSt13basic_ostreamIT_T0_ES6_PKS3_l@plt>
    32ef:	89 ee                	mov    %ebp,%esi
    32f1:	48 8d 3d 28 dd 20 00 	lea    0x20dd28(%rip),%rdi        # 211020 <_ZSt4cout@@GLIBCXX_3.4>
    32f8:	e8 d3 fc ff ff       	callq  2fd0 <_ZNSolsEi@plt>
    32fd:	48 8d 35 a7 95 00 00 	lea    0x95a7(%rip),%rsi        # c8ab <_IO_stdin_used+0x1eb>
    3304:	48 89 c7             	mov    %rax,%rdi
    3307:	e8 c4 fa ff ff       	callq  2dd0 <_ZStlsISt11char_traitsIcEERSt13basic_ostreamIcT_ES5_PKc@plt>
    330c:	ba 09 00 00 00       	mov    $0x9,%edx
    3311:	48 8d 35 e5 a0 00 00 	lea    0xa0e5(%rip),%rsi        # d3fd <_ZTSSt5_BindIFMN6matrix6sparse9CSRMatrixIidEEFvPdPKdEPS3_St12_PlaceholderILi1EESA_ILi2EEEE+0x25d>
    3318:	48 8d 3d 01 dd 20 00 	lea    0x20dd01(%rip),%rdi        # 211020 <_ZSt4cout@@GLIBCXX_3.4>
    331f:	e8 fc fa ff ff       	callq  2e20 <_ZSt16__ostream_insertIcSt11char_traitsIcEERSt13basic_ostreamIT_T0_ES6_PKS3_l@plt>
    3324:	44 89 e6             	mov    %r12d,%esi
    3327:	48 8d 3d f2 dc 20 00 	lea    0x20dcf2(%rip),%rdi        # 211020 <_ZSt4cout@@GLIBCXX_3.4>
    332e:	e8 9d fc ff ff       	callq  2fd0 <_ZNSolsEi@plt>
    3333:	48 8d 35 71 95 00 00 	lea    0x9571(%rip),%rsi        # c8ab <_IO_stdin_used+0x1eb>
    333a:	48 89 c7             	mov    %rax,%rdi
    333d:	e8 8e fa ff ff       	callq  2dd0 <_ZStlsISt11char_traitsIcEERSt13basic_ostreamIcT_ES5_PKc@plt>
    3342:	31 ff                	xor    %edi,%edi
    3344:	e8 17 fd ff ff       	callq  3060 <omp_set_dynamic@plt>
    3349:	44 89 e7             	mov    %r12d,%edi
    334c:	e8 bf fa ff ff       	callq  2e10 <omp_set_num_threads@plt>
    3351:	48 8b 73 08          	mov    0x8(%rbx),%rsi
    3355:	48 83 ca ff          	or     $0xffffffffffffffff,%rdx
    3359:	48 8d 84 24 e0 00 00 	lea    0xe0(%rsp),%rax
    3360:	00 
    3361:	48 89 04 24          	mov    %rax,(%rsp)
    3365:	48 8d 84 24 f0 00 00 	lea    0xf0(%rsp),%rax
    336c:	00 
    336d:	48 89 84 24 e0 00 00 	mov    %rax,0xe0(%rsp)
    3374:	00 
    3375:	48 85 f6             	test   %rsi,%rsi
    3378:	74 15                	je     338f <main+0x20f>
    337a:	31 c0                	xor    %eax,%eax
    337c:	48 89 d1             	mov    %rdx,%rcx
    337f:	48 89 f7             	mov    %rsi,%rdi
    3382:	f2 ae                	repnz scas %es:(%rdi),%al
    3384:	48 89 c8             	mov    %rcx,%rax
    3387:	48 f7 d0             	not    %rax
    338a:	48 8d 54 06 ff       	lea    -0x1(%rsi,%rax,1),%rdx
    338f:	48 8b 3c 24          	mov    (%rsp),%rdi
    3393:	e8 68 8e 00 00       	callq  c200 <_ZNSt7__cxx1112basic_stringIcSt11char_traitsIcESaIcEE12_M_constructIPKcEEvT_S8_St20forward_iterator_tag.isra.42>
    3398:	48 8d 84 24 00 01 00 	lea    0x100(%rsp),%rax
    339f:	00 
    33a0:	48 c7 84 24 08 01 00 	movq   $0x0,0x108(%rsp)
    33a7:	00 00 00 00 00 
    33ac:	48 89 44 24 10       	mov    %rax,0x10(%rsp)
    33b1:	48 8d 84 24 10 01 00 	lea    0x110(%rsp),%rax
    33b8:	00 
    33b9:	48 89 84 24 00 01 00 	mov    %rax,0x100(%rsp)
    33c0:	00 
    33c1:	c6 84 24 10 01 00 00 	movb   $0x0,0x110(%rsp)
    33c8:	00 
    33c9:	85 ed                	test   %ebp,%ebp
    33cb:	0f 84 9a 03 00 00    	je     376b <main+0x5eb>
    33d1:	83 ed 01             	sub    $0x1,%ebp
    33d4:	0f 85 a2 03 00 00    	jne    377c <main+0x5fc>
    33da:	48 8b 7c 24 10       	mov    0x10(%rsp),%rdi
    33df:	48 8d 35 25 a0 00 00 	lea    0xa025(%rip),%rsi        # d40b <_ZTSSt5_BindIFMN6matrix6sparse9CSRMatrixIidEEFvPdPKdEPS3_St12_PlaceholderILi1EESA_ILi2EEEE+0x26b>
    33e6:	e8 85 fc ff ff       	callq  3070 <_ZNSt7__cxx1112basic_stringIcSt11char_traitsIcESaIcEE6assignEPKc@plt>
    33eb:	bf 68 00 00 00       	mov    $0x68,%edi
    33f0:	e8 eb f9 ff ff       	callq  2de0 <_Znwm@plt>
    33f5:	48 89 c3             	mov    %rax,%rbx
    33f8:	48 8d 05 61 d3 20 00 	lea    0x20d361(%rip),%rax        # 210760 <_ZTVN6matrix6sparse9CSRMatrixIifEE+0x10>
    33ff:	48 8b 34 24          	mov    (%rsp),%rsi
    3403:	48 89 03             	mov    %rax,(%rbx)
    3406:	48 8d 84 24 20 01 00 	lea    0x120(%rsp),%rax
    340d:	00 
    340e:	c7 43 08 00 00 00 00 	movl   $0x0,0x8(%rbx)
    3415:	48 89 c7             	mov    %rax,%rdi
    3418:	c6 43 18 01          	movb   $0x1,0x18(%rbx)
    341c:	48 c7 43 58 00 00 00 	movq   $0x0,0x58(%rbx)
    3423:	00 
    3424:	48 89 44 24 08       	mov    %rax,0x8(%rsp)
    3429:	e8 a2 39 00 00       	callq  6dd0 <_ZN4util2io3MMFIifEC1ERKNSt7__cxx1112basic_stringIcSt11char_traitsIcESaIcEEE>
    342e:	8b 84 24 20 01 00 00 	mov    0x120(%rsp),%eax
    3435:	8b 94 24 24 01 00 00 	mov    0x124(%rsp),%edx
    343c:	80 bc 24 38 03 00 00 	cmpb   $0x0,0x338(%rsp)
    3443:	00 
    3444:	89 43 0c             	mov    %eax,0xc(%rbx)
    3447:	89 53 10             	mov    %edx,0x10(%rbx)
    344a:	75 0e                	jne    345a <main+0x2da>
    344c:	80 bc 24 39 03 00 00 	cmpb   $0x0,0x339(%rsp)
    3453:	00 
    3454:	0f 84 ad 0a 00 00    	je     3f07 <main+0xd87>
    345a:	48 8b 94 24 48 03 00 	mov    0x348(%rsp),%rdx
    3461:	00 
    3462:	48 2b 94 24 40 03 00 	sub    0x340(%rsp),%rdx
    3469:	00 
    346a:	48 c1 fa 02          	sar    $0x2,%rdx
    346e:	69 d2 ab aa aa aa    	imul   $0xaaaaaaab,%edx,%edx
    3474:	8d 78 01             	lea    0x1(%rax),%edi
    3477:	89 53 14             	mov    %edx,0x14(%rbx)
    347a:	8b 73 08             	mov    0x8(%rbx),%esi
    347d:	48 63 ff             	movslq %edi,%rdi
    3480:	48 c1 e7 02          	shl    $0x2,%rdi
    3484:	e8 47 83 00 00       	callq  b7d0 <_ZN4util14internal_allocEmNS_8PlatformE>
    3489:	48 63 7b 14          	movslq 0x14(%rbx),%rdi
    348d:	8b 73 08             	mov    0x8(%rbx),%esi
    3490:	48 89 43 20          	mov    %rax,0x20(%rbx)
    3494:	48 c1 e7 02          	shl    $0x2,%rdi
    3498:	e8 33 83 00 00       	callq  b7d0 <_ZN4util14internal_allocEmNS_8PlatformE>
    349d:	48 63 7b 14          	movslq 0x14(%rbx),%rdi
    34a1:	8b 73 08             	mov    0x8(%rbx),%esi
    34a4:	48 89 43 28          	mov    %rax,0x28(%rbx)
    34a8:	48 c1 e7 02          	shl    $0x2,%rdi
    34ac:	e8 1f 83 00 00       	callq  b7d0 <_ZN4util14internal_allocEmNS_8PlatformE>
    34b1:	48 89 43 30          	mov    %rax,0x30(%rbx)
    34b5:	4c 8d 7c 24 40       	lea    0x40(%rsp),%r15
    34ba:	c6 43 39 00          	movb   $0x0,0x39(%rbx)
    34be:	c6 43 38 00          	movb   $0x0,0x38(%rbx)
    34c2:	e8 b9 fa ff ff       	callq  2f80 <omp_get_max_threads@plt>
    34c7:	48 c7 43 40 00 00 00 	movq   $0x0,0x40(%rbx)
    34ce:	00 
    34cf:	48 8d 3d 5a 8c 00 00 	lea    0x8c5a(%rip),%rdi        # c130 <_ZN6matrix6sparse9CSRMatrixIifEC2ERKNSt7__cxx1112basic_stringIcSt11char_traitsIcESaIcEEEN4util8PlatformE._omp_fn.6>
    34d6:	31 c9                	xor    %ecx,%ecx
    34d8:	89 43 3c             	mov    %eax,0x3c(%rbx)
    34db:	48 8d b4 24 a0 00 00 	lea    0xa0(%rsp),%rsi
    34e2:	00 
    34e3:	89 c2                	mov    %eax,%edx
    34e5:	48 89 74 24 20       	mov    %rsi,0x20(%rsp)
    34ea:	48 89 9c 24 a0 00 00 	mov    %rbx,0xa0(%rsp)
    34f1:	00 
    34f2:	e8 f9 f9 ff ff       	callq  2ef0 <GOMP_parallel@plt>
    34f7:	48 8b 74 24 08       	mov    0x8(%rsp),%rsi
    34fc:	31 d2                	xor    %edx,%edx
    34fe:	4c 89 ff             	mov    %r15,%rdi
    3501:	e8 0a 25 00 00       	callq  5a10 <_ZN4util2io3MMFIifE8iteratorC1EPS2_m>
    3506:	80 bc 24 38 03 00 00 	cmpb   $0x0,0x338(%rsp)
    350d:	00 
    350e:	75 0e                	jne    351e <main+0x39e>
    3510:	80 bc 24 39 03 00 00 	cmpb   $0x0,0x339(%rsp)
    3517:	00 
    3518:	0f 84 32 0a 00 00    	je     3f50 <main+0xdd0>
    351e:	48 8b 94 24 48 03 00 	mov    0x348(%rsp),%rdx
    3525:	00 
    3526:	48 8b 74 24 08       	mov    0x8(%rsp),%rsi
    352b:	48 8d 7c 24 60       	lea    0x60(%rsp),%rdi
    3530:	48 b8 ab aa aa aa aa 	movabs $0xaaaaaaaaaaaaaaab,%rax
    3537:	aa aa aa 
    353a:	48 2b 94 24 40 03 00 	sub    0x340(%rsp),%rdx
    3541:	00 
    3542:	48 c1 fa 02          	sar    $0x2,%rdx
    3546:	48 0f af d0          	imul   %rax,%rdx
    354a:	e8 c1 24 00 00       	callq  5a10 <_ZN4util2io3MMFIifE8iteratorC1EPS2_m>
    354f:	48 8b 43 20          	mov    0x20(%rbx),%rax
    3553:	48 8b 7c 24 40       	mov    0x40(%rsp),%rdi
    3558:	45 31 e4             	xor    %r12d,%r12d
    355b:	4d 8d 77 10          	lea    0x10(%r15),%r14
    355f:	4c 8b 54 24 60       	mov    0x60(%rsp),%r10
    3564:	44 89 e6             	mov    %r12d,%esi
    3567:	c7 00 00 00 00 00    	movl   $0x0,(%rax)
    356d:	31 c0                	xor    %eax,%eax
    356f:	49 39 fa             	cmp    %rdi,%r10
    3572:	0f 84 ef 00 00 00    	je     3667 <main+0x4e7>
    3578:	0f 1f 84 00 00 00 00 	nopl   0x0(%rax,%rax,1)
    357f:	00 
    3580:	44 0f b6 8f 18 02 00 	movzbl 0x218(%rdi),%r9d
    3587:	00 
    3588:	45 84 c9             	test   %r9b,%r9b
    358b:	0f 85 df 07 00 00    	jne    3d70 <main+0xbf0>
    3591:	80 bf 19 02 00 00 00 	cmpb   $0x0,0x219(%rdi)
    3598:	0f 85 fa 07 00 00    	jne    3d98 <main+0xc18>
    359e:	80 7c 24 5c 00       	cmpb   $0x0,0x5c(%rsp)
    35a3:	0f 84 3f 0a 00 00    	je     3fe8 <main+0xe68>
    35a9:	8b 4c 24 50          	mov    0x50(%rsp),%ecx
    35ad:	8d 69 ff             	lea    -0x1(%rcx),%ebp
    35b0:	8b 4c 24 54          	mov    0x54(%rsp),%ecx
    35b4:	8d 51 ff             	lea    -0x1(%rcx),%edx
    35b7:	4c 89 f1             	mov    %r14,%rcx
    35ba:	c5 fa 10 41 08       	vmovss 0x8(%rcx),%xmm0
    35bf:	39 e8                	cmp    %ebp,%eax
    35c1:	0f 8f 02 0a 00 00    	jg     3fc9 <main+0xe49>
    35c7:	39 6b 0c             	cmp    %ebp,0xc(%rbx)
    35ca:	0f 8e da 09 00 00    	jle    3faa <main+0xe2a>
    35d0:	85 d2                	test   %edx,%edx
    35d2:	0f 88 94 09 00 00    	js     3f6c <main+0xdec>
    35d8:	39 53 10             	cmp    %edx,0x10(%rbx)
    35db:	0f 8e 8b 09 00 00    	jle    3f6c <main+0xdec>
    35e1:	39 73 14             	cmp    %esi,0x14(%rbx)
    35e4:	0f 8e a1 09 00 00    	jle    3f8b <main+0xe0b>
    35ea:	39 e8                	cmp    %ebp,%eax
    35ec:	74 3d                	je     362b <main+0x4ab>
    35ee:	41 89 eb             	mov    %ebp,%r11d
    35f1:	41 29 c3             	sub    %eax,%r11d
    35f4:	45 85 db             	test   %r11d,%r11d
    35f7:	7e 32                	jle    362b <main+0x4ab>
    35f9:	49 63 cd             	movslq %r13d,%rcx
    35fc:	45 8d 43 ff          	lea    -0x1(%r11),%r8d
    3600:	4e 8d 44 01 01       	lea    0x1(%rcx,%r8,1),%r8
    3605:	48 8d 04 8d 00 00 00 	lea    0x0(,%rcx,4),%rax
    360c:	00 
    360d:	49 c1 e0 02          	shl    $0x2,%r8
    3611:	0f 1f 80 00 00 00 00 	nopl   0x0(%rax)
    3618:	48 8b 4b 20          	mov    0x20(%rbx),%rcx
    361c:	89 34 01             	mov    %esi,(%rcx,%rax,1)
    361f:	48 83 c0 04          	add    $0x4,%rax
    3623:	49 39 c0             	cmp    %rax,%r8
    3626:	75 f0                	jne    3618 <main+0x498>
    3628:	45 01 dd             	add    %r11d,%r13d
    362b:	48 8b 43 28          	mov    0x28(%rbx),%rax
    362f:	42 89 14 a0          	mov    %edx,(%rax,%r12,4)
    3633:	48 8b 43 30          	mov    0x30(%rbx),%rax
    3637:	c4 a1 7a 11 04 a0    	vmovss %xmm0,(%rax,%r12,4)
    363d:	48 83 44 24 48 01    	addq   $0x1,0x48(%rsp)
    3643:	45 84 c9             	test   %r9b,%r9b
    3646:	75 0d                	jne    3655 <main+0x4d5>
    3648:	80 bf 19 02 00 00 00 	cmpb   $0x0,0x219(%rdi)
    364f:	0f 84 8b 07 00 00    	je     3de0 <main+0xc60>
    3655:	49 83 c4 01          	add    $0x1,%r12
    3659:	89 e8                	mov    %ebp,%eax
    365b:	44 89 e6             	mov    %r12d,%esi
    365e:	49 39 fa             	cmp    %rdi,%r10
    3661:	0f 85 19 ff ff ff    	jne    3580 <main+0x400>
    3667:	48 8b 54 24 68       	mov    0x68(%rsp),%rdx
    366c:	48 39 54 24 48       	cmp    %rdx,0x48(%rsp)
    3671:	0f 85 09 ff ff ff    	jne    3580 <main+0x400>
    3677:	48 8b 43 20          	mov    0x20(%rbx),%rax
    367b:	49 63 d5             	movslq %r13d,%rdx
    367e:	44 89 24 90          	mov    %r12d,(%rax,%rdx,4)
    3682:	44 39 6b 0c          	cmp    %r13d,0xc(%rbx)
    3686:	0f 85 3f 0a 00 00    	jne    40cb <main+0xf4b>
    368c:	44 3b 63 14          	cmp    0x14(%rbx),%r12d
    3690:	0f 85 16 0a 00 00    	jne    40ac <main+0xf2c>
    3696:	48 8b 44 24 08       	mov    0x8(%rsp),%rax
    369b:	48 8d b8 88 00 00 00 	lea    0x88(%rax),%rdi
    36a2:	e8 59 f5 ff ff       	callq  2c00 <_ZNKSt12__basic_fileIcE7is_openEv@plt>
    36a7:	84 c0                	test   %al,%al
    36a9:	0f 85 64 08 00 00    	jne    3f13 <main+0xd93>
    36af:	48 8b bc 24 40 03 00 	mov    0x340(%rsp),%rdi
    36b6:	00 
    36b7:	48 85 ff             	test   %rdi,%rdi
    36ba:	74 05                	je     36c1 <main+0x541>
    36bc:	e8 ff f6 ff ff       	callq  2dc0 <_ZdlPv@plt>
    36c1:	4c 8b 7c 24 08       	mov    0x8(%rsp),%r15
    36c6:	48 8d 05 03 d2 20 00 	lea    0x20d203(%rip),%rax        # 2108d0 <_ZTVSt14basic_ifstreamIcSt11char_traitsIcEE@@GLIBCXX_3.4+0x18>
    36cd:	48 89 84 24 30 01 00 	mov    %rax,0x130(%rsp)
    36d4:	00 
    36d5:	48 83 c0 28          	add    $0x28,%rax
    36d9:	48 89 84 24 30 02 00 	mov    %rax,0x230(%rsp)
    36e0:	00 
    36e1:	49 8d 7f 20          	lea    0x20(%r15),%rdi
    36e5:	48 8d 05 2c d2 20 00 	lea    0x20d22c(%rip),%rax        # 210918 <_ZTVSt13basic_filebufIcSt11char_traitsIcEE@@GLIBCXX_3.4+0x10>
    36ec:	48 89 84 24 40 01 00 	mov    %rax,0x140(%rsp)
    36f3:	00 
    36f4:	e8 f7 f4 ff ff       	callq  2bf0 <_ZNSt13basic_filebufIcSt11char_traitsIcEE5closeEv@plt>
    36f9:	49 8d bf 88 00 00 00 	lea    0x88(%r15),%rdi
    3700:	e8 3b f9 ff ff       	callq  3040 <_ZNSt12__basic_fileIcED1Ev@plt>
    3705:	48 8d 05 3c d1 20 00 	lea    0x20d13c(%rip),%rax        # 210848 <_ZTVSt15basic_streambufIcSt11char_traitsIcEE@@GLIBCXX_3.4+0x10>
    370c:	49 8d 7f 58          	lea    0x58(%r15),%rdi
    3710:	48 89 84 24 40 01 00 	mov    %rax,0x140(%rsp)
    3717:	00 
    3718:	e8 a3 f7 ff ff       	callq  2ec0 <_ZNSt6localeD1Ev@plt>
    371d:	48 8b 05 6c d2 20 00 	mov    0x20d26c(%rip),%rax        # 210990 <_ZTTSt14basic_ifstreamIcSt11char_traitsIcEE@@GLIBCXX_3.4+0x8>
    3724:	48 8b 15 6d d2 20 00 	mov    0x20d26d(%rip),%rdx        # 210998 <_ZTTSt14basic_ifstreamIcSt11char_traitsIcEE@@GLIBCXX_3.4+0x10>
    372b:	49 8d bf 10 01 00 00 	lea    0x110(%r15),%rdi
    3732:	48 89 84 24 30 01 00 	mov    %rax,0x130(%rsp)
    3739:	00 
    373a:	48 8b 40 e8          	mov    -0x18(%rax),%rax
    373e:	48 89 94 04 30 01 00 	mov    %rdx,0x130(%rsp,%rax,1)
    3745:	00 
    3746:	48 8d 05 db d0 20 00 	lea    0x20d0db(%rip),%rax        # 210828 <_ZTVSt9basic_iosIcSt11char_traitsIcEE@@GLIBCXX_3.4+0x10>
    374d:	48 c7 84 24 38 01 00 	movq   $0x0,0x138(%rsp)
    3754:	00 00 00 00 00 
    3759:	48 89 84 24 30 02 00 	mov    %rax,0x230(%rsp)
    3760:	00 
    3761:	e8 da f4 ff ff       	callq  2c40 <_ZNSt8ios_baseD2Ev@plt>
    3766:	e9 e7 02 00 00       	jmpq   3a52 <main+0x8d2>
    376b:	48 8b 7c 24 10       	mov    0x10(%rsp),%rdi
    3770:	48 8d 35 90 9c 00 00 	lea    0x9c90(%rip),%rsi        # d407 <_ZTSSt5_BindIFMN6matrix6sparse9CSRMatrixIidEEFvPdPKdEPS3_St12_PlaceholderILi1EESA_ILi2EEEE+0x267>
    3777:	e8 f4 f8 ff ff       	callq  3070 <_ZNSt7__cxx1112basic_stringIcSt11char_traitsIcESaIcEE6assignEPKc@plt>
    377c:	bf 58 00 00 00       	mov    $0x58,%edi
    3781:	e8 5a f6 ff ff       	callq  2de0 <_Znwm@plt>
    3786:	48 89 c3             	mov    %rax,%rbx
    3789:	48 8d 05 20 cf 20 00 	lea    0x20cf20(%rip),%rax        # 2106b0 <_ZTVN6matrix6sparse9COOMatrixIifEE+0x10>
    3790:	48 8d ac 24 b0 14 00 	lea    0x14b0(%rsp),%rbp
    3797:	00 
    3798:	48 89 03             	mov    %rax,(%rbx)
    379b:	c7 43 08 00 00 00 00 	movl   $0x0,0x8(%rbx)
    37a2:	e8 d9 f7 ff ff       	callq  2f80 <omp_get_max_threads@plt>
    37a7:	c6 43 1c 01          	movb   $0x1,0x1c(%rbx)
    37ab:	48 8b 34 24          	mov    (%rsp),%rsi
    37af:	48 89 ef             	mov    %rbp,%rdi
    37b2:	89 43 0c             	mov    %eax,0xc(%rbx)
    37b5:	48 c7 43 48 00 00 00 	movq   $0x0,0x48(%rbx)
    37bc:	00 
    37bd:	e8 0e 36 00 00       	callq  6dd0 <_ZN4util2io3MMFIifEC1ERKNSt7__cxx1112basic_stringIcSt11char_traitsIcESaIcEEE>
    37c2:	8b 84 24 b0 14 00 00 	mov    0x14b0(%rsp),%eax
    37c9:	80 bc 24 c8 16 00 00 	cmpb   $0x0,0x16c8(%rsp)
    37d0:	00 
    37d1:	89 43 10             	mov    %eax,0x10(%rbx)
    37d4:	8b 84 24 b4 14 00 00 	mov    0x14b4(%rsp),%eax
    37db:	89 43 14             	mov    %eax,0x14(%rbx)
    37de:	0f 84 6d 05 00 00    	je     3d51 <main+0xbd1>
    37e4:	48 8b 84 24 d8 16 00 	mov    0x16d8(%rsp),%rax
    37eb:	00 
    37ec:	48 2b 84 24 d0 16 00 	sub    0x16d0(%rsp),%rax
    37f3:	00 
    37f4:	48 c1 f8 02          	sar    $0x2,%rax
    37f8:	69 c0 ab aa aa aa    	imul   $0xaaaaaaab,%eax,%eax
    37fe:	89 43 18             	mov    %eax,0x18(%rbx)
    3801:	8b 73 08             	mov    0x8(%rbx),%esi
    3804:	48 98                	cltq   
    3806:	48 8d 3c 85 00 00 00 	lea    0x0(,%rax,4),%rdi
    380d:	00 
    380e:	e8 bd 7f 00 00       	callq  b7d0 <_ZN4util14internal_allocEmNS_8PlatformE>
    3813:	48 63 7b 18          	movslq 0x18(%rbx),%rdi
    3817:	8b 73 08             	mov    0x8(%rbx),%esi
    381a:	48 89 43 20          	mov    %rax,0x20(%rbx)
    381e:	48 c1 e7 02          	shl    $0x2,%rdi
    3822:	e8 a9 7f 00 00       	callq  b7d0 <_ZN4util14internal_allocEmNS_8PlatformE>
    3827:	48 63 7b 18          	movslq 0x18(%rbx),%rdi
    382b:	8b 73 08             	mov    0x8(%rbx),%esi
    382e:	48 89 43 28          	mov    %rax,0x28(%rbx)
    3832:	48 c1 e7 02          	shl    $0x2,%rdi
    3836:	e8 95 7f 00 00       	callq  b7d0 <_ZN4util14internal_allocEmNS_8PlatformE>
    383b:	48 89 43 30          	mov    %rax,0x30(%rbx)
    383f:	4c 8d ac 24 80 00 00 	lea    0x80(%rsp),%r13
    3846:	00 
    3847:	31 d2                	xor    %edx,%edx
    3849:	48 89 ee             	mov    %rbp,%rsi
    384c:	4c 89 ef             	mov    %r13,%rdi
    384f:	e8 bc 21 00 00       	callq  5a10 <_ZN4util2io3MMFIifE8iteratorC1EPS2_m>
    3854:	80 bc 24 c8 16 00 00 	cmpb   $0x0,0x16c8(%rsp)
    385b:	00 
    385c:	75 0e                	jne    386c <main+0x6ec>
    385e:	80 bc 24 c9 16 00 00 	cmpb   $0x0,0x16c9(%rsp)
    3865:	00 
    3866:	0f 84 8e 06 00 00    	je     3efa <main+0xd7a>
    386c:	48 8b 94 24 d8 16 00 	mov    0x16d8(%rsp),%rdx
    3873:	00 
    3874:	48 2b 94 24 d0 16 00 	sub    0x16d0(%rsp),%rdx
    387b:	00 
    387c:	48 b8 ab aa aa aa aa 	movabs $0xaaaaaaaaaaaaaaab,%rax
    3883:	aa aa aa 
    3886:	48 c1 fa 02          	sar    $0x2,%rdx
    388a:	48 0f af d0          	imul   %rax,%rdx
    388e:	48 8d 84 24 a0 00 00 	lea    0xa0(%rsp),%rax
    3895:	00 
    3896:	48 89 ee             	mov    %rbp,%rsi
    3899:	48 89 c7             	mov    %rax,%rdi
    389c:	48 89 44 24 20       	mov    %rax,0x20(%rsp)
    38a1:	e8 6a 21 00 00       	callq  5a10 <_ZN4util2io3MMFIifE8iteratorC1EPS2_m>
    38a6:	48 8b bc 24 80 00 00 	mov    0x80(%rsp),%rdi
    38ad:	00 
    38ae:	48 8b b4 24 a0 00 00 	mov    0xa0(%rsp),%rsi
    38b5:	00 
    38b6:	45 31 e4             	xor    %r12d,%r12d
    38b9:	4d 8d 75 18          	lea    0x18(%r13),%r14
    38bd:	e9 a1 00 00 00       	jmpq   3963 <main+0x7e3>
    38c2:	66 0f 1f 44 00 00    	nopw   0x0(%rax,%rax,1)
    38c8:	80 bf 18 02 00 00 00 	cmpb   $0x0,0x218(%rdi)
    38cf:	0f 85 33 05 00 00    	jne    3e08 <main+0xc88>
    38d5:	80 bf 19 02 00 00 00 	cmpb   $0x0,0x219(%rdi)
    38dc:	0f 85 7e 05 00 00    	jne    3e60 <main+0xce0>
    38e2:	80 bc 24 9c 00 00 00 	cmpb   $0x0,0x9c(%rsp)
    38e9:	00 
    38ea:	0f 84 a4 07 00 00    	je     4094 <main+0xf14>
    38f0:	8b 84 24 90 00 00 00 	mov    0x90(%rsp),%eax
    38f7:	48 8b 53 20          	mov    0x20(%rbx),%rdx
    38fb:	4e 8d 04 a5 00 00 00 	lea    0x0(,%r12,4),%r8
    3902:	00 
    3903:	83 e8 01             	sub    $0x1,%eax
    3906:	42 89 04 a2          	mov    %eax,(%rdx,%r12,4)
    390a:	8b 84 24 94 00 00 00 	mov    0x94(%rsp),%eax
    3911:	48 8b 53 28          	mov    0x28(%rbx),%rdx
    3915:	83 e8 01             	sub    $0x1,%eax
    3918:	42 89 04 a2          	mov    %eax,(%rdx,%r12,4)
    391c:	48 8b 43 30          	mov    0x30(%rbx),%rax
    3920:	49 8d 55 14          	lea    0x14(%r13),%rdx
    3924:	49 8d 75 10          	lea    0x10(%r13),%rsi
    3928:	4c 89 f1             	mov    %r14,%rcx
    392b:	c5 fa 10 84 24 98 00 	vmovss 0x98(%rsp),%xmm0
    3932:	00 00 
    3934:	c4 a1 7a 11 04 00    	vmovss %xmm0,(%rax,%r8,1)
    393a:	48 83 84 24 88 00 00 	addq   $0x1,0x88(%rsp)
    3941:	00 01 
    3943:	e8 b8 1e 00 00       	callq  5800 <_ZN4util2io3MMFIifE7GetNextERiS3_Rf>
    3948:	88 84 24 9c 00 00 00 	mov    %al,0x9c(%rsp)
    394f:	48 8b bc 24 80 00 00 	mov    0x80(%rsp),%rdi
    3956:	00 
    3957:	48 8b b4 24 a0 00 00 	mov    0xa0(%rsp),%rsi
    395e:	00 
    395f:	49 83 c4 01          	add    $0x1,%r12
    3963:	48 39 fe             	cmp    %rdi,%rsi
    3966:	0f 85 5c ff ff ff    	jne    38c8 <main+0x748>
    396c:	48 8b 8c 24 a8 00 00 	mov    0xa8(%rsp),%rcx
    3973:	00 
    3974:	48 39 8c 24 88 00 00 	cmp    %rcx,0x88(%rsp)
    397b:	00 
    397c:	0f 85 46 ff ff ff    	jne    38c8 <main+0x748>
    3982:	44 39 63 18          	cmp    %r12d,0x18(%rbx)
    3986:	0f 85 ca 07 00 00    	jne    4156 <main+0xfd6>
    398c:	48 8d bd 88 00 00 00 	lea    0x88(%rbp),%rdi
    3993:	e8 68 f2 ff ff       	callq  2c00 <_ZNKSt12__basic_fileIcE7is_openEv@plt>
    3998:	84 c0                	test   %al,%al
    399a:	0f 85 27 05 00 00    	jne    3ec7 <main+0xd47>
    39a0:	48 8b bc 24 d0 16 00 	mov    0x16d0(%rsp),%rdi
    39a7:	00 
    39a8:	48 85 ff             	test   %rdi,%rdi
    39ab:	74 05                	je     39b2 <main+0x832>
    39ad:	e8 0e f4 ff ff       	callq  2dc0 <_ZdlPv@plt>
    39b2:	48 8d 05 17 cf 20 00 	lea    0x20cf17(%rip),%rax        # 2108d0 <_ZTVSt14basic_ifstreamIcSt11char_traitsIcEE@@GLIBCXX_3.4+0x18>
    39b9:	48 8d 7d 20          	lea    0x20(%rbp),%rdi
    39bd:	48 89 84 24 c0 14 00 	mov    %rax,0x14c0(%rsp)
    39c4:	00 
    39c5:	48 83 c0 28          	add    $0x28,%rax
    39c9:	48 89 84 24 c0 15 00 	mov    %rax,0x15c0(%rsp)
    39d0:	00 
    39d1:	48 8d 05 40 cf 20 00 	lea    0x20cf40(%rip),%rax        # 210918 <_ZTVSt13basic_filebufIcSt11char_traitsIcEE@@GLIBCXX_3.4+0x10>
    39d8:	48 89 84 24 d0 14 00 	mov    %rax,0x14d0(%rsp)
    39df:	00 
    39e0:	e8 0b f2 ff ff       	callq  2bf0 <_ZNSt13basic_filebufIcSt11char_traitsIcEE5closeEv@plt>
    39e5:	48 8d bd 88 00 00 00 	lea    0x88(%rbp),%rdi
    39ec:	e8 4f f6 ff ff       	callq  3040 <_ZNSt12__basic_fileIcED1Ev@plt>
    39f1:	48 8d 05 50 ce 20 00 	lea    0x20ce50(%rip),%rax        # 210848 <_ZTVSt15basic_streambufIcSt11char_traitsIcEE@@GLIBCXX_3.4+0x10>
    39f8:	48 8d 7d 58          	lea    0x58(%rbp),%rdi
    39fc:	48 89 84 24 d0 14 00 	mov    %rax,0x14d0(%rsp)
    3a03:	00 
    3a04:	e8 b7 f4 ff ff       	callq  2ec0 <_ZNSt6localeD1Ev@plt>
    3a09:	48 8b 05 80 cf 20 00 	mov    0x20cf80(%rip),%rax        # 210990 <_ZTTSt14basic_ifstreamIcSt11char_traitsIcEE@@GLIBCXX_3.4+0x8>
    3a10:	48 8b 15 81 cf 20 00 	mov    0x20cf81(%rip),%rdx        # 210998 <_ZTTSt14basic_ifstreamIcSt11char_traitsIcEE@@GLIBCXX_3.4+0x10>
    3a17:	48 8d bd 10 01 00 00 	lea    0x110(%rbp),%rdi
    3a1e:	48 89 84 24 c0 14 00 	mov    %rax,0x14c0(%rsp)
    3a25:	00 
    3a26:	48 8b 40 e8          	mov    -0x18(%rax),%rax
    3a2a:	48 89 94 04 c0 14 00 	mov    %rdx,0x14c0(%rsp,%rax,1)
    3a31:	00 
    3a32:	48 8d 05 ef cd 20 00 	lea    0x20cdef(%rip),%rax        # 210828 <_ZTVSt9basic_iosIcSt11char_traitsIcEE@@GLIBCXX_3.4+0x10>
    3a39:	48 c7 84 24 c8 14 00 	movq   $0x0,0x14c8(%rsp)
    3a40:	00 00 00 00 00 
    3a45:	48 89 84 24 c0 15 00 	mov    %rax,0x15c0(%rsp)
    3a4c:	00 
    3a4d:	e8 ee f1 ff ff       	callq  2c40 <_ZNSt8ios_baseD2Ev@plt>
    3a52:	48 8b 03             	mov    (%rbx),%rax
    3a55:	48 89 df             	mov    %rbx,%rdi
    3a58:	ff 50 10             	callq  *0x10(%rax)
    3a5b:	41 89 c4             	mov    %eax,%r12d
    3a5e:	48 8b 03             	mov    (%rbx),%rax
    3a61:	48 89 df             	mov    %rbx,%rdi
    3a64:	ff 50 18             	callq  *0x18(%rax)
    3a67:	41 89 c5             	mov    %eax,%r13d
    3a6a:	48 8b 03             	mov    (%rbx),%rax
    3a6d:	48 89 df             	mov    %rbx,%rdi
    3a70:	ff 50 20             	callq  *0x20(%rax)
    3a73:	48 8d ac 24 b0 14 00 	lea    0x14b0(%rsp),%rbp
    3a7a:	00 
    3a7b:	48 8d 15 94 99 00 00 	lea    0x9994(%rip),%rdx        # d416 <_ZTSSt5_BindIFMN6matrix6sparse9CSRMatrixIidEEFvPdPKdEPS3_St12_PlaceholderILi1EESA_ILi2EEEE+0x276>
    3a82:	89 44 24 2c          	mov    %eax,0x2c(%rsp)
    3a86:	48 8d 72 f9          	lea    -0x7(%rdx),%rsi
    3a8a:	48 8d 45 10          	lea    0x10(%rbp),%rax
    3a8e:	48 89 ef             	mov    %rbp,%rdi
    3a91:	48 89 84 24 b0 14 00 	mov    %rax,0x14b0(%rsp)
    3a98:	00 
    3a99:	e8 62 87 00 00       	callq  c200 <_ZNSt7__cxx1112basic_stringIcSt11char_traitsIcESaIcEE12_M_constructIPKcEEvT_S8_St20forward_iterator_tag.isra.42>
    3a9e:	48 8d 84 24 20 01 00 	lea    0x120(%rsp),%rax
    3aa5:	00 
    3aa6:	48 89 ee             	mov    %rbp,%rsi
    3aa9:	48 89 c7             	mov    %rax,%rdi
    3aac:	48 89 44 24 08       	mov    %rax,0x8(%rsp)
    3ab1:	e8 ea f4 ff ff       	callq  2fa0 <_ZNSt13random_device7_M_initERKNSt7__cxx1112basic_stringIcSt11char_traitsIcESaIcEEE@plt>
    3ab6:	48 8b bc 24 b0 14 00 	mov    0x14b0(%rsp),%rdi
    3abd:	00 
    3abe:	48 8d 45 10          	lea    0x10(%rbp),%rax
    3ac2:	48 39 c7             	cmp    %rax,%rdi
    3ac5:	74 05                	je     3acc <main+0x94c>
    3ac7:	e8 f4 f2 ff ff       	callq  2dc0 <_ZdlPv@plt>
    3acc:	48 8b 7c 24 08       	mov    0x8(%rsp),%rdi
    3ad1:	e8 ca f3 ff ff       	callq  2ea0 <_ZNSt13random_device9_M_getvalEv@plt>
    3ad6:	89 c0                	mov    %eax,%eax
    3ad8:	b9 01 00 00 00       	mov    $0x1,%ecx
    3add:	48 89 84 24 b0 14 00 	mov    %rax,0x14b0(%rsp)
    3ae4:	00 
    3ae5:	48 89 c2             	mov    %rax,%rdx
    3ae8:	0f 1f 84 00 00 00 00 	nopl   0x0(%rax,%rax,1)
    3aef:	00 
    3af0:	48 89 d0             	mov    %rdx,%rax
    3af3:	48 c1 e8 1e          	shr    $0x1e,%rax
    3af7:	48 31 d0             	xor    %rdx,%rax
    3afa:	48 69 c0 65 89 07 6c 	imul   $0x6c078965,%rax,%rax
    3b01:	8d 14 08             	lea    (%rax,%rcx,1),%edx
    3b04:	48 89 54 cd 00       	mov    %rdx,0x0(%rbp,%rcx,8)
    3b09:	48 83 c1 01          	add    $0x1,%rcx
    3b0d:	48 81 f9 70 02 00 00 	cmp    $0x270,%rcx
    3b14:	75 da                	jne    3af0 <main+0x970>
    3b16:	c5 f9 28 05 32 9c 00 	vmovapd 0x9c32(%rip),%xmm0        # d750 <_ZZN6matrix6sparse9CSRMatrixIifEC4ERKNSt7__cxx1112basic_stringIcSt11char_traitsIcESaIcEEEN4util8PlatformEE19__PRETTY_FUNCTION__+0x170>
    3b1d:	00 
    3b1e:	49 63 fc             	movslq %r12d,%rdi
    3b21:	31 f6                	xor    %esi,%esi
    3b23:	48 c7 84 24 30 28 00 	movq   $0x270,0x2830(%rsp)
    3b2a:	00 70 02 00 00 
    3b2f:	48 c1 e7 02          	shl    $0x2,%rdi
    3b33:	c5 f8 29 84 24 80 00 	vmovaps %xmm0,0x80(%rsp)
    3b3a:	00 00 
    3b3c:	e8 8f 7c 00 00       	callq  b7d0 <_ZN4util14internal_allocEmNS_8PlatformE>
    3b41:	48 8b 74 24 20       	mov    0x20(%rsp),%rsi
    3b46:	48 8d 3d 13 7d 00 00 	lea    0x7d13(%rip),%rdi        # b860 <main._omp_fn.0>
    3b4d:	31 c9                	xor    %ecx,%ecx
    3b4f:	31 d2                	xor    %edx,%edx
    3b51:	49 89 c6             	mov    %rax,%r14
    3b54:	48 89 84 24 a0 00 00 	mov    %rax,0xa0(%rsp)
    3b5b:	00 
    3b5c:	44 89 a4 24 a8 00 00 	mov    %r12d,0xa8(%rsp)
    3b63:	00 
    3b64:	e8 87 f3 ff ff       	callq  2ef0 <GOMP_parallel@plt>
    3b69:	49 63 fd             	movslq %r13d,%rdi
    3b6c:	31 f6                	xor    %esi,%esi
    3b6e:	48 c1 e7 02          	shl    $0x2,%rdi
    3b72:	e8 59 7c 00 00       	callq  b7d0 <_ZN4util14internal_allocEmNS_8PlatformE>
    3b77:	c4 e1 f9 6e dd       	vmovq  %rbp,%xmm3
    3b7c:	48 8b 74 24 20       	mov    0x20(%rsp),%rsi
    3b81:	49 89 c7             	mov    %rax,%r15
    3b84:	31 d2                	xor    %edx,%edx
    3b86:	48 89 84 24 b0 00 00 	mov    %rax,0xb0(%rsp)
    3b8d:	00 
    3b8e:	48 8d 84 24 80 00 00 	lea    0x80(%rsp),%rax
    3b95:	00 
    3b96:	31 c9                	xor    %ecx,%ecx
    3b98:	48 8d 3d 31 7d 00 00 	lea    0x7d31(%rip),%rdi        # b8d0 <main._omp_fn.1>
    3b9f:	c4 e3 e1 22 c0 01    	vpinsrq $0x1,%rax,%xmm3,%xmm0
    3ba5:	44 89 ac 24 b8 00 00 	mov    %r13d,0xb8(%rsp)
    3bac:	00 
    3bad:	c5 f8 29 84 24 a0 00 	vmovaps %xmm0,0xa0(%rsp)
    3bb4:	00 00 
    3bb6:	e8 35 f3 ff ff       	callq  2ef0 <GOMP_parallel@plt>
    3bbb:	e8 40 f4 ff ff       	callq  3000 <omp_get_wtime@plt>
    3bc0:	48 8b 03             	mov    (%rbx),%rax
    3bc3:	48 89 5c 24 60       	mov    %rbx,0x60(%rsp)
    3bc8:	31 f6                	xor    %esi,%esi
    3bca:	c5 fb 11 44 24 30    	vmovsd %xmm0,0x30(%rsp)
    3bd0:	ba 01 00 00 00       	mov    $0x1,%edx
    3bd5:	48 89 df             	mov    %rbx,%rdi
    3bd8:	ff 50 38             	callq  *0x38(%rax)
    3bdb:	e8 20 f4 ff ff       	callq  3000 <omp_get_wtime@plt>
    3be0:	48 8d 6c 24 60       	lea    0x60(%rsp),%rbp
    3be5:	45 89 e8             	mov    %r13d,%r8d
    3be8:	4c 89 f9             	mov    %r15,%rcx
    3beb:	c5 fb 5c 64 24 30    	vsubsd 0x30(%rsp),%xmm0,%xmm4
    3bf1:	44 89 e2             	mov    %r12d,%edx
    3bf4:	4c 89 f6             	mov    %r14,%rsi
    3bf7:	48 89 ef             	mov    %rbp,%rdi
    3bfa:	c5 fb 11 64 24 30    	vmovsd %xmm4,0x30(%rsp)
    3c00:	e8 9b 89 00 00       	callq  c5a0 <_ZN6kernel6sparse5SpDMVIifEclEPfiPKfi>
    3c05:	e8 f6 f3 ff ff       	callq  3000 <omp_get_wtime@plt>
    3c0a:	48 8d 35 06 98 00 00 	lea    0x9806(%rip),%rsi        # d417 <_ZTSSt5_BindIFMN6matrix6sparse9CSRMatrixIidEEFvPdPKdEPS3_St12_PlaceholderILi1EESA_ILi2EEEE+0x277>
    3c11:	bf 01 00 00 00       	mov    $0x1,%edi
    3c16:	31 c0                	xor    %eax,%eax
    3c18:	c5 fb 11 44 24 38    	vmovsd %xmm0,0x38(%rsp)
    3c1e:	e8 ad ef ff ff       	callq  2bd0 <__printf_chk@plt>
    3c23:	b9 01 04 00 00       	mov    $0x401,%ecx
    3c28:	48 87 c9             	xchg   %rcx,%rcx
    3c2b:	b9 07 04 00 00       	mov    $0x407,%ecx
    3c30:	48 87 c9             	xchg   %rcx,%rcx
    3c33:	45 89 e8             	mov    %r13d,%r8d
    3c36:	4c 89 f9             	mov    %r15,%rcx
    3c39:	44 89 e2             	mov    %r12d,%edx
    3c3c:	4c 89 f6             	mov    %r14,%rsi
    3c3f:	48 89 ef             	mov    %rbp,%rdi
    3c42:	e8 59 89 00 00       	callq  c5a0 <_ZN6kernel6sparse5SpDMVIifEclEPfiPKfi>
    3c47:	b9 08 04 00 00       	mov    $0x408,%ecx
    3c4c:	48 87 c9             	xchg   %rcx,%rcx
    3c4f:	b9 02 04 00 00       	mov    $0x402,%ecx
    3c54:	48 87 c9             	xchg   %rcx,%rcx
    3c57:	48 8d 35 cc 97 00 00 	lea    0x97cc(%rip),%rsi        # d42a <_ZTSSt5_BindIFMN6matrix6sparse9CSRMatrixIidEEFvPdPKdEPS3_St12_PlaceholderILi1EESA_ILi2EEEE+0x28a>
    3c5e:	bf 01 00 00 00       	mov    $0x1,%edi
    3c63:	31 c0                	xor    %eax,%eax
    3c65:	e8 66 ef ff ff       	callq  2bd0 <__printf_chk@plt>
    3c6a:	c5 fa 7e 34 24       	vmovq  (%rsp),%xmm6
    3c6f:	4c 8b 7c 24 10       	mov    0x10(%rsp),%r15
    3c74:	c4 c3 c9 22 d7 01    	vpinsrq $0x1,%r15,%xmm6,%xmm2
    3c7a:	c5 f8 29 54 24 10    	vmovaps %xmm2,0x10(%rsp)
    3c80:	e8 7b f3 ff ff       	callq  3000 <omp_get_wtime@plt>
    3c85:	c5 f1 57 c9          	vxorpd %xmm1,%xmm1,%xmm1
    3c89:	48 8b 74 24 20       	mov    0x20(%rsp),%rsi
    3c8e:	31 c9                	xor    %ecx,%ecx
    3c90:	c5 f3 2a 4c 24 2c    	vcvtsi2sdl 0x2c(%rsp),%xmm1,%xmm1
    3c96:	c5 fb 5c 44 24 38    	vsubsd 0x38(%rsp),%xmm0,%xmm0
    3c9c:	c5 fb 10 64 24 30    	vmovsd 0x30(%rsp),%xmm4
    3ca2:	31 d2                	xor    %edx,%edx
    3ca4:	c5 f9 6f 54 24 10    	vmovdqa 0x10(%rsp),%xmm2
    3caa:	48 8d 3d 0f 86 00 00 	lea    0x860f(%rip),%rdi        # c2c0 <main._omp_fn.2>
    3cb1:	c7 84 24 d0 00 00 00 	movl   $0x1,0xd0(%rsp)
    3cb8:	01 00 00 00 
    3cbc:	c5 fb 11 a4 24 b8 00 	vmovsd %xmm4,0xb8(%rsp)
    3cc3:	00 00 
    3cc5:	c5 fb 11 84 24 b0 00 	vmovsd %xmm0,0xb0(%rsp)
    3ccc:	00 00 
    3cce:	c5 f3 58 c9          	vaddsd %xmm1,%xmm1,%xmm1
    3cd2:	c5 f3 59 0d c6 99 00 	vmulsd 0x99c6(%rip),%xmm1,%xmm1        # d6a0 <_ZZN6matrix6sparse9CSRMatrixIifEC4ERKNSt7__cxx1112basic_stringIcSt11char_traitsIcESaIcEEEN4util8PlatformEE19__PRETTY_FUNCTION__+0xc0>
    3cd9:	00 
    3cda:	c5 f8 29 94 24 a0 00 	vmovaps %xmm2,0xa0(%rsp)
    3ce1:	00 00 
    3ce3:	48 89 9c 24 c8 00 00 	mov    %rbx,0xc8(%rsp)
    3cea:	00 
    3ceb:	c5 f3 5e c8          	vdivsd %xmm0,%xmm1,%xmm1
    3cef:	c5 fb 11 8c 24 c0 00 	vmovsd %xmm1,0xc0(%rsp)
    3cf6:	00 00 
    3cf8:	e8 f3 f1 ff ff       	callq  2ef0 <GOMP_parallel@plt>
    3cfd:	48 8b 03             	mov    (%rbx),%rax
    3d00:	48 89 df             	mov    %rbx,%rdi
    3d03:	ff 50 08             	callq  *0x8(%rax)
    3d06:	48 8b 7c 24 08       	mov    0x8(%rsp),%rdi
    3d0b:	e8 a0 f0 ff ff       	callq  2db0 <_ZNSt13random_device7_M_finiEv@plt>
    3d10:	48 8b bc 24 00 01 00 	mov    0x100(%rsp),%rdi
    3d17:	00 
    3d18:	49 8d 47 10          	lea    0x10(%r15),%rax
    3d1c:	48 39 c7             	cmp    %rax,%rdi
    3d1f:	74 05                	je     3d26 <main+0xba6>
    3d21:	e8 9a f0 ff ff       	callq  2dc0 <_ZdlPv@plt>
    3d26:	48 8b 14 24          	mov    (%rsp),%rdx
    3d2a:	48 8b bc 24 e0 00 00 	mov    0xe0(%rsp),%rdi
    3d31:	00 
    3d32:	31 c0                	xor    %eax,%eax
    3d34:	48 83 c2 10          	add    $0x10,%rdx
    3d38:	48 39 d7             	cmp    %rdx,%rdi
    3d3b:	0f 84 0a f5 ff ff    	je     324b <main+0xcb>
    3d41:	89 04 24             	mov    %eax,(%rsp)
    3d44:	e8 77 f0 ff ff       	callq  2dc0 <_ZdlPv@plt>
    3d49:	8b 04 24             	mov    (%rsp),%eax
    3d4c:	e9 fa f4 ff ff       	jmpq   324b <main+0xcb>
    3d51:	80 bc 24 c9 16 00 00 	cmpb   $0x0,0x16c9(%rsp)
    3d58:	00 
    3d59:	0f 85 85 fa ff ff    	jne    37e4 <main+0x664>
    3d5f:	8b 84 24 b8 14 00 00 	mov    0x14b8(%rsp),%eax
    3d66:	e9 93 fa ff ff       	jmpq   37fe <main+0x67e>
    3d6b:	0f 1f 44 00 00       	nopl   0x0(%rax,%rax,1)
    3d70:	48 8b 54 24 48       	mov    0x48(%rsp),%rdx
    3d75:	48 8d 0c 52          	lea    (%rdx,%rdx,2),%rcx
    3d79:	48 8b 97 20 02 00 00 	mov    0x220(%rdi),%rdx
    3d80:	48 8d 0c 8a          	lea    (%rdx,%rcx,4),%rcx
    3d84:	8b 11                	mov    (%rcx),%edx
    3d86:	8d 6a ff             	lea    -0x1(%rdx),%ebp
    3d89:	8b 51 04             	mov    0x4(%rcx),%edx
    3d8c:	83 ea 01             	sub    $0x1,%edx
    3d8f:	e9 26 f8 ff ff       	jmpq   35ba <main+0x43a>
    3d94:	0f 1f 40 00          	nopl   0x0(%rax)
    3d98:	48 8b 54 24 48       	mov    0x48(%rsp),%rdx
    3d9d:	48 8d 0c 52          	lea    (%rdx,%rdx,2),%rcx
    3da1:	48 8b 97 20 02 00 00 	mov    0x220(%rdi),%rdx
    3da8:	48 8d 0c 8a          	lea    (%rdx,%rcx,4),%rcx
    3dac:	8b 11                	mov    (%rcx),%edx
    3dae:	8d 6a ff             	lea    -0x1(%rdx),%ebp
    3db1:	8b 51 04             	mov    0x4(%rcx),%edx
    3db4:	83 ea 01             	sub    $0x1,%edx
    3db7:	80 bf 19 02 00 00 00 	cmpb   $0x0,0x219(%rdi)
    3dbe:	0f 85 f6 f7 ff ff    	jne    35ba <main+0x43a>
    3dc4:	80 7c 24 5c 00       	cmpb   $0x0,0x5c(%rsp)
    3dc9:	0f 84 19 02 00 00    	je     3fe8 <main+0xe68>
    3dcf:	4c 89 f1             	mov    %r14,%rcx
    3dd2:	e9 e3 f7 ff ff       	jmpq   35ba <main+0x43a>
    3dd7:	66 0f 1f 84 00 00 00 	nopw   0x0(%rax,%rax,1)
    3dde:	00 00 
    3de0:	49 8d 4f 18          	lea    0x18(%r15),%rcx
    3de4:	49 8d 57 14          	lea    0x14(%r15),%rdx
    3de8:	4c 89 f6             	mov    %r14,%rsi
    3deb:	e8 10 1a 00 00       	callq  5800 <_ZN4util2io3MMFIifE7GetNextERiS3_Rf>
    3df0:	48 8b 7c 24 40       	mov    0x40(%rsp),%rdi
    3df5:	4c 8b 54 24 60       	mov    0x60(%rsp),%r10
    3dfa:	88 44 24 5c          	mov    %al,0x5c(%rsp)
    3dfe:	e9 52 f8 ff ff       	jmpq   3655 <main+0x4d5>
    3e03:	0f 1f 44 00 00       	nopl   0x0(%rax,%rax,1)
    3e08:	48 8b 84 24 88 00 00 	mov    0x88(%rsp),%rax
    3e0f:	00 
    3e10:	48 8b 97 20 02 00 00 	mov    0x220(%rdi),%rdx
    3e17:	4c 8b 43 20          	mov    0x20(%rbx),%r8
    3e1b:	48 8d 0c 40          	lea    (%rax,%rax,2),%rcx
    3e1f:	48 83 c0 01          	add    $0x1,%rax
    3e23:	48 8d 14 8a          	lea    (%rdx,%rcx,4),%rdx
    3e27:	8b 0a                	mov    (%rdx),%ecx
    3e29:	c5 fa 10 42 08       	vmovss 0x8(%rdx),%xmm0
    3e2e:	83 e9 01             	sub    $0x1,%ecx
    3e31:	43 89 0c a0          	mov    %ecx,(%r8,%r12,4)
    3e35:	8b 4a 04             	mov    0x4(%rdx),%ecx
    3e38:	4c 8b 43 28          	mov    0x28(%rbx),%r8
    3e3c:	83 e9 01             	sub    $0x1,%ecx
    3e3f:	43 89 0c a0          	mov    %ecx,(%r8,%r12,4)
    3e43:	48 8b 53 30          	mov    0x30(%rbx),%rdx
    3e47:	c4 a1 7a 11 04 a2    	vmovss %xmm0,(%rdx,%r12,4)
    3e4d:	48 89 84 24 88 00 00 	mov    %rax,0x88(%rsp)
    3e54:	00 
    3e55:	e9 05 fb ff ff       	jmpq   395f <main+0x7df>
    3e5a:	66 0f 1f 44 00 00    	nopw   0x0(%rax,%rax,1)
    3e60:	48 8b 84 24 88 00 00 	mov    0x88(%rsp),%rax
    3e67:	00 
    3e68:	48 8b 97 20 02 00 00 	mov    0x220(%rdi),%rdx
    3e6f:	4e 8d 04 a5 00 00 00 	lea    0x0(,%r12,4),%r8
    3e76:	00 
    3e77:	4c 8b 4b 20          	mov    0x20(%rbx),%r9
    3e7b:	48 8d 0c 40          	lea    (%rax,%rax,2),%rcx
    3e7f:	48 8d 0c 8a          	lea    (%rdx,%rcx,4),%rcx
    3e83:	8b 11                	mov    (%rcx),%edx
    3e85:	83 ea 01             	sub    $0x1,%edx
    3e88:	43 89 14 a1          	mov    %edx,(%r9,%r12,4)
    3e8c:	8b 51 04             	mov    0x4(%rcx),%edx
    3e8f:	4c 8b 4b 28          	mov    0x28(%rbx),%r9
    3e93:	83 ea 01             	sub    $0x1,%edx
    3e96:	80 bf 19 02 00 00 00 	cmpb   $0x0,0x219(%rdi)
    3e9d:	43 89 14 a1          	mov    %edx,(%r9,%r12,4)
    3ea1:	0f 84 df 01 00 00    	je     4086 <main+0xf06>
    3ea7:	c5 fa 10 41 08       	vmovss 0x8(%rcx),%xmm0
    3eac:	48 8b 53 30          	mov    0x30(%rbx),%rdx
    3eb0:	48 83 c0 01          	add    $0x1,%rax
    3eb4:	c4 a1 7a 11 04 a2    	vmovss %xmm0,(%rdx,%r12,4)
    3eba:	48 89 84 24 88 00 00 	mov    %rax,0x88(%rsp)
    3ec1:	00 
    3ec2:	e9 98 fa ff ff       	jmpq   395f <main+0x7df>
    3ec7:	48 8d 7d 20          	lea    0x20(%rbp),%rdi
    3ecb:	e8 20 ed ff ff       	callq  2bf0 <_ZNSt13basic_filebufIcSt11char_traitsIcEE5closeEv@plt>
    3ed0:	48 85 c0             	test   %rax,%rax
    3ed3:	0f 85 c7 fa ff ff    	jne    39a0 <main+0x820>
    3ed9:	48 8b 84 24 c0 14 00 	mov    0x14c0(%rsp),%rax
    3ee0:	00 
    3ee1:	48 8b 40 e8          	mov    -0x18(%rax),%rax
    3ee5:	48 8d 7c 05 10       	lea    0x10(%rbp,%rax,1),%rdi
    3eea:	8b 77 20             	mov    0x20(%rdi),%esi
    3eed:	83 ce 04             	or     $0x4,%esi
    3ef0:	e8 bb f0 ff ff       	callq  2fb0 <_ZNSt9basic_iosIcSt11char_traitsIcEE5clearESt12_Ios_Iostate@plt>
    3ef5:	e9 a6 fa ff ff       	jmpq   39a0 <main+0x820>
    3efa:	48 63 94 24 b8 14 00 	movslq 0x14b8(%rsp),%rdx
    3f01:	00 
    3f02:	e9 87 f9 ff ff       	jmpq   388e <main+0x70e>
    3f07:	8b 94 24 28 01 00 00 	mov    0x128(%rsp),%edx
    3f0e:	e9 61 f5 ff ff       	jmpq   3474 <main+0x2f4>
    3f13:	48 8b 44 24 08       	mov    0x8(%rsp),%rax
    3f18:	48 8d 78 20          	lea    0x20(%rax),%rdi
    3f1c:	e8 cf ec ff ff       	callq  2bf0 <_ZNSt13basic_filebufIcSt11char_traitsIcEE5closeEv@plt>
    3f21:	48 85 c0             	test   %rax,%rax
    3f24:	0f 85 85 f7 ff ff    	jne    36af <main+0x52f>
    3f2a:	48 8b 84 24 30 01 00 	mov    0x130(%rsp),%rax
    3f31:	00 
    3f32:	48 8b 74 24 08       	mov    0x8(%rsp),%rsi
    3f37:	48 8b 40 e8          	mov    -0x18(%rax),%rax
    3f3b:	48 8d 7c 06 10       	lea    0x10(%rsi,%rax,1),%rdi
    3f40:	8b 77 20             	mov    0x20(%rdi),%esi
    3f43:	83 ce 04             	or     $0x4,%esi
    3f46:	e8 65 f0 ff ff       	callq  2fb0 <_ZNSt9basic_iosIcSt11char_traitsIcEE5clearESt12_Ios_Iostate@plt>
    3f4b:	e9 5f f7 ff ff       	jmpq   36af <main+0x52f>
    3f50:	48 63 94 24 28 01 00 	movslq 0x128(%rsp),%rdx
    3f57:	00 
    3f58:	48 8b 74 24 08       	mov    0x8(%rsp),%rsi
    3f5d:	48 8d 7c 24 60       	lea    0x60(%rsp),%rdi
    3f62:	e8 a9 1a 00 00       	callq  5a10 <_ZN4util2io3MMFIifE8iteratorC1EPS2_m>
    3f67:	e9 e3 f5 ff ff       	jmpq   354f <main+0x3cf>
    3f6c:	48 8d 0d 6d 96 00 00 	lea    0x966d(%rip),%rcx        # d5e0 <_ZZN6matrix6sparse9CSRMatrixIifEC4ERKNSt7__cxx1112basic_stringIcSt11char_traitsIcESaIcEEEN4util8PlatformEE19__PRETTY_FUNCTION__>
    3f73:	ba 52 00 00 00       	mov    $0x52,%edx
    3f78:	48 8d 35 38 8e 00 00 	lea    0x8e38(%rip),%rsi        # cdb7 <_ZTSSt5_BindIFMN6matrix6sparse9COOMatrixIidEEFvPdPKdEPS3_St12_PlaceholderILi1EESA_ILi2EEEE+0x57>
    3f7f:	48 8d 3d 5d 8e 00 00 	lea    0x8e5d(%rip),%rdi        # cde3 <_ZTSSt5_BindIFMN6matrix6sparse9COOMatrixIidEEFvPdPKdEPS3_St12_PlaceholderILi1EESA_ILi2EEEE+0x83>
    3f86:	e8 75 ed ff ff       	callq  2d00 <__assert_fail@plt>
    3f8b:	48 8d 0d 4e 96 00 00 	lea    0x964e(%rip),%rcx        # d5e0 <_ZZN6matrix6sparse9CSRMatrixIifEC4ERKNSt7__cxx1112basic_stringIcSt11char_traitsIcESaIcEEEN4util8PlatformEE19__PRETTY_FUNCTION__>
    3f92:	ba 53 00 00 00       	mov    $0x53,%edx
    3f97:	48 8d 35 19 8e 00 00 	lea    0x8e19(%rip),%rsi        # cdb7 <_ZTSSt5_BindIFMN6matrix6sparse9COOMatrixIidEEFvPdPKdEPS3_St12_PlaceholderILi1EESA_ILi2EEEE+0x57>
    3f9e:	48 8d 3d 57 8e 00 00 	lea    0x8e57(%rip),%rdi        # cdfc <_ZTSSt5_BindIFMN6matrix6sparse9COOMatrixIidEEFvPdPKdEPS3_St12_PlaceholderILi1EESA_ILi2EEEE+0x9c>
    3fa5:	e8 56 ed ff ff       	callq  2d00 <__assert_fail@plt>
    3faa:	48 8d 0d 2f 96 00 00 	lea    0x962f(%rip),%rcx        # d5e0 <_ZZN6matrix6sparse9CSRMatrixIifEC4ERKNSt7__cxx1112basic_stringIcSt11char_traitsIcESaIcEEEN4util8PlatformEE19__PRETTY_FUNCTION__>
    3fb1:	ba 51 00 00 00       	mov    $0x51,%edx
    3fb6:	48 8d 35 fa 8d 00 00 	lea    0x8dfa(%rip),%rsi        # cdb7 <_ZTSSt5_BindIFMN6matrix6sparse9COOMatrixIidEEFvPdPKdEPS3_St12_PlaceholderILi1EESA_ILi2EEEE+0x57>
    3fbd:	48 8d 3d 12 8e 00 00 	lea    0x8e12(%rip),%rdi        # cdd6 <_ZTSSt5_BindIFMN6matrix6sparse9COOMatrixIidEEFvPdPKdEPS3_St12_PlaceholderILi1EESA_ILi2EEEE+0x76>
    3fc4:	e8 37 ed ff ff       	callq  2d00 <__assert_fail@plt>
    3fc9:	48 8d 0d 10 96 00 00 	lea    0x9610(%rip),%rcx        # d5e0 <_ZZN6matrix6sparse9CSRMatrixIifEC4ERKNSt7__cxx1112basic_stringIcSt11char_traitsIcESaIcEEEN4util8PlatformEE19__PRETTY_FUNCTION__>
    3fd0:	ba 50 00 00 00       	mov    $0x50,%edx
    3fd5:	48 8d 35 db 8d 00 00 	lea    0x8ddb(%rip),%rsi        # cdb7 <_ZTSSt5_BindIFMN6matrix6sparse9COOMatrixIidEEFvPdPKdEPS3_St12_PlaceholderILi1EESA_ILi2EEEE+0x57>
    3fdc:	48 8d 3d e3 8d 00 00 	lea    0x8de3(%rip),%rdi        # cdc6 <_ZTSSt5_BindIFMN6matrix6sparse9COOMatrixIidEEFvPdPKdEPS3_St12_PlaceholderILi1EESA_ILi2EEEE+0x66>
    3fe3:	e8 18 ed ff ff       	callq  2d00 <__assert_fail@plt>
    3fe8:	48 8d 35 e9 87 00 00 	lea    0x87e9(%rip),%rsi        # c7d8 <_IO_stdin_used+0x118>
    3fef:	48 8d 3d 2a d0 20 00 	lea    0x20d02a(%rip),%rdi        # 211020 <_ZSt4cout@@GLIBCXX_3.4>
    3ff6:	e8 d5 ed ff ff       	callq  2dd0 <_ZStlsISt11char_traitsIcEERSt13basic_ostreamIcT_ES5_PKc@plt>
    3ffb:	bf 01 00 00 00       	mov    $0x1,%edi
    4000:	e8 5b ee ff ff       	callq  2e60 <exit@plt>
    4005:	48 8b 7c 24 08       	mov    0x8(%rsp),%rdi
    400a:	48 89 c5             	mov    %rax,%rbp
    400d:	c5 f8 77             	vzeroupper 
    4010:	e8 bb 09 00 00       	callq  49d0 <_ZN4util2io3MMFIifED1Ev>
    4015:	48 8b 43 58          	mov    0x58(%rbx),%rax
    4019:	48 85 c0             	test   %rax,%rax
    401c:	74 0e                	je     402c <main+0xeac>
    401e:	48 8d 7b 48          	lea    0x48(%rbx),%rdi
    4022:	ba 03 00 00 00       	mov    $0x3,%edx
    4027:	48 89 fe             	mov    %rdi,%rsi
    402a:	ff d0                	callq  *%rax
    402c:	48 89 df             	mov    %rbx,%rdi
    402f:	48 89 eb             	mov    %rbp,%rbx
    4032:	e8 89 ed ff ff       	callq  2dc0 <_ZdlPv@plt>
    4037:	48 8b 44 24 10       	mov    0x10(%rsp),%rax
    403c:	48 8b bc 24 00 01 00 	mov    0x100(%rsp),%rdi
    4043:	00 
    4044:	48 83 c0 10          	add    $0x10,%rax
    4048:	48 39 c7             	cmp    %rax,%rdi
    404b:	74 05                	je     4052 <main+0xed2>
    404d:	e8 6e ed ff ff       	callq  2dc0 <_ZdlPv@plt>
    4052:	48 8b 04 24          	mov    (%rsp),%rax
    4056:	48 8b bc 24 e0 00 00 	mov    0xe0(%rsp),%rdi
    405d:	00 
    405e:	48 83 c0 10          	add    $0x10,%rax
    4062:	48 39 c7             	cmp    %rax,%rdi
    4065:	74 05                	je     406c <main+0xeec>
    4067:	e8 54 ed ff ff       	callq  2dc0 <_ZdlPv@plt>
    406c:	48 89 df             	mov    %rbx,%rdi
    406f:	e8 7c ef ff ff       	callq  2ff0 <_Unwind_Resume@plt>
    4074:	48 8b 7c 24 08       	mov    0x8(%rsp),%rdi
    4079:	48 89 c3             	mov    %rax,%rbx
    407c:	c5 f8 77             	vzeroupper 
    407f:	e8 2c ed ff ff       	callq  2db0 <_ZNSt13random_device7_M_finiEv@plt>
    4084:	eb b1                	jmp    4037 <main+0xeb7>
    4086:	80 bc 24 9c 00 00 00 	cmpb   $0x0,0x9c(%rsp)
    408d:	00 
    408e:	0f 85 88 f8 ff ff    	jne    391c <main+0x79c>
    4094:	48 8d 35 3d 87 00 00 	lea    0x873d(%rip),%rsi        # c7d8 <_IO_stdin_used+0x118>
    409b:	48 8d 3d 7e cf 20 00 	lea    0x20cf7e(%rip),%rdi        # 211020 <_ZSt4cout@@GLIBCXX_3.4>
    40a2:	e8 29 ed ff ff       	callq  2dd0 <_ZStlsISt11char_traitsIcEERSt13basic_ostreamIcT_ES5_PKc@plt>
    40a7:	e9 4f ff ff ff       	jmpq   3ffb <main+0xe7b>
    40ac:	48 8d 0d 2d 95 00 00 	lea    0x952d(%rip),%rcx        # d5e0 <_ZZN6matrix6sparse9CSRMatrixIifEC4ERKNSt7__cxx1112basic_stringIcSt11char_traitsIcESaIcEEEN4util8PlatformEE19__PRETTY_FUNCTION__>
    40b3:	ba 65 00 00 00       	mov    $0x65,%edx
    40b8:	48 8d 35 f8 8c 00 00 	lea    0x8cf8(%rip),%rsi        # cdb7 <_ZTSSt5_BindIFMN6matrix6sparse9COOMatrixIidEEFvPdPKdEPS3_St12_PlaceholderILi1EESA_ILi2EEEE+0x57>
    40bf:	48 8d 3d 53 8d 00 00 	lea    0x8d53(%rip),%rdi        # ce19 <_ZTSSt5_BindIFMN6matrix6sparse9COOMatrixIidEEFvPdPKdEPS3_St12_PlaceholderILi1EESA_ILi2EEEE+0xb9>
    40c6:	e8 35 ec ff ff       	callq  2d00 <__assert_fail@plt>
    40cb:	48 8d 0d 0e 95 00 00 	lea    0x950e(%rip),%rcx        # d5e0 <_ZZN6matrix6sparse9CSRMatrixIifEC4ERKNSt7__cxx1112basic_stringIcSt11char_traitsIcESaIcEEEN4util8PlatformEE19__PRETTY_FUNCTION__>
    40d2:	ba 64 00 00 00       	mov    $0x64,%edx
    40d7:	48 8d 35 d9 8c 00 00 	lea    0x8cd9(%rip),%rsi        # cdb7 <_ZTSSt5_BindIFMN6matrix6sparse9COOMatrixIidEEFvPdPKdEPS3_St12_PlaceholderILi1EESA_ILi2EEEE+0x57>
    40de:	48 8d 3d 24 8d 00 00 	lea    0x8d24(%rip),%rdi        # ce09 <_ZTSSt5_BindIFMN6matrix6sparse9COOMatrixIidEEFvPdPKdEPS3_St12_PlaceholderILi1EESA_ILi2EEEE+0xa9>
    40e5:	e8 16 ec ff ff       	callq  2d00 <__assert_fail@plt>
    40ea:	49 89 c4             	mov    %rax,%r12
    40ed:	48 89 ef             	mov    %rbp,%rdi
    40f0:	c5 f8 77             	vzeroupper 
    40f3:	e8 d8 08 00 00       	callq  49d0 <_ZN4util2io3MMFIifED1Ev>
    40f8:	48 8b 43 48          	mov    0x48(%rbx),%rax
    40fc:	48 85 c0             	test   %rax,%rax
    40ff:	74 0e                	je     410f <main+0xf8f>
    4101:	48 8d 7b 38          	lea    0x38(%rbx),%rdi
    4105:	ba 03 00 00 00       	mov    $0x3,%edx
    410a:	48 89 fe             	mov    %rdi,%rsi
    410d:	ff d0                	callq  *%rax
    410f:	48 89 df             	mov    %rbx,%rdi
    4112:	4c 89 e3             	mov    %r12,%rbx
    4115:	e8 a6 ec ff ff       	callq  2dc0 <_ZdlPv@plt>
    411a:	e9 18 ff ff ff       	jmpq   4037 <main+0xeb7>
    411f:	48 89 c5             	mov    %rax,%rbp
    4122:	c5 f8 77             	vzeroupper 
    4125:	e9 eb fe ff ff       	jmpq   4015 <main+0xe95>
    412a:	48 89 c3             	mov    %rax,%rbx
    412d:	c5 f8 77             	vzeroupper 
    4130:	e9 02 ff ff ff       	jmpq   4037 <main+0xeb7>
    4135:	48 8b bc 24 b0 14 00 	mov    0x14b0(%rsp),%rdi
    413c:	00 
    413d:	48 83 c5 10          	add    $0x10,%rbp
    4141:	48 89 c3             	mov    %rax,%rbx
    4144:	48 39 ef             	cmp    %rbp,%rdi
    4147:	74 2c                	je     4175 <main+0xff5>
    4149:	c5 f8 77             	vzeroupper 
    414c:	e8 6f ec ff ff       	callq  2dc0 <_ZdlPv@plt>
    4151:	e9 e1 fe ff ff       	jmpq   4037 <main+0xeb7>
    4156:	48 8d 0d c3 93 00 00 	lea    0x93c3(%rip),%rcx        # d520 <_ZZN6matrix6sparse9COOMatrixIifEC4ERKNSt7__cxx1112basic_stringIcSt11char_traitsIcESaIcEEEN4util8PlatformEE19__PRETTY_FUNCTION__>
    415d:	ba 38 00 00 00       	mov    $0x38,%edx
    4162:	48 8d 35 fa 87 00 00 	lea    0x87fa(%rip),%rsi        # c963 <_IO_stdin_used+0x2a3>
    4169:	48 8d 3d 02 88 00 00 	lea    0x8802(%rip),%rdi        # c972 <_IO_stdin_used+0x2b2>
    4170:	e8 8b eb ff ff       	callq  2d00 <__assert_fail@plt>
    4175:	c5 f8 77             	vzeroupper 
    4178:	e9 ba fe ff ff       	jmpq   4037 <main+0xeb7>
    417d:	49 89 c4             	mov    %rax,%r12
    4180:	c5 f8 77             	vzeroupper 
    4183:	e9 70 ff ff ff       	jmpq   40f8 <main+0xf78>
    4188:	e8 73 ec ff ff       	callq  2e00 <__stack_chk_fail@plt>
    418d:	0f 1f 00             	nopl   (%rax)

0000000000004190 <_GLOBAL__sub_I_send_local_addrs>:
    4190:	48 83 ec 08          	sub    $0x8,%rsp
    4194:	48 8d 3d c1 d0 20 00 	lea    0x20d0c1(%rip),%rdi        # 21125c <_ZStL8__ioinit>
    419b:	e8 70 ed ff ff       	callq  2f10 <_ZNSt8ios_base4InitC1Ev@plt>
    41a0:	48 8b 3d 51 ce 20 00 	mov    0x20ce51(%rip),%rdi        # 210ff8 <_ZNSt8ios_base4InitD1Ev@GLIBCXX_3.4>
    41a7:	48 83 c4 08          	add    $0x8,%rsp
    41ab:	48 8d 15 56 ce 20 00 	lea    0x20ce56(%rip),%rdx        # 211008 <__dso_handle>
    41b2:	48 8d 35 a3 d0 20 00 	lea    0x20d0a3(%rip),%rsi        # 21125c <_ZStL8__ioinit>
    41b9:	e9 c2 eb ff ff       	jmpq   2d80 <__cxa_atexit@plt>
    41be:	66 90                	xchg   %ax,%ax

00000000000041c0 <_start>:
    41c0:	31 ed                	xor    %ebp,%ebp
    41c2:	49 89 d1             	mov    %rdx,%r9
    41c5:	5e                   	pop    %rsi
    41c6:	48 89 e2             	mov    %rsp,%rdx
    41c9:	48 83 e4 f0          	and    $0xfffffffffffffff0,%rsp
    41cd:	50                   	push   %rax
    41ce:	54                   	push   %rsp
    41cf:	4c 8d 05 ca 84 00 00 	lea    0x84ca(%rip),%r8        # c6a0 <__libc_csu_fini>
    41d6:	48 8d 0d 53 84 00 00 	lea    0x8453(%rip),%rcx        # c630 <__libc_csu_init>
    41dd:	48 8d 3d 9c ef ff ff 	lea    -0x1064(%rip),%rdi        # 3180 <main>
    41e4:	ff 15 f6 cd 20 00    	callq  *0x20cdf6(%rip)        # 210fe0 <__libc_start_main@GLIBC_2.2.5>
    41ea:	f4                   	hlt    
    41eb:	0f 1f 44 00 00       	nopl   0x0(%rax,%rax,1)

00000000000041f0 <deregister_tm_clones>:
    41f0:	48 8d 3d 29 ce 20 00 	lea    0x20ce29(%rip),%rdi        # 211020 <_ZSt4cout@@GLIBCXX_3.4>
    41f7:	55                   	push   %rbp
    41f8:	48 8d 05 21 ce 20 00 	lea    0x20ce21(%rip),%rax        # 211020 <_ZSt4cout@@GLIBCXX_3.4>
    41ff:	48 39 f8             	cmp    %rdi,%rax
    4202:	48 89 e5             	mov    %rsp,%rbp
    4205:	74 19                	je     4220 <deregister_tm_clones+0x30>
    4207:	48 8b 05 ca cd 20 00 	mov    0x20cdca(%rip),%rax        # 210fd8 <_ITM_deregisterTMCloneTable>
    420e:	48 85 c0             	test   %rax,%rax
    4211:	74 0d                	je     4220 <deregister_tm_clones+0x30>
    4213:	5d                   	pop    %rbp
    4214:	ff e0                	jmpq   *%rax
    4216:	66 2e 0f 1f 84 00 00 	nopw   %cs:0x0(%rax,%rax,1)
    421d:	00 00 00 
    4220:	5d                   	pop    %rbp
    4221:	c3                   	retq   
    4222:	0f 1f 40 00          	nopl   0x0(%rax)
    4226:	66 2e 0f 1f 84 00 00 	nopw   %cs:0x0(%rax,%rax,1)
    422d:	00 00 00 

0000000000004230 <register_tm_clones>:
    4230:	48 8d 3d e9 cd 20 00 	lea    0x20cde9(%rip),%rdi        # 211020 <_ZSt4cout@@GLIBCXX_3.4>
    4237:	48 8d 35 e2 cd 20 00 	lea    0x20cde2(%rip),%rsi        # 211020 <_ZSt4cout@@GLIBCXX_3.4>
    423e:	55                   	push   %rbp
    423f:	48 29 fe             	sub    %rdi,%rsi
    4242:	48 89 e5             	mov    %rsp,%rbp
    4245:	48 c1 fe 03          	sar    $0x3,%rsi
    4249:	48 89 f0             	mov    %rsi,%rax
    424c:	48 c1 e8 3f          	shr    $0x3f,%rax
    4250:	48 01 c6             	add    %rax,%rsi
    4253:	48 d1 fe             	sar    %rsi
    4256:	74 18                	je     4270 <register_tm_clones+0x40>
    4258:	48 8b 05 91 cd 20 00 	mov    0x20cd91(%rip),%rax        # 210ff0 <_ITM_registerTMCloneTable>
    425f:	48 85 c0             	test   %rax,%rax
    4262:	74 0c                	je     4270 <register_tm_clones+0x40>
    4264:	5d                   	pop    %rbp
    4265:	ff e0                	jmpq   *%rax
    4267:	66 0f 1f 84 00 00 00 	nopw   0x0(%rax,%rax,1)
    426e:	00 00 
    4270:	5d                   	pop    %rbp
    4271:	c3                   	retq   
    4272:	0f 1f 40 00          	nopl   0x0(%rax)
    4276:	66 2e 0f 1f 84 00 00 	nopw   %cs:0x0(%rax,%rax,1)
    427d:	00 00 00 

0000000000004280 <__do_global_dtors_aux>:
    4280:	80 3d c9 cf 20 00 00 	cmpb   $0x0,0x20cfc9(%rip)        # 211250 <completed.7698>
    4287:	75 2f                	jne    42b8 <__do_global_dtors_aux+0x38>
    4289:	48 83 3d 37 cd 20 00 	cmpq   $0x0,0x20cd37(%rip)        # 210fc8 <__cxa_finalize@GLIBC_2.2.5>
    4290:	00 
    4291:	55                   	push   %rbp
    4292:	48 89 e5             	mov    %rsp,%rbp
    4295:	74 0c                	je     42a3 <__do_global_dtors_aux+0x23>
    4297:	48 8b 3d 6a cd 20 00 	mov    0x20cd6a(%rip),%rdi        # 211008 <__dso_handle>
    429e:	e8 dd ed ff ff       	callq  3080 <__cxa_finalize@plt>
    42a3:	e8 48 ff ff ff       	callq  41f0 <deregister_tm_clones>
    42a8:	c6 05 a1 cf 20 00 01 	movb   $0x1,0x20cfa1(%rip)        # 211250 <completed.7698>
    42af:	5d                   	pop    %rbp
    42b0:	c3                   	retq   
    42b1:	0f 1f 80 00 00 00 00 	nopl   0x0(%rax)
    42b8:	f3 c3                	repz retq 
    42ba:	66 0f 1f 44 00 00    	nopw   0x0(%rax,%rax,1)

00000000000042c0 <frame_dummy>:
    42c0:	55                   	push   %rbp
    42c1:	48 89 e5             	mov    %rsp,%rbp
    42c4:	5d                   	pop    %rbp
    42c5:	e9 66 ff ff ff       	jmpq   4230 <register_tm_clones>
    42ca:	66 0f 1f 44 00 00    	nopw   0x0(%rax,%rax,1)

00000000000042d0 <_ZN4util2io6DoReadERSt14basic_ifstreamIcSt11char_traitsIcEERSt6vectorINSt7__cxx1112basic_stringIcS3_SaIcEEESaISA_EE>:
    42d0:	41 57                	push   %r15
    42d2:	41 56                	push   %r14
    42d4:	41 55                	push   %r13
    42d6:	41 54                	push   %r12
    42d8:	55                   	push   %rbp
    42d9:	53                   	push   %rbx
    42da:	48 81 ec d8 00 00 00 	sub    $0xd8,%rsp
    42e1:	64 48 8b 04 25 28 00 	mov    %fs:0x28,%rax
    42e8:	00 00 
    42ea:	48 89 84 24 c8 00 00 	mov    %rax,0xc8(%rsp)
    42f1:	00 
    42f2:	31 c0                	xor    %eax,%eax
    42f4:	48 8d 6c 24 60       	lea    0x60(%rsp),%rbp
    42f9:	c6 44 24 70 00       	movb   $0x0,0x70(%rsp)
    42fe:	48 c7 44 24 68 00 00 	movq   $0x0,0x68(%rsp)
    4305:	00 00 
    4307:	48 8d 45 10          	lea    0x10(%rbp),%rax
    430b:	48 89 44 24 60       	mov    %rax,0x60(%rsp)
    4310:	48 8b 07             	mov    (%rdi),%rax
    4313:	48 8b 40 e8          	mov    -0x18(%rax),%rax
    4317:	48 8b 9c 07 f0 00 00 	mov    0xf0(%rdi,%rax,1),%rbx
    431e:	00 
    431f:	48 85 db             	test   %rbx,%rbx
    4322:	0f 84 fb 05 00 00    	je     4923 <_ZN4util2io6DoReadERSt14basic_ifstreamIcSt11char_traitsIcEERSt6vectorINSt7__cxx1112basic_stringIcS3_SaIcEEESaISA_EE+0x653>
    4328:	80 7b 38 00          	cmpb   $0x0,0x38(%rbx)
    432c:	49 89 fc             	mov    %rdi,%r12
    432f:	49 89 f7             	mov    %rsi,%r15
    4332:	74 64                	je     4398 <_ZN4util2io6DoReadERSt14basic_ifstreamIcSt11char_traitsIcEERSt6vectorINSt7__cxx1112basic_stringIcS3_SaIcEEESaISA_EE+0xc8>
    4334:	0f be 53 43          	movsbl 0x43(%rbx),%edx
    4338:	48 89 ee             	mov    %rbp,%rsi
    433b:	4c 89 e7             	mov    %r12,%rdi
    433e:	e8 ed ec ff ff       	callq  3030 <_ZSt7getlineIcSt11char_traitsIcESaIcEERSt13basic_istreamIT_T0_ES7_RNSt7__cxx1112basic_stringIS4_S5_T1_EES4_@plt>
    4343:	48 89 c2             	mov    %rax,%rdx
    4346:	48 8b 00             	mov    (%rax),%rax
    4349:	31 db                	xor    %ebx,%ebx
    434b:	48 8b 40 e8          	mov    -0x18(%rax),%rax
    434f:	f6 44 02 20 02       	testb  $0x2,0x20(%rdx,%rax,1)
    4354:	74 7a                	je     43d0 <_ZN4util2io6DoReadERSt14basic_ifstreamIcSt11char_traitsIcEERSt6vectorINSt7__cxx1112basic_stringIcS3_SaIcEEESaISA_EE+0x100>
    4356:	48 8b 7c 24 60       	mov    0x60(%rsp),%rdi
    435b:	48 83 c5 10          	add    $0x10,%rbp
    435f:	48 39 ef             	cmp    %rbp,%rdi
    4362:	74 05                	je     4369 <_ZN4util2io6DoReadERSt14basic_ifstreamIcSt11char_traitsIcEERSt6vectorINSt7__cxx1112basic_stringIcS3_SaIcEEESaISA_EE+0x99>
    4364:	e8 57 ea ff ff       	callq  2dc0 <_ZdlPv@plt>
    4369:	48 8b b4 24 c8 00 00 	mov    0xc8(%rsp),%rsi
    4370:	00 
    4371:	64 48 33 34 25 28 00 	xor    %fs:0x28,%rsi
    4378:	00 00 
    437a:	89 d8                	mov    %ebx,%eax
    437c:	0f 85 c1 05 00 00    	jne    4943 <_ZN4util2io6DoReadERSt14basic_ifstreamIcSt11char_traitsIcEERSt6vectorINSt7__cxx1112basic_stringIcS3_SaIcEEESaISA_EE+0x673>
    4382:	48 81 c4 d8 00 00 00 	add    $0xd8,%rsp
    4389:	5b                   	pop    %rbx
    438a:	5d                   	pop    %rbp
    438b:	41 5c                	pop    %r12
    438d:	41 5d                	pop    %r13
    438f:	41 5e                	pop    %r14
    4391:	41 5f                	pop    %r15
    4393:	c3                   	retq   
    4394:	0f 1f 40 00          	nopl   0x0(%rax)
    4398:	48 89 df             	mov    %rbx,%rdi
    439b:	e8 90 ea ff ff       	callq  2e30 <_ZNKSt5ctypeIcE13_M_widen_initEv@plt>
    43a0:	48 8b 03             	mov    (%rbx),%rax
    43a3:	48 8d 0d 16 06 00 00 	lea    0x616(%rip),%rcx        # 49c0 <_ZNKSt5ctypeIcE8do_widenEc>
    43aa:	ba 0a 00 00 00       	mov    $0xa,%edx
    43af:	48 8b 40 30          	mov    0x30(%rax),%rax
    43b3:	48 39 c8             	cmp    %rcx,%rax
    43b6:	74 80                	je     4338 <_ZN4util2io6DoReadERSt14basic_ifstreamIcSt11char_traitsIcEERSt6vectorINSt7__cxx1112basic_stringIcS3_SaIcEEESaISA_EE+0x68>
    43b8:	be 0a 00 00 00       	mov    $0xa,%esi
    43bd:	48 89 df             	mov    %rbx,%rdi
    43c0:	ff d0                	callq  *%rax
    43c2:	0f be d0             	movsbl %al,%edx
    43c5:	e9 6e ff ff ff       	jmpq   4338 <_ZN4util2io6DoReadERSt14basic_ifstreamIcSt11char_traitsIcEERSt6vectorINSt7__cxx1112basic_stringIcS3_SaIcEEESaISA_EE+0x68>
    43ca:	66 0f 1f 44 00 00    	nopw   0x0(%rax,%rax,1)
    43d0:	31 d2                	xor    %edx,%edx
    43d2:	b9 02 00 00 00       	mov    $0x2,%ecx
    43d7:	48 8d 35 4c 84 00 00 	lea    0x844c(%rip),%rsi        # c82a <_IO_stdin_used+0x16a>
    43de:	48 89 ef             	mov    %rbp,%rdi
    43e1:	e8 aa eb ff ff       	callq  2f90 <_ZNKSt7__cxx1112basic_stringIcSt11char_traitsIcESaIcEE17find_first_not_ofEPKcmm@plt>
    43e6:	48 83 f8 ff          	cmp    $0xffffffffffffffff,%rax
    43ea:	0f 84 b0 04 00 00    	je     48a0 <_ZN4util2io6DoReadERSt14basic_ifstreamIcSt11char_traitsIcEERSt6vectorINSt7__cxx1112basic_stringIcS3_SaIcEEESaISA_EE+0x5d0>
    43f0:	48 8b 5c 24 68       	mov    0x68(%rsp),%rbx
    43f5:	48 85 c0             	test   %rax,%rax
    43f8:	74 19                	je     4413 <_ZN4util2io6DoReadERSt14basic_ifstreamIcSt11char_traitsIcEERSt6vectorINSt7__cxx1112basic_stringIcS3_SaIcEEESaISA_EE+0x143>
    43fa:	48 39 d8             	cmp    %rbx,%rax
    43fd:	48 89 da             	mov    %rbx,%rdx
    4400:	48 89 ef             	mov    %rbp,%rdi
    4403:	48 0f 46 d0          	cmovbe %rax,%rdx
    4407:	31 f6                	xor    %esi,%esi
    4409:	e8 32 ea ff ff       	callq  2e40 <_ZNSt7__cxx1112basic_stringIcSt11char_traitsIcESaIcEE8_M_eraseEmm@plt>
    440e:	48 8b 5c 24 68       	mov    0x68(%rsp),%rbx
    4413:	b9 02 00 00 00       	mov    $0x2,%ecx
    4418:	48 c7 c2 ff ff ff ff 	mov    $0xffffffffffffffff,%rdx
    441f:	48 89 ef             	mov    %rbp,%rdi
    4422:	48 83 eb 01          	sub    $0x1,%rbx
    4426:	48 8d 35 fd 83 00 00 	lea    0x83fd(%rip),%rsi        # c82a <_IO_stdin_used+0x16a>
    442d:	e8 1e eb ff ff       	callq  2f50 <_ZNKSt7__cxx1112basic_stringIcSt11char_traitsIcESaIcEE16find_last_not_ofEPKcmm@plt>
    4432:	48 c7 c2 ff ff ff ff 	mov    $0xffffffffffffffff,%rdx
    4439:	b9 02 00 00 00       	mov    $0x2,%ecx
    443e:	48 89 ef             	mov    %rbp,%rdi
    4441:	48 8d 35 e2 83 00 00 	lea    0x83e2(%rip),%rsi        # c82a <_IO_stdin_used+0x16a>
    4448:	48 29 c3             	sub    %rax,%rbx
    444b:	e8 00 eb ff ff       	callq  2f50 <_ZNKSt7__cxx1112basic_stringIcSt11char_traitsIcESaIcEE16find_last_not_ofEPKcmm@plt>
    4450:	48 8b 54 24 68       	mov    0x68(%rsp),%rdx
    4455:	48 8d 70 01          	lea    0x1(%rax),%rsi
    4459:	48 39 d6             	cmp    %rdx,%rsi
    445c:	0f 87 f2 04 00 00    	ja     4954 <_ZN4util2io6DoReadERSt14basic_ifstreamIcSt11char_traitsIcEERSt6vectorINSt7__cxx1112basic_stringIcS3_SaIcEEESaISA_EE+0x684>
    4462:	48 83 fb ff          	cmp    $0xffffffffffffffff,%rbx
    4466:	0f 84 1c 04 00 00    	je     4888 <_ZN4util2io6DoReadERSt14basic_ifstreamIcSt11char_traitsIcEERSt6vectorINSt7__cxx1112basic_stringIcS3_SaIcEEESaISA_EE+0x5b8>
    446c:	48 85 db             	test   %rbx,%rbx
    446f:	74 12                	je     4483 <_ZN4util2io6DoReadERSt14basic_ifstreamIcSt11char_traitsIcEERSt6vectorINSt7__cxx1112basic_stringIcS3_SaIcEEESaISA_EE+0x1b3>
    4471:	48 29 f2             	sub    %rsi,%rdx
    4474:	48 89 ef             	mov    %rbp,%rdi
    4477:	48 39 da             	cmp    %rbx,%rdx
    447a:	48 0f 47 d3          	cmova  %rbx,%rdx
    447e:	e8 bd e9 ff ff       	callq  2e40 <_ZNSt7__cxx1112basic_stringIcSt11char_traitsIcESaIcEE8_M_eraseEmm@plt>
    4483:	48 8d 84 24 80 00 00 	lea    0x80(%rsp),%rax
    448a:	00 
    448b:	c5 f9 ef c0          	vpxor  %xmm0,%xmm0,%xmm0
    448f:	48 8d b4 24 90 00 00 	lea    0x90(%rsp),%rsi
    4496:	00 
    4497:	48 c7 84 24 88 00 00 	movq   $0x1,0x88(%rsp)
    449e:	00 01 00 00 00 
    44a3:	48 89 44 24 08       	mov    %rax,0x8(%rsp)
    44a8:	b8 20 00 00 00       	mov    $0x20,%eax
    44ad:	45 31 ed             	xor    %r13d,%r13d
    44b0:	b9 01 00 00 00       	mov    $0x1,%ecx
    44b5:	66 89 84 24 90 00 00 	mov    %ax,0x90(%rsp)
    44bc:	00 
    44bd:	48 8d 44 24 30       	lea    0x30(%rsp),%rax
    44c2:	4c 8d a4 24 a0 00 00 	lea    0xa0(%rsp),%r12
    44c9:	00 
    44ca:	48 89 04 24          	mov    %rax,(%rsp)
    44ce:	48 8d 44 24 40       	lea    0x40(%rsp),%rax
    44d3:	48 89 44 24 18       	mov    %rax,0x18(%rsp)
    44d8:	48 8d 44 24 38       	lea    0x38(%rsp),%rax
    44dd:	48 89 b4 24 80 00 00 	mov    %rsi,0x80(%rsp)
    44e4:	00 
    44e5:	c5 f8 29 44 24 40    	vmovaps %xmm0,0x40(%rsp)
    44eb:	48 c7 44 24 50 00 00 	movq   $0x0,0x50(%rsp)
    44f2:	00 00 
    44f4:	48 89 44 24 20       	mov    %rax,0x20(%rsp)
    44f9:	eb 2c                	jmp    4527 <_ZN4util2io6DoReadERSt14basic_ifstreamIcSt11char_traitsIcEERSt6vectorINSt7__cxx1112basic_stringIcS3_SaIcEEESaISA_EE+0x257>
    44fb:	0f 1f 44 00 00       	nopl   0x0(%rax,%rax,1)
    4500:	e8 bb e8 ff ff       	callq  2dc0 <_ZdlPv@plt>
    4505:	4c 39 eb             	cmp    %r13,%rbx
    4508:	49 0f 42 dd          	cmovb  %r13,%rbx
    450c:	48 3b 5c 24 68       	cmp    0x68(%rsp),%rbx
    4511:	0f 83 e8 00 00 00    	jae    45ff <_ZN4util2io6DoReadERSt14basic_ifstreamIcSt11char_traitsIcEERSt6vectorINSt7__cxx1112basic_stringIcS3_SaIcEEESaISA_EE+0x32f>
    4517:	48 8b 8c 24 88 00 00 	mov    0x88(%rsp),%rcx
    451e:	00 
    451f:	48 8b b4 24 80 00 00 	mov    0x80(%rsp),%rsi
    4526:	00 
    4527:	4c 89 ea             	mov    %r13,%rdx
    452a:	48 89 ef             	mov    %rbp,%rdi
    452d:	e8 ae ea ff ff       	callq  2fe0 <_ZNKSt7__cxx1112basic_stringIcSt11char_traitsIcESaIcEE4findEPKcmm@plt>
    4532:	48 89 c3             	mov    %rax,%rbx
    4535:	48 83 f8 ff          	cmp    $0xffffffffffffffff,%rax
    4539:	0f 84 d1 01 00 00    	je     4710 <_ZN4util2io6DoReadERSt14basic_ifstreamIcSt11char_traitsIcEERSt6vectorINSt7__cxx1112basic_stringIcS3_SaIcEEESaISA_EE+0x440>
    453f:	48 8b 4c 24 68       	mov    0x68(%rsp),%rcx
    4544:	48 89 d8             	mov    %rbx,%rax
    4547:	4c 29 e8             	sub    %r13,%rax
    454a:	4c 39 e9             	cmp    %r13,%rcx
    454d:	0f 82 68 03 00 00    	jb     48bb <_ZN4util2io6DoReadERSt14basic_ifstreamIcSt11char_traitsIcEERSt6vectorINSt7__cxx1112basic_stringIcS3_SaIcEEESaISA_EE+0x5eb>
    4553:	4c 8b 74 24 60       	mov    0x60(%rsp),%r14
    4558:	4c 29 e9             	sub    %r13,%rcx
    455b:	49 8d 54 24 10       	lea    0x10(%r12),%rdx
    4560:	48 89 94 24 a0 00 00 	mov    %rdx,0xa0(%rsp)
    4567:	00 
    4568:	4d 01 ee             	add    %r13,%r14
    456b:	48 39 c1             	cmp    %rax,%rcx
    456e:	48 0f 46 c1          	cmovbe %rcx,%rax
    4572:	49 89 c5             	mov    %rax,%r13
    4575:	4c 89 f0             	mov    %r14,%rax
    4578:	4c 01 e8             	add    %r13,%rax
    457b:	74 09                	je     4586 <_ZN4util2io6DoReadERSt14basic_ifstreamIcSt11char_traitsIcEERSt6vectorINSt7__cxx1112basic_stringIcS3_SaIcEEESaISA_EE+0x2b6>
    457d:	4d 85 f6             	test   %r14,%r14
    4580:	0f 84 c2 03 00 00    	je     4948 <_ZN4util2io6DoReadERSt14basic_ifstreamIcSt11char_traitsIcEERSt6vectorINSt7__cxx1112basic_stringIcS3_SaIcEEESaISA_EE+0x678>
    4586:	4c 89 6c 24 30       	mov    %r13,0x30(%rsp)
    458b:	49 83 fd 0f          	cmp    $0xf,%r13
    458f:	0f 87 1b 02 00 00    	ja     47b0 <_ZN4util2io6DoReadERSt14basic_ifstreamIcSt11char_traitsIcEERSt6vectorINSt7__cxx1112basic_stringIcS3_SaIcEEESaISA_EE+0x4e0>
    4595:	49 83 fd 01          	cmp    $0x1,%r13
    4599:	0f 85 59 02 00 00    	jne    47f8 <_ZN4util2io6DoReadERSt14basic_ifstreamIcSt11char_traitsIcEERSt6vectorINSt7__cxx1112basic_stringIcS3_SaIcEEESaISA_EE+0x528>
    459f:	41 0f b6 06          	movzbl (%r14),%eax
    45a3:	88 84 24 b0 00 00 00 	mov    %al,0xb0(%rsp)
    45aa:	49 8d 44 24 10       	lea    0x10(%r12),%rax
    45af:	4c 89 ac 24 a8 00 00 	mov    %r13,0xa8(%rsp)
    45b6:	00 
    45b7:	42 c6 04 28 00       	movb   $0x0,(%rax,%r13,1)
    45bc:	48 83 bc 24 a8 00 00 	cmpq   $0x0,0xa8(%rsp)
    45c3:	00 00 
    45c5:	0f 85 55 01 00 00    	jne    4720 <_ZN4util2io6DoReadERSt14basic_ifstreamIcSt11char_traitsIcEERSt6vectorINSt7__cxx1112basic_stringIcS3_SaIcEEESaISA_EE+0x450>
    45cb:	48 8b 8c 24 88 00 00 	mov    0x88(%rsp),%rcx
    45d2:	00 
    45d3:	48 8b bc 24 a0 00 00 	mov    0xa0(%rsp),%rdi
    45da:	00 
    45db:	49 8d 44 24 10       	lea    0x10(%r12),%rax
    45e0:	4c 8d 2c 0b          	lea    (%rbx,%rcx,1),%r13
    45e4:	48 39 c7             	cmp    %rax,%rdi
    45e7:	0f 85 13 ff ff ff    	jne    4500 <_ZN4util2io6DoReadERSt14basic_ifstreamIcSt11char_traitsIcEERSt6vectorINSt7__cxx1112basic_stringIcS3_SaIcEEESaISA_EE+0x230>
    45ed:	4c 39 eb             	cmp    %r13,%rbx
    45f0:	49 0f 42 dd          	cmovb  %r13,%rbx
    45f4:	48 39 5c 24 68       	cmp    %rbx,0x68(%rsp)
    45f9:	0f 87 20 ff ff ff    	ja     451f <_ZN4util2io6DoReadERSt14basic_ifstreamIcSt11char_traitsIcEERSt6vectorINSt7__cxx1112basic_stringIcS3_SaIcEEESaISA_EE+0x24f>
    45ff:	48 8b 44 24 40       	mov    0x40(%rsp),%rax
    4604:	4d 8b 2f             	mov    (%r15),%r13
    4607:	c5 f9 ef c0          	vpxor  %xmm0,%xmm0,%xmm0
    460b:	4d 8b 67 08          	mov    0x8(%r15),%r12
    460f:	49 89 07             	mov    %rax,(%r15)
    4612:	48 8b 44 24 48       	mov    0x48(%rsp),%rax
    4617:	c5 f8 29 44 24 40    	vmovaps %xmm0,0x40(%rsp)
    461d:	49 89 47 08          	mov    %rax,0x8(%r15)
    4621:	48 8b 44 24 50       	mov    0x50(%rsp),%rax
    4626:	48 c7 44 24 50 00 00 	movq   $0x0,0x50(%rsp)
    462d:	00 00 
    462f:	49 89 47 10          	mov    %rax,0x10(%r15)
    4633:	4d 39 e5             	cmp    %r12,%r13
    4636:	74 26                	je     465e <_ZN4util2io6DoReadERSt14basic_ifstreamIcSt11char_traitsIcEERSt6vectorINSt7__cxx1112basic_stringIcS3_SaIcEEESaISA_EE+0x38e>
    4638:	4c 89 eb             	mov    %r13,%rbx
    463b:	0f 1f 44 00 00       	nopl   0x0(%rax,%rax,1)
    4640:	48 8b 3b             	mov    (%rbx),%rdi
    4643:	48 8d 43 10          	lea    0x10(%rbx),%rax
    4647:	48 39 c7             	cmp    %rax,%rdi
    464a:	0f 84 88 00 00 00    	je     46d8 <_ZN4util2io6DoReadERSt14basic_ifstreamIcSt11char_traitsIcEERSt6vectorINSt7__cxx1112basic_stringIcS3_SaIcEEESaISA_EE+0x408>
    4650:	e8 6b e7 ff ff       	callq  2dc0 <_ZdlPv@plt>
    4655:	48 83 c3 20          	add    $0x20,%rbx
    4659:	49 39 dc             	cmp    %rbx,%r12
    465c:	75 e2                	jne    4640 <_ZN4util2io6DoReadERSt14basic_ifstreamIcSt11char_traitsIcEERSt6vectorINSt7__cxx1112basic_stringIcS3_SaIcEEESaISA_EE+0x370>
    465e:	4d 85 ed             	test   %r13,%r13
    4661:	74 08                	je     466b <_ZN4util2io6DoReadERSt14basic_ifstreamIcSt11char_traitsIcEERSt6vectorINSt7__cxx1112basic_stringIcS3_SaIcEEESaISA_EE+0x39b>
    4663:	4c 89 ef             	mov    %r13,%rdi
    4666:	e8 55 e7 ff ff       	callq  2dc0 <_ZdlPv@plt>
    466b:	4c 8b 64 24 48       	mov    0x48(%rsp),%r12
    4670:	48 8b 5c 24 40       	mov    0x40(%rsp),%rbx
    4675:	49 39 dc             	cmp    %rbx,%r12
    4678:	74 25                	je     469f <_ZN4util2io6DoReadERSt14basic_ifstreamIcSt11char_traitsIcEERSt6vectorINSt7__cxx1112basic_stringIcS3_SaIcEEESaISA_EE+0x3cf>
    467a:	66 0f 1f 44 00 00    	nopw   0x0(%rax,%rax,1)
    4680:	48 8b 3b             	mov    (%rbx),%rdi
    4683:	48 8d 43 10          	lea    0x10(%rbx),%rax
    4687:	48 39 c7             	cmp    %rax,%rdi
    468a:	74 6c                	je     46f8 <_ZN4util2io6DoReadERSt14basic_ifstreamIcSt11char_traitsIcEERSt6vectorINSt7__cxx1112basic_stringIcS3_SaIcEEESaISA_EE+0x428>
    468c:	e8 2f e7 ff ff       	callq  2dc0 <_ZdlPv@plt>
    4691:	48 83 c3 20          	add    $0x20,%rbx
    4695:	49 39 dc             	cmp    %rbx,%r12
    4698:	75 e6                	jne    4680 <_ZN4util2io6DoReadERSt14basic_ifstreamIcSt11char_traitsIcEERSt6vectorINSt7__cxx1112basic_stringIcS3_SaIcEEESaISA_EE+0x3b0>
    469a:	48 8b 5c 24 40       	mov    0x40(%rsp),%rbx
    469f:	48 85 db             	test   %rbx,%rbx
    46a2:	74 08                	je     46ac <_ZN4util2io6DoReadERSt14basic_ifstreamIcSt11char_traitsIcEERSt6vectorINSt7__cxx1112basic_stringIcS3_SaIcEEESaISA_EE+0x3dc>
    46a4:	48 89 df             	mov    %rbx,%rdi
    46a7:	e8 14 e7 ff ff       	callq  2dc0 <_ZdlPv@plt>
    46ac:	48 8b 44 24 08       	mov    0x8(%rsp),%rax
    46b1:	48 8b bc 24 80 00 00 	mov    0x80(%rsp),%rdi
    46b8:	00 
    46b9:	48 83 c0 10          	add    $0x10,%rax
    46bd:	48 39 c7             	cmp    %rax,%rdi
    46c0:	74 05                	je     46c7 <_ZN4util2io6DoReadERSt14basic_ifstreamIcSt11char_traitsIcEERSt6vectorINSt7__cxx1112basic_stringIcS3_SaIcEEESaISA_EE+0x3f7>
    46c2:	e8 f9 e6 ff ff       	callq  2dc0 <_ZdlPv@plt>
    46c7:	bb 01 00 00 00       	mov    $0x1,%ebx
    46cc:	e9 85 fc ff ff       	jmpq   4356 <_ZN4util2io6DoReadERSt14basic_ifstreamIcSt11char_traitsIcEERSt6vectorINSt7__cxx1112basic_stringIcS3_SaIcEEESaISA_EE+0x86>
    46d1:	0f 1f 80 00 00 00 00 	nopl   0x0(%rax)
    46d8:	48 83 c3 20          	add    $0x20,%rbx
    46dc:	49 39 dc             	cmp    %rbx,%r12
    46df:	0f 85 5b ff ff ff    	jne    4640 <_ZN4util2io6DoReadERSt14basic_ifstreamIcSt11char_traitsIcEERSt6vectorINSt7__cxx1112basic_stringIcS3_SaIcEEESaISA_EE+0x370>
    46e5:	4d 85 ed             	test   %r13,%r13
    46e8:	0f 85 75 ff ff ff    	jne    4663 <_ZN4util2io6DoReadERSt14basic_ifstreamIcSt11char_traitsIcEERSt6vectorINSt7__cxx1112basic_stringIcS3_SaIcEEESaISA_EE+0x393>
    46ee:	e9 78 ff ff ff       	jmpq   466b <_ZN4util2io6DoReadERSt14basic_ifstreamIcSt11char_traitsIcEERSt6vectorINSt7__cxx1112basic_stringIcS3_SaIcEEESaISA_EE+0x39b>
    46f3:	0f 1f 44 00 00       	nopl   0x0(%rax,%rax,1)
    46f8:	48 83 c3 20          	add    $0x20,%rbx
    46fc:	49 39 dc             	cmp    %rbx,%r12
    46ff:	0f 85 7b ff ff ff    	jne    4680 <_ZN4util2io6DoReadERSt14basic_ifstreamIcSt11char_traitsIcEERSt6vectorINSt7__cxx1112basic_stringIcS3_SaIcEEESaISA_EE+0x3b0>
    4705:	eb 93                	jmp    469a <_ZN4util2io6DoReadERSt14basic_ifstreamIcSt11char_traitsIcEERSt6vectorINSt7__cxx1112basic_stringIcS3_SaIcEEESaISA_EE+0x3ca>
    4707:	66 0f 1f 84 00 00 00 	nopw   0x0(%rax,%rax,1)
    470e:	00 00 
    4710:	48 8b 5c 24 68       	mov    0x68(%rsp),%rbx
    4715:	48 89 d9             	mov    %rbx,%rcx
    4718:	e9 27 fe ff ff       	jmpq   4544 <_ZN4util2io6DoReadERSt14basic_ifstreamIcSt11char_traitsIcEERSt6vectorINSt7__cxx1112basic_stringIcS3_SaIcEEESaISA_EE+0x274>
    471d:	0f 1f 00             	nopl   (%rax)
    4720:	4c 8b 6c 24 48       	mov    0x48(%rsp),%r13
    4725:	4c 3b 6c 24 50       	cmp    0x50(%rsp),%r13
    472a:	0f 84 f0 00 00 00    	je     4820 <_ZN4util2io6DoReadERSt14basic_ifstreamIcSt11char_traitsIcEERSt6vectorINSt7__cxx1112basic_stringIcS3_SaIcEEESaISA_EE+0x550>
    4730:	4d 85 ed             	test   %r13,%r13
    4733:	74 6c                	je     47a1 <_ZN4util2io6DoReadERSt14basic_ifstreamIcSt11char_traitsIcEERSt6vectorINSt7__cxx1112basic_stringIcS3_SaIcEEESaISA_EE+0x4d1>
    4735:	49 8d 45 10          	lea    0x10(%r13),%rax
    4739:	49 89 45 00          	mov    %rax,0x0(%r13)
    473d:	48 8b 84 24 a0 00 00 	mov    0xa0(%rsp),%rax
    4744:	00 
    4745:	4c 8b b4 24 a8 00 00 	mov    0xa8(%rsp),%r14
    474c:	00 
    474d:	48 89 c6             	mov    %rax,%rsi
    4750:	48 89 44 24 10       	mov    %rax,0x10(%rsp)
    4755:	4c 01 f6             	add    %r14,%rsi
    4758:	74 09                	je     4763 <_ZN4util2io6DoReadERSt14basic_ifstreamIcSt11char_traitsIcEERSt6vectorINSt7__cxx1112basic_stringIcS3_SaIcEEESaISA_EE+0x493>
    475a:	48 85 c0             	test   %rax,%rax
    475d:	0f 84 35 02 00 00    	je     4998 <_ZN4util2io6DoReadERSt14basic_ifstreamIcSt11char_traitsIcEERSt6vectorINSt7__cxx1112basic_stringIcS3_SaIcEEESaISA_EE+0x6c8>
    4763:	4c 89 74 24 38       	mov    %r14,0x38(%rsp)
    4768:	49 83 fe 0f          	cmp    $0xf,%r14
    476c:	0f 87 ce 00 00 00    	ja     4840 <_ZN4util2io6DoReadERSt14basic_ifstreamIcSt11char_traitsIcEERSt6vectorINSt7__cxx1112basic_stringIcS3_SaIcEEESaISA_EE+0x570>
    4772:	49 8b 45 00          	mov    0x0(%r13),%rax
    4776:	49 83 fe 01          	cmp    $0x1,%r14
    477a:	0f 85 90 00 00 00    	jne    4810 <_ZN4util2io6DoReadERSt14basic_ifstreamIcSt11char_traitsIcEERSt6vectorINSt7__cxx1112basic_stringIcS3_SaIcEEESaISA_EE+0x540>
    4780:	48 8b 74 24 10       	mov    0x10(%rsp),%rsi
    4785:	0f b6 16             	movzbl (%rsi),%edx
    4788:	88 10                	mov    %dl,(%rax)
    478a:	4c 8b 74 24 38       	mov    0x38(%rsp),%r14
    478f:	49 8b 45 00          	mov    0x0(%r13),%rax
    4793:	4d 89 75 08          	mov    %r14,0x8(%r13)
    4797:	42 c6 04 30 00       	movb   $0x0,(%rax,%r14,1)
    479c:	4c 8b 6c 24 48       	mov    0x48(%rsp),%r13
    47a1:	49 83 c5 20          	add    $0x20,%r13
    47a5:	4c 89 6c 24 48       	mov    %r13,0x48(%rsp)
    47aa:	e9 1c fe ff ff       	jmpq   45cb <_ZN4util2io6DoReadERSt14basic_ifstreamIcSt11char_traitsIcEERSt6vectorINSt7__cxx1112basic_stringIcS3_SaIcEEESaISA_EE+0x2fb>
    47af:	90                   	nop
    47b0:	48 8b 34 24          	mov    (%rsp),%rsi
    47b4:	31 d2                	xor    %edx,%edx
    47b6:	4c 89 e7             	mov    %r12,%rdi
    47b9:	e8 52 e8 ff ff       	callq  3010 <_ZNSt7__cxx1112basic_stringIcSt11char_traitsIcESaIcEE9_M_createERmm@plt>
    47be:	48 8b 54 24 30       	mov    0x30(%rsp),%rdx
    47c3:	48 89 84 24 a0 00 00 	mov    %rax,0xa0(%rsp)
    47ca:	00 
    47cb:	48 89 94 24 b0 00 00 	mov    %rdx,0xb0(%rsp)
    47d2:	00 
    47d3:	4c 89 ea             	mov    %r13,%rdx
    47d6:	4c 89 f6             	mov    %r14,%rsi
    47d9:	48 89 c7             	mov    %rax,%rdi
    47dc:	e8 8f e5 ff ff       	callq  2d70 <memcpy@plt>
    47e1:	4c 8b 6c 24 30       	mov    0x30(%rsp),%r13
    47e6:	48 8b 84 24 a0 00 00 	mov    0xa0(%rsp),%rax
    47ed:	00 
    47ee:	e9 bc fd ff ff       	jmpq   45af <_ZN4util2io6DoReadERSt14basic_ifstreamIcSt11char_traitsIcEERSt6vectorINSt7__cxx1112basic_stringIcS3_SaIcEEESaISA_EE+0x2df>
    47f3:	0f 1f 44 00 00       	nopl   0x0(%rax,%rax,1)
    47f8:	49 8d 44 24 10       	lea    0x10(%r12),%rax
    47fd:	4d 85 ed             	test   %r13,%r13
    4800:	0f 84 a9 fd ff ff    	je     45af <_ZN4util2io6DoReadERSt14basic_ifstreamIcSt11char_traitsIcEERSt6vectorINSt7__cxx1112basic_stringIcS3_SaIcEEESaISA_EE+0x2df>
    4806:	eb cb                	jmp    47d3 <_ZN4util2io6DoReadERSt14basic_ifstreamIcSt11char_traitsIcEERSt6vectorINSt7__cxx1112basic_stringIcS3_SaIcEEESaISA_EE+0x503>
    4808:	0f 1f 84 00 00 00 00 	nopl   0x0(%rax,%rax,1)
    480f:	00 
    4810:	4d 85 f6             	test   %r14,%r14
    4813:	0f 84 7a ff ff ff    	je     4793 <_ZN4util2io6DoReadERSt14basic_ifstreamIcSt11char_traitsIcEERSt6vectorINSt7__cxx1112basic_stringIcS3_SaIcEEESaISA_EE+0x4c3>
    4819:	eb 4b                	jmp    4866 <_ZN4util2io6DoReadERSt14basic_ifstreamIcSt11char_traitsIcEERSt6vectorINSt7__cxx1112basic_stringIcS3_SaIcEEESaISA_EE+0x596>
    481b:	0f 1f 44 00 00       	nopl   0x0(%rax,%rax,1)
    4820:	48 8b 7c 24 18       	mov    0x18(%rsp),%rdi
    4825:	4c 89 e2             	mov    %r12,%rdx
    4828:	4c 89 ee             	mov    %r13,%rsi
    482b:	48 89 7c 24 28       	mov    %rdi,0x28(%rsp)
    4830:	e8 cb 0a 00 00       	callq  5300 <_ZNSt6vectorINSt7__cxx1112basic_stringIcSt11char_traitsIcESaIcEEESaIS5_EE17_M_realloc_insertIJRKS5_EEEvN9__gnu_cxx17__normal_iteratorIPS5_S7_EEDpOT_>
    4835:	e9 91 fd ff ff       	jmpq   45cb <_ZN4util2io6DoReadERSt14basic_ifstreamIcSt11char_traitsIcEERSt6vectorINSt7__cxx1112basic_stringIcS3_SaIcEEESaISA_EE+0x2fb>
    483a:	66 0f 1f 44 00 00    	nopw   0x0(%rax,%rax,1)
    4840:	48 8b 44 24 18       	mov    0x18(%rsp),%rax
    4845:	48 8b 74 24 20       	mov    0x20(%rsp),%rsi
    484a:	31 d2                	xor    %edx,%edx
    484c:	4c 89 ef             	mov    %r13,%rdi
    484f:	48 89 44 24 28       	mov    %rax,0x28(%rsp)
    4854:	e8 b7 e7 ff ff       	callq  3010 <_ZNSt7__cxx1112basic_stringIcSt11char_traitsIcESaIcEE9_M_createERmm@plt>
    4859:	48 8b 54 24 38       	mov    0x38(%rsp),%rdx
    485e:	49 89 45 00          	mov    %rax,0x0(%r13)
    4862:	49 89 55 10          	mov    %rdx,0x10(%r13)
    4866:	48 8b 74 24 10       	mov    0x10(%rsp),%rsi
    486b:	4c 89 f2             	mov    %r14,%rdx
    486e:	48 89 c7             	mov    %rax,%rdi
    4871:	e8 fa e4 ff ff       	callq  2d70 <memcpy@plt>
    4876:	4c 8b 74 24 38       	mov    0x38(%rsp),%r14
    487b:	49 8b 45 00          	mov    0x0(%r13),%rax
    487f:	e9 0f ff ff ff       	jmpq   4793 <_ZN4util2io6DoReadERSt14basic_ifstreamIcSt11char_traitsIcEERSt6vectorINSt7__cxx1112basic_stringIcS3_SaIcEEESaISA_EE+0x4c3>
    4884:	0f 1f 40 00          	nopl   0x0(%rax)
    4888:	48 8b 54 24 60       	mov    0x60(%rsp),%rdx
    488d:	48 89 74 24 68       	mov    %rsi,0x68(%rsp)
    4892:	c6 44 02 01 00       	movb   $0x0,0x1(%rdx,%rax,1)
    4897:	e9 e7 fb ff ff       	jmpq   4483 <_ZN4util2io6DoReadERSt14basic_ifstreamIcSt11char_traitsIcEERSt6vectorINSt7__cxx1112basic_stringIcS3_SaIcEEESaISA_EE+0x1b3>
    489c:	0f 1f 40 00          	nopl   0x0(%rax)
    48a0:	48 c7 44 24 68 00 00 	movq   $0x0,0x68(%rsp)
    48a7:	00 00 
    48a9:	48 8b 44 24 60       	mov    0x60(%rsp),%rax
    48ae:	c6 00 00             	movb   $0x0,(%rax)
    48b1:	48 8b 5c 24 68       	mov    0x68(%rsp),%rbx
    48b6:	e9 58 fb ff ff       	jmpq   4413 <_ZN4util2io6DoReadERSt14basic_ifstreamIcSt11char_traitsIcEERSt6vectorINSt7__cxx1112basic_stringIcS3_SaIcEEESaISA_EE+0x143>
    48bb:	4c 89 ea             	mov    %r13,%rdx
    48be:	48 8d 35 7c 7f 00 00 	lea    0x7f7c(%rip),%rsi        # c841 <_IO_stdin_used+0x181>
    48c5:	48 8d 3d 8c 7f 00 00 	lea    0x7f8c(%rip),%rdi        # c858 <_IO_stdin_used+0x198>
    48cc:	31 c0                	xor    %eax,%eax
    48ce:	e8 2d e6 ff ff       	callq  2f00 <_ZSt24__throw_out_of_range_fmtPKcz@plt>
    48d3:	48 89 c3             	mov    %rax,%rbx
    48d6:	48 8d 44 24 40       	lea    0x40(%rsp),%rax
    48db:	48 89 44 24 28       	mov    %rax,0x28(%rsp)
    48e0:	c5 f8 77             	vzeroupper 
    48e3:	48 8b 7c 24 28       	mov    0x28(%rsp),%rdi
    48e8:	e8 a3 09 00 00       	callq  5290 <_ZNSt6vectorINSt7__cxx1112basic_stringIcSt11char_traitsIcESaIcEEESaIS5_EED1Ev>
    48ed:	48 8b 44 24 08       	mov    0x8(%rsp),%rax
    48f2:	48 8b bc 24 80 00 00 	mov    0x80(%rsp),%rdi
    48f9:	00 
    48fa:	48 83 c0 10          	add    $0x10,%rax
    48fe:	48 39 c7             	cmp    %rax,%rdi
    4901:	74 05                	je     4908 <_ZN4util2io6DoReadERSt14basic_ifstreamIcSt11char_traitsIcEERSt6vectorINSt7__cxx1112basic_stringIcS3_SaIcEEESaISA_EE+0x638>
    4903:	e8 b8 e4 ff ff       	callq  2dc0 <_ZdlPv@plt>
    4908:	48 8b 7c 24 60       	mov    0x60(%rsp),%rdi
    490d:	48 83 c5 10          	add    $0x10,%rbp
    4911:	48 39 ef             	cmp    %rbp,%rdi
    4914:	74 05                	je     491b <_ZN4util2io6DoReadERSt14basic_ifstreamIcSt11char_traitsIcEERSt6vectorINSt7__cxx1112basic_stringIcS3_SaIcEEESaISA_EE+0x64b>
    4916:	e8 a5 e4 ff ff       	callq  2dc0 <_ZdlPv@plt>
    491b:	48 89 df             	mov    %rbx,%rdi
    491e:	e8 cd e6 ff ff       	callq  2ff0 <_Unwind_Resume@plt>
    4923:	e8 58 e5 ff ff       	callq  2e80 <_ZSt16__throw_bad_castv@plt>
    4928:	48 83 ea 01          	sub    $0x1,%rdx
    492c:	75 41                	jne    496f <_ZN4util2io6DoReadERSt14basic_ifstreamIcSt11char_traitsIcEERSt6vectorINSt7__cxx1112basic_stringIcS3_SaIcEEESaISA_EE+0x69f>
    492e:	48 89 c7             	mov    %rax,%rdi
    4931:	c5 f8 77             	vzeroupper 
    4934:	e8 47 e3 ff ff       	callq  2c80 <__cxa_begin_catch@plt>
    4939:	bf 01 00 00 00       	mov    $0x1,%edi
    493e:	e8 1d e5 ff ff       	callq  2e60 <exit@plt>
    4943:	e8 b8 e4 ff ff       	callq  2e00 <__stack_chk_fail@plt>
    4948:	48 8d 3d b1 7e 00 00 	lea    0x7eb1(%rip),%rdi        # c800 <_IO_stdin_used+0x140>
    494f:	e8 cc e3 ff ff       	callq  2d20 <_ZSt19__throw_logic_errorPKc@plt>
    4954:	48 89 d1             	mov    %rdx,%rcx
    4957:	48 8d 3d fa 7e 00 00 	lea    0x7efa(%rip),%rdi        # c858 <_IO_stdin_used+0x198>
    495e:	48 89 f2             	mov    %rsi,%rdx
    4961:	31 c0                	xor    %eax,%eax
    4963:	48 8d 35 c3 7e 00 00 	lea    0x7ec3(%rip),%rsi        # c82d <_IO_stdin_used+0x16d>
    496a:	e8 91 e5 ff ff       	callq  2f00 <_ZSt24__throw_out_of_range_fmtPKcz@plt>
    496f:	48 89 c3             	mov    %rax,%rbx
    4972:	c5 f8 77             	vzeroupper 
    4975:	eb 91                	jmp    4908 <_ZN4util2io6DoReadERSt14basic_ifstreamIcSt11char_traitsIcEERSt6vectorINSt7__cxx1112basic_stringIcS3_SaIcEEESaISA_EE+0x638>
    4977:	48 8b bc 24 a0 00 00 	mov    0xa0(%rsp),%rdi
    497e:	00 
    497f:	49 83 c4 10          	add    $0x10,%r12
    4983:	48 89 c3             	mov    %rax,%rbx
    4986:	4c 39 e7             	cmp    %r12,%rdi
    4989:	74 23                	je     49ae <_ZN4util2io6DoReadERSt14basic_ifstreamIcSt11char_traitsIcEERSt6vectorINSt7__cxx1112basic_stringIcS3_SaIcEEESaISA_EE+0x6de>
    498b:	c5 f8 77             	vzeroupper 
    498e:	e8 2d e4 ff ff       	callq  2dc0 <_ZdlPv@plt>
    4993:	e9 4b ff ff ff       	jmpq   48e3 <_ZN4util2io6DoReadERSt14basic_ifstreamIcSt11char_traitsIcEERSt6vectorINSt7__cxx1112basic_stringIcS3_SaIcEEESaISA_EE+0x613>
    4998:	48 8d 44 24 40       	lea    0x40(%rsp),%rax
    499d:	48 8d 3d 5c 7e 00 00 	lea    0x7e5c(%rip),%rdi        # c800 <_IO_stdin_used+0x140>
    49a4:	48 89 44 24 28       	mov    %rax,0x28(%rsp)
    49a9:	e8 72 e3 ff ff       	callq  2d20 <_ZSt19__throw_logic_errorPKc@plt>
    49ae:	c5 f8 77             	vzeroupper 
    49b1:	e9 2d ff ff ff       	jmpq   48e3 <_ZN4util2io6DoReadERSt14basic_ifstreamIcSt11char_traitsIcEERSt6vectorINSt7__cxx1112basic_stringIcS3_SaIcEEESaISA_EE+0x613>
    49b6:	66 2e 0f 1f 84 00 00 	nopw   %cs:0x0(%rax,%rax,1)
    49bd:	00 00 00 

00000000000049c0 <_ZNKSt5ctypeIcE8do_widenEc>:
    49c0:	89 f0                	mov    %esi,%eax
    49c2:	c3                   	retq   
    49c3:	66 2e 0f 1f 84 00 00 	nopw   %cs:0x0(%rax,%rax,1)
    49ca:	00 00 00 
    49cd:	0f 1f 00             	nopl   (%rax)

00000000000049d0 <_ZN4util2io3MMFIifED1Ev>:
    49d0:	41 55                	push   %r13
    49d2:	41 54                	push   %r12
    49d4:	55                   	push   %rbp
    49d5:	48 8d af 88 00 00 00 	lea    0x88(%rdi),%rbp
    49dc:	53                   	push   %rbx
    49dd:	48 89 fb             	mov    %rdi,%rbx
    49e0:	48 89 ef             	mov    %rbp,%rdi
    49e3:	4c 8d 63 20          	lea    0x20(%rbx),%r12
    49e7:	48 83 ec 08          	sub    $0x8,%rsp
    49eb:	e8 10 e2 ff ff       	callq  2c00 <_ZNKSt12__basic_fileIcE7is_openEv@plt>
    49f0:	84 c0                	test   %al,%al
    49f2:	0f 85 a0 00 00 00    	jne    4a98 <_ZN4util2io3MMFIifED1Ev+0xc8>
    49f8:	48 8b bb 20 02 00 00 	mov    0x220(%rbx),%rdi
    49ff:	48 85 ff             	test   %rdi,%rdi
    4a02:	74 05                	je     4a09 <_ZN4util2io3MMFIifED1Ev+0x39>
    4a04:	e8 b7 e3 ff ff       	callq  2dc0 <_ZdlPv@plt>
    4a09:	48 8d 05 c0 be 20 00 	lea    0x20bec0(%rip),%rax        # 2108d0 <_ZTVSt14basic_ifstreamIcSt11char_traitsIcEE@@GLIBCXX_3.4+0x18>
    4a10:	4c 89 e7             	mov    %r12,%rdi
    4a13:	48 89 43 10          	mov    %rax,0x10(%rbx)
    4a17:	48 83 c0 28          	add    $0x28,%rax
    4a1b:	48 89 83 10 01 00 00 	mov    %rax,0x110(%rbx)
    4a22:	48 8d 05 ef be 20 00 	lea    0x20beef(%rip),%rax        # 210918 <_ZTVSt13basic_filebufIcSt11char_traitsIcEE@@GLIBCXX_3.4+0x10>
    4a29:	48 89 43 20          	mov    %rax,0x20(%rbx)
    4a2d:	e8 be e1 ff ff       	callq  2bf0 <_ZNSt13basic_filebufIcSt11char_traitsIcEE5closeEv@plt>
    4a32:	48 89 ef             	mov    %rbp,%rdi
    4a35:	e8 06 e6 ff ff       	callq  3040 <_ZNSt12__basic_fileIcED1Ev@plt>
    4a3a:	48 8d 05 07 be 20 00 	lea    0x20be07(%rip),%rax        # 210848 <_ZTVSt15basic_streambufIcSt11char_traitsIcEE@@GLIBCXX_3.4+0x10>
    4a41:	48 8d 7b 58          	lea    0x58(%rbx),%rdi
    4a45:	48 89 43 20          	mov    %rax,0x20(%rbx)
    4a49:	e8 72 e4 ff ff       	callq  2ec0 <_ZNSt6localeD1Ev@plt>
    4a4e:	48 8b 05 3b bf 20 00 	mov    0x20bf3b(%rip),%rax        # 210990 <_ZTTSt14basic_ifstreamIcSt11char_traitsIcEE@@GLIBCXX_3.4+0x8>
    4a55:	48 8b 15 3c bf 20 00 	mov    0x20bf3c(%rip),%rdx        # 210998 <_ZTTSt14basic_ifstreamIcSt11char_traitsIcEE@@GLIBCXX_3.4+0x10>
    4a5c:	48 8d bb 10 01 00 00 	lea    0x110(%rbx),%rdi
    4a63:	48 89 43 10          	mov    %rax,0x10(%rbx)
    4a67:	48 8b 40 e8          	mov    -0x18(%rax),%rax
    4a6b:	48 89 54 03 10       	mov    %rdx,0x10(%rbx,%rax,1)
    4a70:	48 8d 05 b1 bd 20 00 	lea    0x20bdb1(%rip),%rax        # 210828 <_ZTVSt9basic_iosIcSt11char_traitsIcEE@@GLIBCXX_3.4+0x10>
    4a77:	48 c7 43 18 00 00 00 	movq   $0x0,0x18(%rbx)
    4a7e:	00 
    4a7f:	48 89 83 10 01 00 00 	mov    %rax,0x110(%rbx)
    4a86:	48 83 c4 08          	add    $0x8,%rsp
    4a8a:	5b                   	pop    %rbx
    4a8b:	5d                   	pop    %rbp
    4a8c:	41 5c                	pop    %r12
    4a8e:	41 5d                	pop    %r13
    4a90:	e9 ab e1 ff ff       	jmpq   2c40 <_ZNSt8ios_baseD2Ev@plt>
    4a95:	0f 1f 00             	nopl   (%rax)
    4a98:	4c 89 e7             	mov    %r12,%rdi
    4a9b:	e8 50 e1 ff ff       	callq  2bf0 <_ZNSt13basic_filebufIcSt11char_traitsIcEE5closeEv@plt>
    4aa0:	48 85 c0             	test   %rax,%rax
    4aa3:	0f 85 4f ff ff ff    	jne    49f8 <_ZN4util2io3MMFIifED1Ev+0x28>
    4aa9:	48 8b 43 10          	mov    0x10(%rbx),%rax
    4aad:	4c 8d 6b 10          	lea    0x10(%rbx),%r13
    4ab1:	48 8b 78 e8          	mov    -0x18(%rax),%rdi
    4ab5:	4c 01 ef             	add    %r13,%rdi
    4ab8:	8b 77 20             	mov    0x20(%rdi),%esi
    4abb:	83 ce 04             	or     $0x4,%esi
    4abe:	e8 ed e4 ff ff       	callq  2fb0 <_ZNSt9basic_iosIcSt11char_traitsIcEE5clearESt12_Ios_Iostate@plt>
    4ac3:	e9 30 ff ff ff       	jmpq   49f8 <_ZN4util2io3MMFIifED1Ev+0x28>
    4ac8:	0f 1f 84 00 00 00 00 	nopl   0x0(%rax,%rax,1)
    4acf:	00 

0000000000004ad0 <_ZNK4util2io3MMFIifE9GetNrRowsEv>:
    4ad0:	8b 07                	mov    (%rdi),%eax
    4ad2:	c3                   	retq   
    4ad3:	66 2e 0f 1f 84 00 00 	nopw   %cs:0x0(%rax,%rax,1)
    4ada:	00 00 00 
    4add:	0f 1f 00             	nopl   (%rax)

0000000000004ae0 <_ZNK4util2io3MMFIifE9GetNrColsEv>:
    4ae0:	8b 47 04             	mov    0x4(%rdi),%eax
    4ae3:	c3                   	retq   
    4ae4:	66 2e 0f 1f 84 00 00 	nopw   %cs:0x0(%rax,%rax,1)
    4aeb:	00 00 00 
    4aee:	66 90                	xchg   %ax,%ax

0000000000004af0 <_ZNK4util2io3MMFIifE13GetNrNonzerosEv>:
    4af0:	80 bf 18 02 00 00 00 	cmpb   $0x0,0x218(%rdi)
    4af7:	75 17                	jne    4b10 <_ZNK4util2io3MMFIifE13GetNrNonzerosEv+0x20>
    4af9:	80 bf 19 02 00 00 00 	cmpb   $0x0,0x219(%rdi)
    4b00:	75 0e                	jne    4b10 <_ZNK4util2io3MMFIifE13GetNrNonzerosEv+0x20>
    4b02:	8b 47 08             	mov    0x8(%rdi),%eax
    4b05:	c3                   	retq   
    4b06:	66 2e 0f 1f 84 00 00 	nopw   %cs:0x0(%rax,%rax,1)
    4b0d:	00 00 00 
    4b10:	48 8b 87 28 02 00 00 	mov    0x228(%rdi),%rax
    4b17:	48 2b 87 20 02 00 00 	sub    0x220(%rdi),%rax
    4b1e:	48 c1 f8 02          	sar    $0x2,%rax
    4b22:	69 c0 ab aa aa aa    	imul   $0xaaaaaaab,%eax,%eax
    4b28:	c3                   	retq   
    4b29:	0f 1f 80 00 00 00 00 	nopl   0x0(%rax)

0000000000004b30 <_ZNK4util2io3MMFIifE11IsSymmetricEv>:
    4b30:	0f b6 87 18 02 00 00 	movzbl 0x218(%rdi),%eax
    4b37:	c3                   	retq   
    4b38:	0f 1f 84 00 00 00 00 	nopl   0x0(%rax,%rax,1)
    4b3f:	00 

0000000000004b40 <_ZNK4util2io3MMFIifE9IsColWiseEv>:
    4b40:	0f b6 87 19 02 00 00 	movzbl 0x219(%rdi),%eax
    4b47:	c3                   	retq   
    4b48:	0f 1f 84 00 00 00 00 	nopl   0x0(%rax,%rax,1)
    4b4f:	00 

0000000000004b50 <_ZNK4util2io3MMFIifE11IsZeroBasedEv>:
    4b50:	0f b6 87 1a 02 00 00 	movzbl 0x21a(%rdi),%eax
    4b57:	c3                   	retq   
    4b58:	0f 1f 84 00 00 00 00 	nopl   0x0(%rax,%rax,1)
    4b5f:	00 

0000000000004b60 <_ZN4util2io3MMFIifE18ParseMmfHeaderLineERSt6vectorINSt7__cxx1112basic_stringIcSt11char_traitsIcESaIcEEESaIS9_EE>:
    4b60:	41 57                	push   %r15
    4b62:	41 56                	push   %r14
    4b64:	49 89 fe             	mov    %rdi,%r14
    4b67:	41 55                	push   %r13
    4b69:	41 54                	push   %r12
    4b6b:	55                   	push   %rbp
    4b6c:	53                   	push   %rbx
    4b6d:	48 89 f3             	mov    %rsi,%rbx
    4b70:	48 8d 35 4d 7b 00 00 	lea    0x7b4d(%rip),%rsi        # c6c4 <_IO_stdin_used+0x4>
    4b77:	48 83 ec 08          	sub    $0x8,%rsp
    4b7b:	48 8b 3b             	mov    (%rbx),%rdi
    4b7e:	e8 9d e0 ff ff       	callq  2c20 <_ZNKSt7__cxx1112basic_stringIcSt11char_traitsIcESaIcEE7compareEPKc@plt>
    4b83:	85 c0                	test   %eax,%eax
    4b85:	74 39                	je     4bc0 <_ZN4util2io3MMFIifE18ParseMmfHeaderLineERSt6vectorINSt7__cxx1112basic_stringIcSt11char_traitsIcESaIcEEESaIS9_EE+0x60>
    4b87:	48 8b 03             	mov    (%rbx),%rax
    4b8a:	48 83 78 08 02       	cmpq   $0x2,0x8(%rax)
    4b8f:	76 0c                	jbe    4b9d <_ZN4util2io3MMFIifE18ParseMmfHeaderLineERSt6vectorINSt7__cxx1112basic_stringIcSt11char_traitsIcESaIcEEESaIS9_EE+0x3d>
    4b91:	48 8b 00             	mov    (%rax),%rax
    4b94:	80 38 25             	cmpb   $0x25,(%rax)
    4b97:	0f 84 e3 00 00 00    	je     4c80 <_ZN4util2io3MMFIifE18ParseMmfHeaderLineERSt6vectorINSt7__cxx1112basic_stringIcSt11char_traitsIcESaIcEEESaIS9_EE+0x120>
    4b9d:	41 c7 86 1c 02 00 00 	movl   $0x1,0x21c(%r14)
    4ba4:	01 00 00 00 
    4ba8:	48 83 c4 08          	add    $0x8,%rsp
    4bac:	5b                   	pop    %rbx
    4bad:	5d                   	pop    %rbp
    4bae:	41 5c                	pop    %r12
    4bb0:	41 5d                	pop    %r13
    4bb2:	41 5e                	pop    %r14
    4bb4:	41 5f                	pop    %r15
    4bb6:	c3                   	retq   
    4bb7:	66 0f 1f 84 00 00 00 	nopw   0x0(%rax,%rax,1)
    4bbe:	00 00 
    4bc0:	48 8b 3b             	mov    (%rbx),%rdi
    4bc3:	4c 8b 63 08          	mov    0x8(%rbx),%r12
    4bc7:	49 29 fc             	sub    %rdi,%r12
    4bca:	49 c1 fc 05          	sar    $0x5,%r12
    4bce:	49 83 fc 04          	cmp    $0x4,%r12
    4bd2:	0f 86 4f 01 00 00    	jbe    4d27 <_ZN4util2io3MMFIifE18ParseMmfHeaderLineERSt6vectorINSt7__cxx1112basic_stringIcSt11char_traitsIcESaIcEEESaIS9_EE+0x1c7>
    4bd8:	48 83 c7 40          	add    $0x40,%rdi
    4bdc:	48 8d 35 f0 7a 00 00 	lea    0x7af0(%rip),%rsi        # c6d3 <_IO_stdin_used+0x13>
    4be3:	e8 38 e0 ff ff       	callq  2c20 <_ZNKSt7__cxx1112basic_stringIcSt11char_traitsIcESaIcEE7compareEPKc@plt>
    4be8:	85 c0                	test   %eax,%eax
    4bea:	0f 85 54 01 00 00    	jne    4d44 <_ZN4util2io3MMFIifE18ParseMmfHeaderLineERSt6vectorINSt7__cxx1112basic_stringIcSt11char_traitsIcESaIcEEESaIS9_EE+0x1e4>
    4bf0:	48 8b 03             	mov    (%rbx),%rax
    4bf3:	48 8d 35 e4 7a 00 00 	lea    0x7ae4(%rip),%rsi        # c6de <_IO_stdin_used+0x1e>
    4bfa:	48 8d b8 80 00 00 00 	lea    0x80(%rax),%rdi
    4c01:	e8 1a e0 ff ff       	callq  2c20 <_ZNKSt7__cxx1112basic_stringIcSt11char_traitsIcESaIcEE7compareEPKc@plt>
    4c06:	85 c0                	test   %eax,%eax
    4c08:	0f 85 ca 00 00 00    	jne    4cd8 <_ZN4util2io3MMFIifE18ParseMmfHeaderLineERSt6vectorINSt7__cxx1112basic_stringIcSt11char_traitsIcESaIcEEESaIS9_EE+0x178>
    4c0e:	41 c6 86 18 02 00 00 	movb   $0x0,0x218(%r14)
    4c15:	00 
    4c16:	49 83 fc 05          	cmp    $0x5,%r12
    4c1a:	74 8c                	je     4ba8 <_ZN4util2io3MMFIifE18ParseMmfHeaderLineERSt6vectorINSt7__cxx1112basic_stringIcSt11char_traitsIcESaIcEEESaIS9_EE+0x48>
    4c1c:	bd 05 00 00 00       	mov    $0x5,%ebp
    4c21:	4c 8d 3d c8 7a 00 00 	lea    0x7ac8(%rip),%r15        # c6f0 <_IO_stdin_used+0x30>
    4c28:	eb 1b                	jmp    4c45 <_ZN4util2io3MMFIifE18ParseMmfHeaderLineERSt6vectorINSt7__cxx1112basic_stringIcSt11char_traitsIcESaIcEEESaIS9_EE+0xe5>
    4c2a:	66 0f 1f 44 00 00    	nopw   0x0(%rax,%rax,1)
    4c30:	41 c6 86 1a 02 00 00 	movb   $0x1,0x21a(%r14)
    4c37:	01 
    4c38:	48 83 c5 01          	add    $0x1,%rbp
    4c3c:	4c 39 e5             	cmp    %r12,%rbp
    4c3f:	0f 83 63 ff ff ff    	jae    4ba8 <_ZN4util2io3MMFIifE18ParseMmfHeaderLineERSt6vectorINSt7__cxx1112basic_stringIcSt11char_traitsIcESaIcEEESaIS9_EE+0x48>
    4c45:	49 89 ed             	mov    %rbp,%r13
    4c48:	48 8b 3b             	mov    (%rbx),%rdi
    4c4b:	4c 89 fe             	mov    %r15,%rsi
    4c4e:	49 c1 e5 05          	shl    $0x5,%r13
    4c52:	4c 01 ef             	add    %r13,%rdi
    4c55:	e8 c6 df ff ff       	callq  2c20 <_ZNKSt7__cxx1112basic_stringIcSt11char_traitsIcESaIcEE7compareEPKc@plt>
    4c5a:	85 c0                	test   %eax,%eax
    4c5c:	74 d2                	je     4c30 <_ZN4util2io3MMFIifE18ParseMmfHeaderLineERSt6vectorINSt7__cxx1112basic_stringIcSt11char_traitsIcESaIcEEESaIS9_EE+0xd0>
    4c5e:	48 8b 3b             	mov    (%rbx),%rdi
    4c61:	48 8d 35 8f 7a 00 00 	lea    0x7a8f(%rip),%rsi        # c6f7 <_IO_stdin_used+0x37>
    4c68:	4c 01 ef             	add    %r13,%rdi
    4c6b:	e8 b0 df ff ff       	callq  2c20 <_ZNKSt7__cxx1112basic_stringIcSt11char_traitsIcESaIcEE7compareEPKc@plt>
    4c70:	85 c0                	test   %eax,%eax
    4c72:	75 3c                	jne    4cb0 <_ZN4util2io3MMFIifE18ParseMmfHeaderLineERSt6vectorINSt7__cxx1112basic_stringIcSt11char_traitsIcESaIcEEESaIS9_EE+0x150>
    4c74:	41 c6 86 1a 02 00 00 	movb   $0x0,0x21a(%r14)
    4c7b:	00 
    4c7c:	eb ba                	jmp    4c38 <_ZN4util2io3MMFIifE18ParseMmfHeaderLineERSt6vectorINSt7__cxx1112basic_stringIcSt11char_traitsIcESaIcEEESaIS9_EE+0xd8>
    4c7e:	66 90                	xchg   %ax,%ax
    4c80:	80 78 01 25          	cmpb   $0x25,0x1(%rax)
    4c84:	0f 85 13 ff ff ff    	jne    4b9d <_ZN4util2io3MMFIifE18ParseMmfHeaderLineERSt6vectorINSt7__cxx1112basic_stringIcSt11char_traitsIcESaIcEEESaIS9_EE+0x3d>
    4c8a:	48 8d 3d 8f c3 20 00 	lea    0x20c38f(%rip),%rdi        # 211020 <_ZSt4cout@@GLIBCXX_3.4>
    4c91:	48 8d 35 78 7a 00 00 	lea    0x7a78(%rip),%rsi        # c710 <_IO_stdin_used+0x50>
    4c98:	e8 33 e1 ff ff       	callq  2dd0 <_ZStlsISt11char_traitsIcEERSt13basic_ostreamIcT_ES5_PKc@plt>
    4c9d:	bf 01 00 00 00       	mov    $0x1,%edi
    4ca2:	e8 b9 e1 ff ff       	callq  2e60 <exit@plt>
    4ca7:	66 0f 1f 84 00 00 00 	nopw   0x0(%rax,%rax,1)
    4cae:	00 00 
    4cb0:	48 8b 3b             	mov    (%rbx),%rdi
    4cb3:	48 8d 35 44 7a 00 00 	lea    0x7a44(%rip),%rsi        # c6fe <_IO_stdin_used+0x3e>
    4cba:	4c 01 ef             	add    %r13,%rdi
    4cbd:	e8 5e df ff ff       	callq  2c20 <_ZNKSt7__cxx1112basic_stringIcSt11char_traitsIcESaIcEE7compareEPKc@plt>
    4cc2:	85 c0                	test   %eax,%eax
    4cc4:	75 3a                	jne    4d00 <_ZN4util2io3MMFIifE18ParseMmfHeaderLineERSt6vectorINSt7__cxx1112basic_stringIcSt11char_traitsIcESaIcEEESaIS9_EE+0x1a0>
    4cc6:	41 c6 86 19 02 00 00 	movb   $0x1,0x219(%r14)
    4ccd:	01 
    4cce:	e9 65 ff ff ff       	jmpq   4c38 <_ZN4util2io3MMFIifE18ParseMmfHeaderLineERSt6vectorINSt7__cxx1112basic_stringIcSt11char_traitsIcESaIcEEESaIS9_EE+0xd8>
    4cd3:	0f 1f 44 00 00       	nopl   0x0(%rax,%rax,1)
    4cd8:	48 8b 03             	mov    (%rbx),%rax
    4cdb:	48 8d 35 04 7a 00 00 	lea    0x7a04(%rip),%rsi        # c6e6 <_IO_stdin_used+0x26>
    4ce2:	48 8d b8 80 00 00 00 	lea    0x80(%rax),%rdi
    4ce9:	e8 32 df ff ff       	callq  2c20 <_ZNKSt7__cxx1112basic_stringIcSt11char_traitsIcESaIcEE7compareEPKc@plt>
    4cee:	85 c0                	test   %eax,%eax
    4cf0:	75 6f                	jne    4d61 <_ZN4util2io3MMFIifE18ParseMmfHeaderLineERSt6vectorINSt7__cxx1112basic_stringIcSt11char_traitsIcESaIcEEESaIS9_EE+0x201>
    4cf2:	41 c6 86 18 02 00 00 	movb   $0x1,0x218(%r14)
    4cf9:	01 
    4cfa:	e9 17 ff ff ff       	jmpq   4c16 <_ZN4util2io3MMFIifE18ParseMmfHeaderLineERSt6vectorINSt7__cxx1112basic_stringIcSt11char_traitsIcESaIcEEESaIS9_EE+0xb6>
    4cff:	90                   	nop
    4d00:	48 8b 3b             	mov    (%rbx),%rdi
    4d03:	48 8d 35 fb 79 00 00 	lea    0x79fb(%rip),%rsi        # c705 <_IO_stdin_used+0x45>
    4d0a:	4c 01 ef             	add    %r13,%rdi
    4d0d:	e8 0e df ff ff       	callq  2c20 <_ZNKSt7__cxx1112basic_stringIcSt11char_traitsIcESaIcEE7compareEPKc@plt>
    4d12:	85 c0                	test   %eax,%eax
    4d14:	0f 85 1e ff ff ff    	jne    4c38 <_ZN4util2io3MMFIifE18ParseMmfHeaderLineERSt6vectorINSt7__cxx1112basic_stringIcSt11char_traitsIcESaIcEEESaIS9_EE+0xd8>
    4d1a:	41 c6 86 19 02 00 00 	movb   $0x0,0x219(%r14)
    4d21:	00 
    4d22:	e9 11 ff ff ff       	jmpq   4c38 <_ZN4util2io3MMFIifE18ParseMmfHeaderLineERSt6vectorINSt7__cxx1112basic_stringIcSt11char_traitsIcESaIcEEESaIS9_EE+0xd8>
    4d27:	48 8d 3d f2 c2 20 00 	lea    0x20c2f2(%rip),%rdi        # 211020 <_ZSt4cout@@GLIBCXX_3.4>
    4d2e:	48 8d 35 03 7a 00 00 	lea    0x7a03(%rip),%rsi        # c738 <_IO_stdin_used+0x78>
    4d35:	e8 96 e0 ff ff       	callq  2dd0 <_ZStlsISt11char_traitsIcEERSt13basic_ostreamIcT_ES5_PKc@plt>
    4d3a:	bf 01 00 00 00       	mov    $0x1,%edi
    4d3f:	e8 1c e1 ff ff       	callq  2e60 <exit@plt>
    4d44:	48 8d 3d d5 c2 20 00 	lea    0x20c2d5(%rip),%rdi        # 211020 <_ZSt4cout@@GLIBCXX_3.4>
    4d4b:	48 8d 35 16 7a 00 00 	lea    0x7a16(%rip),%rsi        # c768 <_IO_stdin_used+0xa8>
    4d52:	e8 79 e0 ff ff       	callq  2dd0 <_ZStlsISt11char_traitsIcEERSt13basic_ostreamIcT_ES5_PKc@plt>
    4d57:	bf 01 00 00 00       	mov    $0x1,%edi
    4d5c:	e8 ff e0 ff ff       	callq  2e60 <exit@plt>
    4d61:	48 8d 3d b8 c2 20 00 	lea    0x20c2b8(%rip),%rdi        # 211020 <_ZSt4cout@@GLIBCXX_3.4>
    4d68:	48 8d 35 31 7a 00 00 	lea    0x7a31(%rip),%rsi        # c7a0 <_IO_stdin_used+0xe0>
    4d6f:	e8 5c e0 ff ff       	callq  2dd0 <_ZStlsISt11char_traitsIcEERSt13basic_ostreamIcT_ES5_PKc@plt>
    4d74:	bf 01 00 00 00       	mov    $0x1,%edi
    4d79:	e8 e2 e0 ff ff       	callq  2e60 <exit@plt>
    4d7e:	66 90                	xchg   %ax,%ax

0000000000004d80 <_ZN4util2io3MMFIifE8iteratorC1Ev>:
    4d80:	c3                   	retq   
    4d81:	66 2e 0f 1f 84 00 00 	nopw   %cs:0x0(%rax,%rax,1)
    4d88:	00 00 00 
    4d8b:	0f 1f 44 00 00       	nopl   0x0(%rax,%rax,1)

0000000000004d90 <_ZN4util2io3MMFIifE8iteratoreqERKS3_>:
    4d90:	31 c0                	xor    %eax,%eax
    4d92:	48 8b 16             	mov    (%rsi),%rdx
    4d95:	48 39 17             	cmp    %rdx,(%rdi)
    4d98:	74 06                	je     4da0 <_ZN4util2io3MMFIifE8iteratoreqERKS3_+0x10>
    4d9a:	c3                   	retq   
    4d9b:	0f 1f 44 00 00       	nopl   0x0(%rax,%rax,1)
    4da0:	48 8b 46 08          	mov    0x8(%rsi),%rax
    4da4:	48 39 47 08          	cmp    %rax,0x8(%rdi)
    4da8:	0f 94 c0             	sete   %al
    4dab:	c3                   	retq   
    4dac:	0f 1f 40 00          	nopl   0x0(%rax)

0000000000004db0 <_ZN4util2io3MMFIifE8iteratorneERKS3_>:
    4db0:	b8 01 00 00 00       	mov    $0x1,%eax
    4db5:	48 8b 16             	mov    (%rsi),%rdx
    4db8:	48 39 17             	cmp    %rdx,(%rdi)
    4dbb:	74 03                	je     4dc0 <_ZN4util2io3MMFIifE8iteratorneERKS3_+0x10>
    4dbd:	c3                   	retq   
    4dbe:	66 90                	xchg   %ax,%ax
    4dc0:	48 8b 46 08          	mov    0x8(%rsi),%rax
    4dc4:	48 39 47 08          	cmp    %rax,0x8(%rdi)
    4dc8:	0f 95 c0             	setne  %al
    4dcb:	c3                   	retq   
    4dcc:	0f 1f 40 00          	nopl   0x0(%rax)

0000000000004dd0 <_ZN4util2io3MMFIifE8iteratordeEv>:
    4dd0:	48 8b 07             	mov    (%rdi),%rax
    4dd3:	80 b8 18 02 00 00 00 	cmpb   $0x0,0x218(%rax)
    4dda:	75 14                	jne    4df0 <_ZN4util2io3MMFIifE8iteratordeEv+0x20>
    4ddc:	80 b8 19 02 00 00 00 	cmpb   $0x0,0x219(%rax)
    4de3:	75 0b                	jne    4df0 <_ZN4util2io3MMFIifE8iteratordeEv+0x20>
    4de5:	80 7f 1c 00          	cmpb   $0x0,0x1c(%rdi)
    4de9:	74 19                	je     4e04 <_ZN4util2io3MMFIifE8iteratordeEv+0x34>
    4deb:	48 8d 47 10          	lea    0x10(%rdi),%rax
    4def:	c3                   	retq   
    4df0:	48 8b 57 08          	mov    0x8(%rdi),%rdx
    4df4:	48 8b 80 20 02 00 00 	mov    0x220(%rax),%rax
    4dfb:	48 8d 14 52          	lea    (%rdx,%rdx,2),%rdx
    4dff:	48 8d 04 90          	lea    (%rax,%rdx,4),%rax
    4e03:	c3                   	retq   
    4e04:	48 8d 3d 15 c2 20 00 	lea    0x20c215(%rip),%rdi        # 211020 <_ZSt4cout@@GLIBCXX_3.4>
    4e0b:	48 83 ec 08          	sub    $0x8,%rsp
    4e0f:	48 8d 35 c2 79 00 00 	lea    0x79c2(%rip),%rsi        # c7d8 <_IO_stdin_used+0x118>
    4e16:	e8 b5 df ff ff       	callq  2dd0 <_ZStlsISt11char_traitsIcEERSt13basic_ostreamIcT_ES5_PKc@plt>
    4e1b:	bf 01 00 00 00       	mov    $0x1,%edi
    4e20:	e8 3b e0 ff ff       	callq  2e60 <exit@plt>
    4e25:	66 2e 0f 1f 84 00 00 	nopw   %cs:0x0(%rax,%rax,1)
    4e2c:	00 00 00 
    4e2f:	90                   	nop

0000000000004e30 <_ZN4util2io3MMFIidED1Ev>:
    4e30:	41 55                	push   %r13
    4e32:	41 54                	push   %r12
    4e34:	55                   	push   %rbp
    4e35:	48 8d af 88 00 00 00 	lea    0x88(%rdi),%rbp
    4e3c:	53                   	push   %rbx
    4e3d:	48 89 fb             	mov    %rdi,%rbx
    4e40:	48 89 ef             	mov    %rbp,%rdi
    4e43:	4c 8d 63 20          	lea    0x20(%rbx),%r12
    4e47:	48 83 ec 08          	sub    $0x8,%rsp
    4e4b:	e8 b0 dd ff ff       	callq  2c00 <_ZNKSt12__basic_fileIcE7is_openEv@plt>
    4e50:	84 c0                	test   %al,%al
    4e52:	0f 85 a0 00 00 00    	jne    4ef8 <_ZN4util2io3MMFIidED1Ev+0xc8>
    4e58:	48 8b bb 20 02 00 00 	mov    0x220(%rbx),%rdi
    4e5f:	48 85 ff             	test   %rdi,%rdi
    4e62:	74 05                	je     4e69 <_ZN4util2io3MMFIidED1Ev+0x39>
    4e64:	e8 57 df ff ff       	callq  2dc0 <_ZdlPv@plt>
    4e69:	48 8d 05 60 ba 20 00 	lea    0x20ba60(%rip),%rax        # 2108d0 <_ZTVSt14basic_ifstreamIcSt11char_traitsIcEE@@GLIBCXX_3.4+0x18>
    4e70:	4c 89 e7             	mov    %r12,%rdi
    4e73:	48 89 43 10          	mov    %rax,0x10(%rbx)
    4e77:	48 83 c0 28          	add    $0x28,%rax
    4e7b:	48 89 83 10 01 00 00 	mov    %rax,0x110(%rbx)
    4e82:	48 8d 05 8f ba 20 00 	lea    0x20ba8f(%rip),%rax        # 210918 <_ZTVSt13basic_filebufIcSt11char_traitsIcEE@@GLIBCXX_3.4+0x10>
    4e89:	48 89 43 20          	mov    %rax,0x20(%rbx)
    4e8d:	e8 5e dd ff ff       	callq  2bf0 <_ZNSt13basic_filebufIcSt11char_traitsIcEE5closeEv@plt>
    4e92:	48 89 ef             	mov    %rbp,%rdi
    4e95:	e8 a6 e1 ff ff       	callq  3040 <_ZNSt12__basic_fileIcED1Ev@plt>
    4e9a:	48 8d 05 a7 b9 20 00 	lea    0x20b9a7(%rip),%rax        # 210848 <_ZTVSt15basic_streambufIcSt11char_traitsIcEE@@GLIBCXX_3.4+0x10>
    4ea1:	48 8d 7b 58          	lea    0x58(%rbx),%rdi
    4ea5:	48 89 43 20          	mov    %rax,0x20(%rbx)
    4ea9:	e8 12 e0 ff ff       	callq  2ec0 <_ZNSt6localeD1Ev@plt>
    4eae:	48 8b 05 db ba 20 00 	mov    0x20badb(%rip),%rax        # 210990 <_ZTTSt14basic_ifstreamIcSt11char_traitsIcEE@@GLIBCXX_3.4+0x8>
    4eb5:	48 8b 15 dc ba 20 00 	mov    0x20badc(%rip),%rdx        # 210998 <_ZTTSt14basic_ifstreamIcSt11char_traitsIcEE@@GLIBCXX_3.4+0x10>
    4ebc:	48 8d bb 10 01 00 00 	lea    0x110(%rbx),%rdi
    4ec3:	48 89 43 10          	mov    %rax,0x10(%rbx)
    4ec7:	48 8b 40 e8          	mov    -0x18(%rax),%rax
    4ecb:	48 89 54 03 10       	mov    %rdx,0x10(%rbx,%rax,1)
    4ed0:	48 8d 05 51 b9 20 00 	lea    0x20b951(%rip),%rax        # 210828 <_ZTVSt9basic_iosIcSt11char_traitsIcEE@@GLIBCXX_3.4+0x10>
    4ed7:	48 c7 43 18 00 00 00 	movq   $0x0,0x18(%rbx)
    4ede:	00 
    4edf:	48 89 83 10 01 00 00 	mov    %rax,0x110(%rbx)
    4ee6:	48 83 c4 08          	add    $0x8,%rsp
    4eea:	5b                   	pop    %rbx
    4eeb:	5d                   	pop    %rbp
    4eec:	41 5c                	pop    %r12
    4eee:	41 5d                	pop    %r13
    4ef0:	e9 4b dd ff ff       	jmpq   2c40 <_ZNSt8ios_baseD2Ev@plt>
    4ef5:	0f 1f 00             	nopl   (%rax)
    4ef8:	4c 89 e7             	mov    %r12,%rdi
    4efb:	e8 f0 dc ff ff       	callq  2bf0 <_ZNSt13basic_filebufIcSt11char_traitsIcEE5closeEv@plt>
    4f00:	48 85 c0             	test   %rax,%rax
    4f03:	0f 85 4f ff ff ff    	jne    4e58 <_ZN4util2io3MMFIidED1Ev+0x28>
    4f09:	48 8b 43 10          	mov    0x10(%rbx),%rax
    4f0d:	4c 8d 6b 10          	lea    0x10(%rbx),%r13
    4f11:	48 8b 78 e8          	mov    -0x18(%rax),%rdi
    4f15:	4c 01 ef             	add    %r13,%rdi
    4f18:	8b 77 20             	mov    0x20(%rdi),%esi
    4f1b:	83 ce 04             	or     $0x4,%esi
    4f1e:	e8 8d e0 ff ff       	callq  2fb0 <_ZNSt9basic_iosIcSt11char_traitsIcEE5clearESt12_Ios_Iostate@plt>
    4f23:	e9 30 ff ff ff       	jmpq   4e58 <_ZN4util2io3MMFIidED1Ev+0x28>
    4f28:	0f 1f 84 00 00 00 00 	nopl   0x0(%rax,%rax,1)
    4f2f:	00 

0000000000004f30 <_ZNK4util2io3MMFIidE9GetNrRowsEv>:
    4f30:	8b 07                	mov    (%rdi),%eax
    4f32:	c3                   	retq   
    4f33:	66 2e 0f 1f 84 00 00 	nopw   %cs:0x0(%rax,%rax,1)
    4f3a:	00 00 00 
    4f3d:	0f 1f 00             	nopl   (%rax)

0000000000004f40 <_ZNK4util2io3MMFIidE9GetNrColsEv>:
    4f40:	8b 47 04             	mov    0x4(%rdi),%eax
    4f43:	c3                   	retq   
    4f44:	66 2e 0f 1f 84 00 00 	nopw   %cs:0x0(%rax,%rax,1)
    4f4b:	00 00 00 
    4f4e:	66 90                	xchg   %ax,%ax

0000000000004f50 <_ZNK4util2io3MMFIidE13GetNrNonzerosEv>:
    4f50:	80 bf 18 02 00 00 00 	cmpb   $0x0,0x218(%rdi)
    4f57:	75 17                	jne    4f70 <_ZNK4util2io3MMFIidE13GetNrNonzerosEv+0x20>
    4f59:	80 bf 19 02 00 00 00 	cmpb   $0x0,0x219(%rdi)
    4f60:	75 0e                	jne    4f70 <_ZNK4util2io3MMFIidE13GetNrNonzerosEv+0x20>
    4f62:	8b 47 08             	mov    0x8(%rdi),%eax
    4f65:	c3                   	retq   
    4f66:	66 2e 0f 1f 84 00 00 	nopw   %cs:0x0(%rax,%rax,1)
    4f6d:	00 00 00 
    4f70:	48 8b 87 28 02 00 00 	mov    0x228(%rdi),%rax
    4f77:	48 2b 87 20 02 00 00 	sub    0x220(%rdi),%rax
    4f7e:	48 c1 f8 04          	sar    $0x4,%rax
    4f82:	c3                   	retq   
    4f83:	66 2e 0f 1f 84 00 00 	nopw   %cs:0x0(%rax,%rax,1)
    4f8a:	00 00 00 
    4f8d:	0f 1f 00             	nopl   (%rax)

0000000000004f90 <_ZNK4util2io3MMFIidE11IsSymmetricEv>:
    4f90:	0f b6 87 18 02 00 00 	movzbl 0x218(%rdi),%eax
    4f97:	c3                   	retq   
    4f98:	0f 1f 84 00 00 00 00 	nopl   0x0(%rax,%rax,1)
    4f9f:	00 

0000000000004fa0 <_ZNK4util2io3MMFIidE9IsColWiseEv>:
    4fa0:	0f b6 87 19 02 00 00 	movzbl 0x219(%rdi),%eax
    4fa7:	c3                   	retq   
    4fa8:	0f 1f 84 00 00 00 00 	nopl   0x0(%rax,%rax,1)
    4faf:	00 

0000000000004fb0 <_ZNK4util2io3MMFIidE11IsZeroBasedEv>:
    4fb0:	0f b6 87 1a 02 00 00 	movzbl 0x21a(%rdi),%eax
    4fb7:	c3                   	retq   
    4fb8:	0f 1f 84 00 00 00 00 	nopl   0x0(%rax,%rax,1)
    4fbf:	00 

0000000000004fc0 <_ZN4util2io3MMFIidE18ParseMmfHeaderLineERSt6vectorINSt7__cxx1112basic_stringIcSt11char_traitsIcESaIcEEESaIS9_EE>:
    4fc0:	41 57                	push   %r15
    4fc2:	41 56                	push   %r14
    4fc4:	49 89 fe             	mov    %rdi,%r14
    4fc7:	41 55                	push   %r13
    4fc9:	41 54                	push   %r12
    4fcb:	55                   	push   %rbp
    4fcc:	53                   	push   %rbx
    4fcd:	48 89 f3             	mov    %rsi,%rbx
    4fd0:	48 8d 35 ed 76 00 00 	lea    0x76ed(%rip),%rsi        # c6c4 <_IO_stdin_used+0x4>
    4fd7:	48 83 ec 08          	sub    $0x8,%rsp
    4fdb:	48 8b 3b             	mov    (%rbx),%rdi
    4fde:	e8 3d dc ff ff       	callq  2c20 <_ZNKSt7__cxx1112basic_stringIcSt11char_traitsIcESaIcEE7compareEPKc@plt>
    4fe3:	85 c0                	test   %eax,%eax
    4fe5:	74 39                	je     5020 <_ZN4util2io3MMFIidE18ParseMmfHeaderLineERSt6vectorINSt7__cxx1112basic_stringIcSt11char_traitsIcESaIcEEESaIS9_EE+0x60>
    4fe7:	48 8b 03             	mov    (%rbx),%rax
    4fea:	48 83 78 08 02       	cmpq   $0x2,0x8(%rax)
    4fef:	76 0c                	jbe    4ffd <_ZN4util2io3MMFIidE18ParseMmfHeaderLineERSt6vectorINSt7__cxx1112basic_stringIcSt11char_traitsIcESaIcEEESaIS9_EE+0x3d>
    4ff1:	48 8b 00             	mov    (%rax),%rax
    4ff4:	80 38 25             	cmpb   $0x25,(%rax)
    4ff7:	0f 84 e3 00 00 00    	je     50e0 <_ZN4util2io3MMFIidE18ParseMmfHeaderLineERSt6vectorINSt7__cxx1112basic_stringIcSt11char_traitsIcESaIcEEESaIS9_EE+0x120>
    4ffd:	41 c7 86 1c 02 00 00 	movl   $0x1,0x21c(%r14)
    5004:	01 00 00 00 
    5008:	48 83 c4 08          	add    $0x8,%rsp
    500c:	5b                   	pop    %rbx
    500d:	5d                   	pop    %rbp
    500e:	41 5c                	pop    %r12
    5010:	41 5d                	pop    %r13
    5012:	41 5e                	pop    %r14
    5014:	41 5f                	pop    %r15
    5016:	c3                   	retq   
    5017:	66 0f 1f 84 00 00 00 	nopw   0x0(%rax,%rax,1)
    501e:	00 00 
    5020:	48 8b 3b             	mov    (%rbx),%rdi
    5023:	4c 8b 63 08          	mov    0x8(%rbx),%r12
    5027:	49 29 fc             	sub    %rdi,%r12
    502a:	49 c1 fc 05          	sar    $0x5,%r12
    502e:	49 83 fc 04          	cmp    $0x4,%r12
    5032:	0f 86 4f 01 00 00    	jbe    5187 <_ZN4util2io3MMFIidE18ParseMmfHeaderLineERSt6vectorINSt7__cxx1112basic_stringIcSt11char_traitsIcESaIcEEESaIS9_EE+0x1c7>
    5038:	48 83 c7 40          	add    $0x40,%rdi
    503c:	48 8d 35 90 76 00 00 	lea    0x7690(%rip),%rsi        # c6d3 <_IO_stdin_used+0x13>
    5043:	e8 d8 db ff ff       	callq  2c20 <_ZNKSt7__cxx1112basic_stringIcSt11char_traitsIcESaIcEE7compareEPKc@plt>
    5048:	85 c0                	test   %eax,%eax
    504a:	0f 85 54 01 00 00    	jne    51a4 <_ZN4util2io3MMFIidE18ParseMmfHeaderLineERSt6vectorINSt7__cxx1112basic_stringIcSt11char_traitsIcESaIcEEESaIS9_EE+0x1e4>
    5050:	48 8b 03             	mov    (%rbx),%rax
    5053:	48 8d 35 84 76 00 00 	lea    0x7684(%rip),%rsi        # c6de <_IO_stdin_used+0x1e>
    505a:	48 8d b8 80 00 00 00 	lea    0x80(%rax),%rdi
    5061:	e8 ba db ff ff       	callq  2c20 <_ZNKSt7__cxx1112basic_stringIcSt11char_traitsIcESaIcEE7compareEPKc@plt>
    5066:	85 c0                	test   %eax,%eax
    5068:	0f 85 ca 00 00 00    	jne    5138 <_ZN4util2io3MMFIidE18ParseMmfHeaderLineERSt6vectorINSt7__cxx1112basic_stringIcSt11char_traitsIcESaIcEEESaIS9_EE+0x178>
    506e:	41 c6 86 18 02 00 00 	movb   $0x0,0x218(%r14)
    5075:	00 
    5076:	49 83 fc 05          	cmp    $0x5,%r12
    507a:	74 8c                	je     5008 <_ZN4util2io3MMFIidE18ParseMmfHeaderLineERSt6vectorINSt7__cxx1112basic_stringIcSt11char_traitsIcESaIcEEESaIS9_EE+0x48>
    507c:	bd 05 00 00 00       	mov    $0x5,%ebp
    5081:	4c 8d 3d 68 76 00 00 	lea    0x7668(%rip),%r15        # c6f0 <_IO_stdin_used+0x30>
    5088:	eb 1b                	jmp    50a5 <_ZN4util2io3MMFIidE18ParseMmfHeaderLineERSt6vectorINSt7__cxx1112basic_stringIcSt11char_traitsIcESaIcEEESaIS9_EE+0xe5>
    508a:	66 0f 1f 44 00 00    	nopw   0x0(%rax,%rax,1)
    5090:	41 c6 86 1a 02 00 00 	movb   $0x1,0x21a(%r14)
    5097:	01 
    5098:	48 83 c5 01          	add    $0x1,%rbp
    509c:	4c 39 e5             	cmp    %r12,%rbp
    509f:	0f 83 63 ff ff ff    	jae    5008 <_ZN4util2io3MMFIidE18ParseMmfHeaderLineERSt6vectorINSt7__cxx1112basic_stringIcSt11char_traitsIcESaIcEEESaIS9_EE+0x48>
    50a5:	49 89 ed             	mov    %rbp,%r13
    50a8:	48 8b 3b             	mov    (%rbx),%rdi
    50ab:	4c 89 fe             	mov    %r15,%rsi
    50ae:	49 c1 e5 05          	shl    $0x5,%r13
    50b2:	4c 01 ef             	add    %r13,%rdi
    50b5:	e8 66 db ff ff       	callq  2c20 <_ZNKSt7__cxx1112basic_stringIcSt11char_traitsIcESaIcEE7compareEPKc@plt>
    50ba:	85 c0                	test   %eax,%eax
    50bc:	74 d2                	je     5090 <_ZN4util2io3MMFIidE18ParseMmfHeaderLineERSt6vectorINSt7__cxx1112basic_stringIcSt11char_traitsIcESaIcEEESaIS9_EE+0xd0>
    50be:	48 8b 3b             	mov    (%rbx),%rdi
    50c1:	48 8d 35 2f 76 00 00 	lea    0x762f(%rip),%rsi        # c6f7 <_IO_stdin_used+0x37>
    50c8:	4c 01 ef             	add    %r13,%rdi
    50cb:	e8 50 db ff ff       	callq  2c20 <_ZNKSt7__cxx1112basic_stringIcSt11char_traitsIcESaIcEE7compareEPKc@plt>
    50d0:	85 c0                	test   %eax,%eax
    50d2:	75 3c                	jne    5110 <_ZN4util2io3MMFIidE18ParseMmfHeaderLineERSt6vectorINSt7__cxx1112basic_stringIcSt11char_traitsIcESaIcEEESaIS9_EE+0x150>
    50d4:	41 c6 86 1a 02 00 00 	movb   $0x0,0x21a(%r14)
    50db:	00 
    50dc:	eb ba                	jmp    5098 <_ZN4util2io3MMFIidE18ParseMmfHeaderLineERSt6vectorINSt7__cxx1112basic_stringIcSt11char_traitsIcESaIcEEESaIS9_EE+0xd8>
    50de:	66 90                	xchg   %ax,%ax
    50e0:	80 78 01 25          	cmpb   $0x25,0x1(%rax)
    50e4:	0f 85 13 ff ff ff    	jne    4ffd <_ZN4util2io3MMFIidE18ParseMmfHeaderLineERSt6vectorINSt7__cxx1112basic_stringIcSt11char_traitsIcESaIcEEESaIS9_EE+0x3d>
    50ea:	48 8d 3d 2f bf 20 00 	lea    0x20bf2f(%rip),%rdi        # 211020 <_ZSt4cout@@GLIBCXX_3.4>
    50f1:	48 8d 35 18 76 00 00 	lea    0x7618(%rip),%rsi        # c710 <_IO_stdin_used+0x50>
    50f8:	e8 d3 dc ff ff       	callq  2dd0 <_ZStlsISt11char_traitsIcEERSt13basic_ostreamIcT_ES5_PKc@plt>
    50fd:	bf 01 00 00 00       	mov    $0x1,%edi
    5102:	e8 59 dd ff ff       	callq  2e60 <exit@plt>
    5107:	66 0f 1f 84 00 00 00 	nopw   0x0(%rax,%rax,1)
    510e:	00 00 
    5110:	48 8b 3b             	mov    (%rbx),%rdi
    5113:	48 8d 35 e4 75 00 00 	lea    0x75e4(%rip),%rsi        # c6fe <_IO_stdin_used+0x3e>
    511a:	4c 01 ef             	add    %r13,%rdi
    511d:	e8 fe da ff ff       	callq  2c20 <_ZNKSt7__cxx1112basic_stringIcSt11char_traitsIcESaIcEE7compareEPKc@plt>
    5122:	85 c0                	test   %eax,%eax
    5124:	75 3a                	jne    5160 <_ZN4util2io3MMFIidE18ParseMmfHeaderLineERSt6vectorINSt7__cxx1112basic_stringIcSt11char_traitsIcESaIcEEESaIS9_EE+0x1a0>
    5126:	41 c6 86 19 02 00 00 	movb   $0x1,0x219(%r14)
    512d:	01 
    512e:	e9 65 ff ff ff       	jmpq   5098 <_ZN4util2io3MMFIidE18ParseMmfHeaderLineERSt6vectorINSt7__cxx1112basic_stringIcSt11char_traitsIcESaIcEEESaIS9_EE+0xd8>
    5133:	0f 1f 44 00 00       	nopl   0x0(%rax,%rax,1)
    5138:	48 8b 03             	mov    (%rbx),%rax
    513b:	48 8d 35 a4 75 00 00 	lea    0x75a4(%rip),%rsi        # c6e6 <_IO_stdin_used+0x26>
    5142:	48 8d b8 80 00 00 00 	lea    0x80(%rax),%rdi
    5149:	e8 d2 da ff ff       	callq  2c20 <_ZNKSt7__cxx1112basic_stringIcSt11char_traitsIcESaIcEE7compareEPKc@plt>
    514e:	85 c0                	test   %eax,%eax
    5150:	75 6f                	jne    51c1 <_ZN4util2io3MMFIidE18ParseMmfHeaderLineERSt6vectorINSt7__cxx1112basic_stringIcSt11char_traitsIcESaIcEEESaIS9_EE+0x201>
    5152:	41 c6 86 18 02 00 00 	movb   $0x1,0x218(%r14)
    5159:	01 
    515a:	e9 17 ff ff ff       	jmpq   5076 <_ZN4util2io3MMFIidE18ParseMmfHeaderLineERSt6vectorINSt7__cxx1112basic_stringIcSt11char_traitsIcESaIcEEESaIS9_EE+0xb6>
    515f:	90                   	nop
    5160:	48 8b 3b             	mov    (%rbx),%rdi
    5163:	48 8d 35 9b 75 00 00 	lea    0x759b(%rip),%rsi        # c705 <_IO_stdin_used+0x45>
    516a:	4c 01 ef             	add    %r13,%rdi
    516d:	e8 ae da ff ff       	callq  2c20 <_ZNKSt7__cxx1112basic_stringIcSt11char_traitsIcESaIcEE7compareEPKc@plt>
    5172:	85 c0                	test   %eax,%eax
    5174:	0f 85 1e ff ff ff    	jne    5098 <_ZN4util2io3MMFIidE18ParseMmfHeaderLineERSt6vectorINSt7__cxx1112basic_stringIcSt11char_traitsIcESaIcEEESaIS9_EE+0xd8>
    517a:	41 c6 86 19 02 00 00 	movb   $0x0,0x219(%r14)
    5181:	00 
    5182:	e9 11 ff ff ff       	jmpq   5098 <_ZN4util2io3MMFIidE18ParseMmfHeaderLineERSt6vectorINSt7__cxx1112basic_stringIcSt11char_traitsIcESaIcEEESaIS9_EE+0xd8>
    5187:	48 8d 3d 92 be 20 00 	lea    0x20be92(%rip),%rdi        # 211020 <_ZSt4cout@@GLIBCXX_3.4>
    518e:	48 8d 35 a3 75 00 00 	lea    0x75a3(%rip),%rsi        # c738 <_IO_stdin_used+0x78>
    5195:	e8 36 dc ff ff       	callq  2dd0 <_ZStlsISt11char_traitsIcEERSt13basic_ostreamIcT_ES5_PKc@plt>
    519a:	bf 01 00 00 00       	mov    $0x1,%edi
    519f:	e8 bc dc ff ff       	callq  2e60 <exit@plt>
    51a4:	48 8d 3d 75 be 20 00 	lea    0x20be75(%rip),%rdi        # 211020 <_ZSt4cout@@GLIBCXX_3.4>
    51ab:	48 8d 35 b6 75 00 00 	lea    0x75b6(%rip),%rsi        # c768 <_IO_stdin_used+0xa8>
    51b2:	e8 19 dc ff ff       	callq  2dd0 <_ZStlsISt11char_traitsIcEERSt13basic_ostreamIcT_ES5_PKc@plt>
    51b7:	bf 01 00 00 00       	mov    $0x1,%edi
    51bc:	e8 9f dc ff ff       	callq  2e60 <exit@plt>
    51c1:	48 8d 3d 58 be 20 00 	lea    0x20be58(%rip),%rdi        # 211020 <_ZSt4cout@@GLIBCXX_3.4>
    51c8:	48 8d 35 d1 75 00 00 	lea    0x75d1(%rip),%rsi        # c7a0 <_IO_stdin_used+0xe0>
    51cf:	e8 fc db ff ff       	callq  2dd0 <_ZStlsISt11char_traitsIcEERSt13basic_ostreamIcT_ES5_PKc@plt>
    51d4:	bf 01 00 00 00       	mov    $0x1,%edi
    51d9:	e8 82 dc ff ff       	callq  2e60 <exit@plt>
    51de:	66 90                	xchg   %ax,%ax

00000000000051e0 <_ZN4util2io3MMFIidE8iteratorC1Ev>:
    51e0:	c3                   	retq   
    51e1:	66 2e 0f 1f 84 00 00 	nopw   %cs:0x0(%rax,%rax,1)
    51e8:	00 00 00 
    51eb:	0f 1f 44 00 00       	nopl   0x0(%rax,%rax,1)

00000000000051f0 <_ZN4util2io3MMFIidE8iteratoreqERKS3_>:
    51f0:	31 c0                	xor    %eax,%eax
    51f2:	48 8b 16             	mov    (%rsi),%rdx
    51f5:	48 39 17             	cmp    %rdx,(%rdi)
    51f8:	74 06                	je     5200 <_ZN4util2io3MMFIidE8iteratoreqERKS3_+0x10>
    51fa:	c3                   	retq   
    51fb:	0f 1f 44 00 00       	nopl   0x0(%rax,%rax,1)
    5200:	48 8b 46 08          	mov    0x8(%rsi),%rax
    5204:	48 39 47 08          	cmp    %rax,0x8(%rdi)
    5208:	0f 94 c0             	sete   %al
    520b:	c3                   	retq   
    520c:	0f 1f 40 00          	nopl   0x0(%rax)

0000000000005210 <_ZN4util2io3MMFIidE8iteratorneERKS3_>:
    5210:	b8 01 00 00 00       	mov    $0x1,%eax
    5215:	48 8b 16             	mov    (%rsi),%rdx
    5218:	48 39 17             	cmp    %rdx,(%rdi)
    521b:	74 03                	je     5220 <_ZN4util2io3MMFIidE8iteratorneERKS3_+0x10>
    521d:	c3                   	retq   
    521e:	66 90                	xchg   %ax,%ax
    5220:	48 8b 46 08          	mov    0x8(%rsi),%rax
    5224:	48 39 47 08          	cmp    %rax,0x8(%rdi)
    5228:	0f 95 c0             	setne  %al
    522b:	c3                   	retq   
    522c:	0f 1f 40 00          	nopl   0x0(%rax)

0000000000005230 <_ZN4util2io3MMFIidE8iteratordeEv>:
    5230:	48 8b 07             	mov    (%rdi),%rax
    5233:	80 b8 18 02 00 00 00 	cmpb   $0x0,0x218(%rax)
    523a:	75 14                	jne    5250 <_ZN4util2io3MMFIidE8iteratordeEv+0x20>
    523c:	80 b8 19 02 00 00 00 	cmpb   $0x0,0x219(%rax)
    5243:	75 0b                	jne    5250 <_ZN4util2io3MMFIidE8iteratordeEv+0x20>
    5245:	80 7f 20 00          	cmpb   $0x0,0x20(%rdi)
    5249:	74 18                	je     5263 <_ZN4util2io3MMFIidE8iteratordeEv+0x33>
    524b:	48 8d 47 10          	lea    0x10(%rdi),%rax
    524f:	c3                   	retq   
    5250:	48 8b 7f 08          	mov    0x8(%rdi),%rdi
    5254:	48 c1 e7 04          	shl    $0x4,%rdi
    5258:	48 03 b8 20 02 00 00 	add    0x220(%rax),%rdi
    525f:	48 89 f8             	mov    %rdi,%rax
    5262:	c3                   	retq   
    5263:	48 8d 3d b6 bd 20 00 	lea    0x20bdb6(%rip),%rdi        # 211020 <_ZSt4cout@@GLIBCXX_3.4>
    526a:	48 83 ec 08          	sub    $0x8,%rsp
    526e:	48 8d 35 63 75 00 00 	lea    0x7563(%rip),%rsi        # c7d8 <_IO_stdin_used+0x118>
    5275:	e8 56 db ff ff       	callq  2dd0 <_ZStlsISt11char_traitsIcEERSt13basic_ostreamIcT_ES5_PKc@plt>
    527a:	bf 01 00 00 00       	mov    $0x1,%edi
    527f:	e8 dc db ff ff       	callq  2e60 <exit@plt>
    5284:	66 2e 0f 1f 84 00 00 	nopw   %cs:0x0(%rax,%rax,1)
    528b:	00 00 00 
    528e:	66 90                	xchg   %ax,%ax

0000000000005290 <_ZNSt6vectorINSt7__cxx1112basic_stringIcSt11char_traitsIcESaIcEEESaIS5_EED1Ev>:
    5290:	41 54                	push   %r12
    5292:	49 89 fc             	mov    %rdi,%r12
    5295:	55                   	push   %rbp
    5296:	53                   	push   %rbx
    5297:	48 8b 6f 08          	mov    0x8(%rdi),%rbp
    529b:	48 8b 1f             	mov    (%rdi),%rbx
    529e:	48 39 dd             	cmp    %rbx,%rbp
    52a1:	74 23                	je     52c6 <_ZNSt6vectorINSt7__cxx1112basic_stringIcSt11char_traitsIcESaIcEEESaIS5_EED1Ev+0x36>
    52a3:	0f 1f 44 00 00       	nopl   0x0(%rax,%rax,1)
    52a8:	48 8b 3b             	mov    (%rbx),%rdi
    52ab:	48 8d 43 10          	lea    0x10(%rbx),%rax
    52af:	48 39 c7             	cmp    %rax,%rdi
    52b2:	74 2c                	je     52e0 <_ZNSt6vectorINSt7__cxx1112basic_stringIcSt11char_traitsIcESaIcEEESaIS5_EED1Ev+0x50>
    52b4:	e8 07 db ff ff       	callq  2dc0 <_ZdlPv@plt>
    52b9:	48 83 c3 20          	add    $0x20,%rbx
    52bd:	48 39 dd             	cmp    %rbx,%rbp
    52c0:	75 e6                	jne    52a8 <_ZNSt6vectorINSt7__cxx1112basic_stringIcSt11char_traitsIcESaIcEEESaIS5_EED1Ev+0x18>
    52c2:	49 8b 1c 24          	mov    (%r12),%rbx
    52c6:	48 85 db             	test   %rbx,%rbx
    52c9:	74 25                	je     52f0 <_ZNSt6vectorINSt7__cxx1112basic_stringIcSt11char_traitsIcESaIcEEESaIS5_EED1Ev+0x60>
    52cb:	48 89 df             	mov    %rbx,%rdi
    52ce:	5b                   	pop    %rbx
    52cf:	5d                   	pop    %rbp
    52d0:	41 5c                	pop    %r12
    52d2:	e9 e9 da ff ff       	jmpq   2dc0 <_ZdlPv@plt>
    52d7:	66 0f 1f 84 00 00 00 	nopw   0x0(%rax,%rax,1)
    52de:	00 00 
    52e0:	48 83 c3 20          	add    $0x20,%rbx
    52e4:	48 39 dd             	cmp    %rbx,%rbp
    52e7:	75 bf                	jne    52a8 <_ZNSt6vectorINSt7__cxx1112basic_stringIcSt11char_traitsIcESaIcEEESaIS5_EED1Ev+0x18>
    52e9:	eb d7                	jmp    52c2 <_ZNSt6vectorINSt7__cxx1112basic_stringIcSt11char_traitsIcESaIcEEESaIS5_EED1Ev+0x32>
    52eb:	0f 1f 44 00 00       	nopl   0x0(%rax,%rax,1)
    52f0:	5b                   	pop    %rbx
    52f1:	5d                   	pop    %rbp
    52f2:	41 5c                	pop    %r12
    52f4:	c3                   	retq   
    52f5:	66 2e 0f 1f 84 00 00 	nopw   %cs:0x0(%rax,%rax,1)
    52fc:	00 00 00 
    52ff:	90                   	nop

0000000000005300 <_ZNSt6vectorINSt7__cxx1112basic_stringIcSt11char_traitsIcESaIcEEESaIS5_EE17_M_realloc_insertIJRKS5_EEEvN9__gnu_cxx17__normal_iteratorIPS5_S7_EEDpOT_>:
    5300:	41 57                	push   %r15
    5302:	49 89 f7             	mov    %rsi,%r15
    5305:	41 56                	push   %r14
    5307:	41 55                	push   %r13
    5309:	41 54                	push   %r12
    530b:	49 89 f4             	mov    %rsi,%r12
    530e:	55                   	push   %rbp
    530f:	48 89 fd             	mov    %rdi,%rbp
    5312:	53                   	push   %rbx
    5313:	48 89 f3             	mov    %rsi,%rbx
    5316:	48 83 ec 38          	sub    $0x38,%rsp
    531a:	48 8b 0f             	mov    (%rdi),%rcx
    531d:	64 48 8b 04 25 28 00 	mov    %fs:0x28,%rax
    5324:	00 00 
    5326:	48 89 44 24 28       	mov    %rax,0x28(%rsp)
    532b:	31 c0                	xor    %eax,%eax
    532d:	48 8b 47 08          	mov    0x8(%rdi),%rax
    5331:	49 29 cf             	sub    %rcx,%r15
    5334:	48 29 c8             	sub    %rcx,%rax
    5337:	48 c1 f8 05          	sar    $0x5,%rax
    533b:	0f 84 1f 01 00 00    	je     5460 <_ZNSt6vectorINSt7__cxx1112basic_stringIcSt11char_traitsIcESaIcEEESaIS5_EE17_M_realloc_insertIJRKS5_EEEvN9__gnu_cxx17__normal_iteratorIPS5_S7_EEDpOT_+0x160>
    5341:	4c 8d 2c 00          	lea    (%rax,%rax,1),%r13
    5345:	4c 39 e8             	cmp    %r13,%rax
    5348:	0f 86 92 02 00 00    	jbe    55e0 <_ZNSt6vectorINSt7__cxx1112basic_stringIcSt11char_traitsIcESaIcEEESaIS5_EE17_M_realloc_insertIJRKS5_EEEvN9__gnu_cxx17__normal_iteratorIPS5_S7_EEDpOT_+0x2e0>
    534e:	49 c7 c5 e0 ff ff ff 	mov    $0xffffffffffffffe0,%r13
    5355:	4c 89 ef             	mov    %r13,%rdi
    5358:	48 89 54 24 08       	mov    %rdx,0x8(%rsp)
    535d:	e8 7e da ff ff       	callq  2de0 <_Znwm@plt>
    5362:	48 8b 54 24 08       	mov    0x8(%rsp),%rdx
    5367:	49 89 c6             	mov    %rax,%r14
    536a:	4d 01 f7             	add    %r14,%r15
    536d:	4c 89 7c 24 08       	mov    %r15,0x8(%rsp)
    5372:	74 65                	je     53d9 <_ZNSt6vectorINSt7__cxx1112basic_stringIcSt11char_traitsIcESaIcEEESaIS5_EE17_M_realloc_insertIJRKS5_EEEvN9__gnu_cxx17__normal_iteratorIPS5_S7_EEDpOT_+0xd9>
    5374:	49 8d 77 10          	lea    0x10(%r15),%rsi
    5378:	48 8b 02             	mov    (%rdx),%rax
    537b:	49 89 37             	mov    %rsi,(%r15)
    537e:	4c 8b 7a 08          	mov    0x8(%rdx),%r15
    5382:	48 89 74 24 10       	mov    %rsi,0x10(%rsp)
    5387:	48 89 c6             	mov    %rax,%rsi
    538a:	4c 01 fe             	add    %r15,%rsi
    538d:	48 89 44 24 18       	mov    %rax,0x18(%rsp)
    5392:	74 09                	je     539d <_ZNSt6vectorINSt7__cxx1112basic_stringIcSt11char_traitsIcESaIcEEESaIS5_EE17_M_realloc_insertIJRKS5_EEEvN9__gnu_cxx17__normal_iteratorIPS5_S7_EEDpOT_+0x9d>
    5394:	48 85 c0             	test   %rax,%rax
    5397:	0f 84 a5 02 00 00    	je     5642 <_ZNSt6vectorINSt7__cxx1112basic_stringIcSt11char_traitsIcESaIcEEESaIS5_EE17_M_realloc_insertIJRKS5_EEEvN9__gnu_cxx17__normal_iteratorIPS5_S7_EEDpOT_+0x342>
    539d:	4c 89 7c 24 20       	mov    %r15,0x20(%rsp)
    53a2:	49 83 ff 0f          	cmp    $0xf,%r15
    53a6:	0f 87 e4 01 00 00    	ja     5590 <_ZNSt6vectorINSt7__cxx1112basic_stringIcSt11char_traitsIcESaIcEEESaIS5_EE17_M_realloc_insertIJRKS5_EEEvN9__gnu_cxx17__normal_iteratorIPS5_S7_EEDpOT_+0x290>
    53ac:	49 83 ff 01          	cmp    $0x1,%r15
    53b0:	0f 85 5a 02 00 00    	jne    5610 <_ZNSt6vectorINSt7__cxx1112basic_stringIcSt11char_traitsIcESaIcEEESaIS5_EE17_M_realloc_insertIJRKS5_EEEvN9__gnu_cxx17__normal_iteratorIPS5_S7_EEDpOT_+0x310>
    53b6:	48 8b 44 24 18       	mov    0x18(%rsp),%rax
    53bb:	48 8b 7c 24 08       	mov    0x8(%rsp),%rdi
    53c0:	0f b6 00             	movzbl (%rax),%eax
    53c3:	88 47 10             	mov    %al,0x10(%rdi)
    53c6:	48 8b 44 24 08       	mov    0x8(%rsp),%rax
    53cb:	4c 89 78 08          	mov    %r15,0x8(%rax)
    53cf:	48 8b 44 24 10       	mov    0x10(%rsp),%rax
    53d4:	42 c6 04 38 00       	movb   $0x0,(%rax,%r15,1)
    53d9:	48 8b 55 00          	mov    0x0(%rbp),%rdx
    53dd:	4c 39 e2             	cmp    %r12,%rdx
    53e0:	0f 84 22 02 00 00    	je     5608 <_ZNSt6vectorINSt7__cxx1112basic_stringIcSt11char_traitsIcESaIcEEESaIS5_EE17_M_realloc_insertIJRKS5_EEEvN9__gnu_cxx17__normal_iteratorIPS5_S7_EEDpOT_+0x308>
    53e6:	48 8d 4a 20          	lea    0x20(%rdx),%rcx
    53ea:	4c 89 e6             	mov    %r12,%rsi
    53ed:	48 8d 42 10          	lea    0x10(%rdx),%rax
    53f1:	48 29 ce             	sub    %rcx,%rsi
    53f4:	49 89 f7             	mov    %rsi,%r15
    53f7:	48 8d 74 32 30       	lea    0x30(%rdx,%rsi,1),%rsi
    53fc:	4c 89 f2             	mov    %r14,%rdx
    53ff:	49 c1 ef 05          	shr    $0x5,%r15
    5403:	eb 31                	jmp    5436 <_ZNSt6vectorINSt7__cxx1112basic_stringIcSt11char_traitsIcESaIcEEESaIS5_EE17_M_realloc_insertIJRKS5_EEEvN9__gnu_cxx17__normal_iteratorIPS5_S7_EEDpOT_+0x136>
    5405:	0f 1f 00             	nopl   (%rax)
    5408:	48 89 0a             	mov    %rcx,(%rdx)
    540b:	48 8b 08             	mov    (%rax),%rcx
    540e:	48 89 4a 10          	mov    %rcx,0x10(%rdx)
    5412:	48 8b 48 f8          	mov    -0x8(%rax),%rcx
    5416:	48 89 4a 08          	mov    %rcx,0x8(%rdx)
    541a:	48 89 40 f0          	mov    %rax,-0x10(%rax)
    541e:	48 c7 40 f8 00 00 00 	movq   $0x0,-0x8(%rax)
    5425:	00 
    5426:	c6 00 00             	movb   $0x0,(%rax)
    5429:	48 83 c0 20          	add    $0x20,%rax
    542d:	48 83 c2 20          	add    $0x20,%rdx
    5431:	48 39 c6             	cmp    %rax,%rsi
    5434:	74 3a                	je     5470 <_ZNSt6vectorINSt7__cxx1112basic_stringIcSt11char_traitsIcESaIcEEESaIS5_EE17_M_realloc_insertIJRKS5_EEEvN9__gnu_cxx17__normal_iteratorIPS5_S7_EEDpOT_+0x170>
    5436:	48 85 d2             	test   %rdx,%rdx
    5439:	74 ee                	je     5429 <_ZNSt6vectorINSt7__cxx1112basic_stringIcSt11char_traitsIcESaIcEEESaIS5_EE17_M_realloc_insertIJRKS5_EEEvN9__gnu_cxx17__normal_iteratorIPS5_S7_EEDpOT_+0x129>
    543b:	48 8d 4a 10          	lea    0x10(%rdx),%rcx
    543f:	48 89 0a             	mov    %rcx,(%rdx)
    5442:	48 8b 48 f0          	mov    -0x10(%rax),%rcx
    5446:	48 39 c8             	cmp    %rcx,%rax
    5449:	75 bd                	jne    5408 <_ZNSt6vectorINSt7__cxx1112basic_stringIcSt11char_traitsIcESaIcEEESaIS5_EE17_M_realloc_insertIJRKS5_EEEvN9__gnu_cxx17__normal_iteratorIPS5_S7_EEDpOT_+0x108>
    544b:	c5 fa 6f 00          	vmovdqu (%rax),%xmm0
    544f:	c5 f8 11 42 10       	vmovups %xmm0,0x10(%rdx)
    5454:	eb bc                	jmp    5412 <_ZNSt6vectorINSt7__cxx1112basic_stringIcSt11char_traitsIcESaIcEEESaIS5_EE17_M_realloc_insertIJRKS5_EEEvN9__gnu_cxx17__normal_iteratorIPS5_S7_EEDpOT_+0x112>
    5456:	66 2e 0f 1f 84 00 00 	nopw   %cs:0x0(%rax,%rax,1)
    545d:	00 00 00 
    5460:	41 bd 01 00 00 00    	mov    $0x1,%r13d
    5466:	49 c1 e5 05          	shl    $0x5,%r13
    546a:	e9 e6 fe ff ff       	jmpq   5355 <_ZNSt6vectorINSt7__cxx1112basic_stringIcSt11char_traitsIcESaIcEEESaIS5_EE17_M_realloc_insertIJRKS5_EEEvN9__gnu_cxx17__normal_iteratorIPS5_S7_EEDpOT_+0x55>
    546f:	90                   	nop
    5470:	49 83 c7 01          	add    $0x1,%r15
    5474:	49 c1 e7 05          	shl    $0x5,%r15
    5478:	4d 01 f7             	add    %r14,%r15
    547b:	48 8b 55 08          	mov    0x8(%rbp),%rdx
    547f:	49 83 c7 20          	add    $0x20,%r15
    5483:	4c 39 e2             	cmp    %r12,%rdx
    5486:	0f 84 83 00 00 00    	je     550f <_ZNSt6vectorINSt7__cxx1112basic_stringIcSt11char_traitsIcESaIcEEESaIS5_EE17_M_realloc_insertIJRKS5_EEEvN9__gnu_cxx17__normal_iteratorIPS5_S7_EEDpOT_+0x20f>
    548c:	49 8d 4c 24 20       	lea    0x20(%r12),%rcx
    5491:	49 8d 44 24 10       	lea    0x10(%r12),%rax
    5496:	48 29 ca             	sub    %rcx,%rdx
    5499:	48 89 d7             	mov    %rdx,%rdi
    549c:	4a 8d 74 22 30       	lea    0x30(%rdx,%r12,1),%rsi
    54a1:	4c 89 fa             	mov    %r15,%rdx
    54a4:	48 c1 ef 05          	shr    $0x5,%rdi
    54a8:	eb 34                	jmp    54de <_ZNSt6vectorINSt7__cxx1112basic_stringIcSt11char_traitsIcESaIcEEESaIS5_EE17_M_realloc_insertIJRKS5_EEEvN9__gnu_cxx17__normal_iteratorIPS5_S7_EEDpOT_+0x1de>
    54aa:	66 0f 1f 44 00 00    	nopw   0x0(%rax,%rax,1)
    54b0:	48 89 0a             	mov    %rcx,(%rdx)
    54b3:	48 8b 08             	mov    (%rax),%rcx
    54b6:	48 89 4a 10          	mov    %rcx,0x10(%rdx)
    54ba:	48 8b 48 f8          	mov    -0x8(%rax),%rcx
    54be:	48 89 40 f0          	mov    %rax,-0x10(%rax)
    54c2:	48 c7 40 f8 00 00 00 	movq   $0x0,-0x8(%rax)
    54c9:	00 
    54ca:	48 89 4a 08          	mov    %rcx,0x8(%rdx)
    54ce:	c6 00 00             	movb   $0x0,(%rax)
    54d1:	48 83 c0 20          	add    $0x20,%rax
    54d5:	48 83 c2 20          	add    $0x20,%rdx
    54d9:	48 39 c6             	cmp    %rax,%rsi
    54dc:	74 22                	je     5500 <_ZNSt6vectorINSt7__cxx1112basic_stringIcSt11char_traitsIcESaIcEEESaIS5_EE17_M_realloc_insertIJRKS5_EEEvN9__gnu_cxx17__normal_iteratorIPS5_S7_EEDpOT_+0x200>
    54de:	48 85 d2             	test   %rdx,%rdx
    54e1:	74 ee                	je     54d1 <_ZNSt6vectorINSt7__cxx1112basic_stringIcSt11char_traitsIcESaIcEEESaIS5_EE17_M_realloc_insertIJRKS5_EEEvN9__gnu_cxx17__normal_iteratorIPS5_S7_EEDpOT_+0x1d1>
    54e3:	48 8d 4a 10          	lea    0x10(%rdx),%rcx
    54e7:	48 89 0a             	mov    %rcx,(%rdx)
    54ea:	48 8b 48 f0          	mov    -0x10(%rax),%rcx
    54ee:	48 39 c1             	cmp    %rax,%rcx
    54f1:	75 bd                	jne    54b0 <_ZNSt6vectorINSt7__cxx1112basic_stringIcSt11char_traitsIcESaIcEEESaIS5_EE17_M_realloc_insertIJRKS5_EEEvN9__gnu_cxx17__normal_iteratorIPS5_S7_EEDpOT_+0x1b0>
    54f3:	c5 fa 6f 00          	vmovdqu (%rax),%xmm0
    54f7:	c5 f8 11 42 10       	vmovups %xmm0,0x10(%rdx)
    54fc:	eb bc                	jmp    54ba <_ZNSt6vectorINSt7__cxx1112basic_stringIcSt11char_traitsIcESaIcEEESaIS5_EE17_M_realloc_insertIJRKS5_EEEvN9__gnu_cxx17__normal_iteratorIPS5_S7_EEDpOT_+0x1ba>
    54fe:	66 90                	xchg   %ax,%ax
    5500:	48 8d 47 01          	lea    0x1(%rdi),%rax
    5504:	48 8b 5d 08          	mov    0x8(%rbp),%rbx
    5508:	48 c1 e0 05          	shl    $0x5,%rax
    550c:	49 01 c7             	add    %rax,%r15
    550f:	4c 8b 65 00          	mov    0x0(%rbp),%r12
    5513:	49 39 dc             	cmp    %rbx,%r12
    5516:	74 28                	je     5540 <_ZNSt6vectorINSt7__cxx1112basic_stringIcSt11char_traitsIcESaIcEEESaIS5_EE17_M_realloc_insertIJRKS5_EEEvN9__gnu_cxx17__normal_iteratorIPS5_S7_EEDpOT_+0x240>
    5518:	0f 1f 84 00 00 00 00 	nopl   0x0(%rax,%rax,1)
    551f:	00 
    5520:	49 8b 3c 24          	mov    (%r12),%rdi
    5524:	49 8d 44 24 10       	lea    0x10(%r12),%rax
    5529:	48 39 c7             	cmp    %rax,%rdi
    552c:	74 52                	je     5580 <_ZNSt6vectorINSt7__cxx1112basic_stringIcSt11char_traitsIcESaIcEEESaIS5_EE17_M_realloc_insertIJRKS5_EEEvN9__gnu_cxx17__normal_iteratorIPS5_S7_EEDpOT_+0x280>
    552e:	e8 8d d8 ff ff       	callq  2dc0 <_ZdlPv@plt>
    5533:	49 83 c4 20          	add    $0x20,%r12
    5537:	4c 39 e3             	cmp    %r12,%rbx
    553a:	75 e4                	jne    5520 <_ZNSt6vectorINSt7__cxx1112basic_stringIcSt11char_traitsIcESaIcEEESaIS5_EE17_M_realloc_insertIJRKS5_EEEvN9__gnu_cxx17__normal_iteratorIPS5_S7_EEDpOT_+0x220>
    553c:	48 8b 5d 00          	mov    0x0(%rbp),%rbx
    5540:	48 85 db             	test   %rbx,%rbx
    5543:	74 08                	je     554d <_ZNSt6vectorINSt7__cxx1112basic_stringIcSt11char_traitsIcESaIcEEESaIS5_EE17_M_realloc_insertIJRKS5_EEEvN9__gnu_cxx17__normal_iteratorIPS5_S7_EEDpOT_+0x24d>
    5545:	48 89 df             	mov    %rbx,%rdi
    5548:	e8 73 d8 ff ff       	callq  2dc0 <_ZdlPv@plt>
    554d:	4d 01 f5             	add    %r14,%r13
    5550:	4c 89 75 00          	mov    %r14,0x0(%rbp)
    5554:	48 8b 44 24 28       	mov    0x28(%rsp),%rax
    5559:	64 48 33 04 25 28 00 	xor    %fs:0x28,%rax
    5560:	00 00 
    5562:	4c 89 7d 08          	mov    %r15,0x8(%rbp)
    5566:	4c 89 6d 10          	mov    %r13,0x10(%rbp)
    556a:	0f 85 b0 00 00 00    	jne    5620 <_ZNSt6vectorINSt7__cxx1112basic_stringIcSt11char_traitsIcESaIcEEESaIS5_EE17_M_realloc_insertIJRKS5_EEEvN9__gnu_cxx17__normal_iteratorIPS5_S7_EEDpOT_+0x320>
    5570:	48 83 c4 38          	add    $0x38,%rsp
    5574:	5b                   	pop    %rbx
    5575:	5d                   	pop    %rbp
    5576:	41 5c                	pop    %r12
    5578:	41 5d                	pop    %r13
    557a:	41 5e                	pop    %r14
    557c:	41 5f                	pop    %r15
    557e:	c3                   	retq   
    557f:	90                   	nop
    5580:	49 83 c4 20          	add    $0x20,%r12
    5584:	49 39 dc             	cmp    %rbx,%r12
    5587:	75 97                	jne    5520 <_ZNSt6vectorINSt7__cxx1112basic_stringIcSt11char_traitsIcESaIcEEESaIS5_EE17_M_realloc_insertIJRKS5_EEEvN9__gnu_cxx17__normal_iteratorIPS5_S7_EEDpOT_+0x220>
    5589:	eb b1                	jmp    553c <_ZNSt6vectorINSt7__cxx1112basic_stringIcSt11char_traitsIcESaIcEEESaIS5_EE17_M_realloc_insertIJRKS5_EEEvN9__gnu_cxx17__normal_iteratorIPS5_S7_EEDpOT_+0x23c>
    558b:	0f 1f 44 00 00       	nopl   0x0(%rax,%rax,1)
    5590:	48 8b 7c 24 08       	mov    0x8(%rsp),%rdi
    5595:	48 8d 74 24 20       	lea    0x20(%rsp),%rsi
    559a:	31 d2                	xor    %edx,%edx
    559c:	e8 6f da ff ff       	callq  3010 <_ZNSt7__cxx1112basic_stringIcSt11char_traitsIcESaIcEE9_M_createERmm@plt>
    55a1:	48 8b 74 24 08       	mov    0x8(%rsp),%rsi
    55a6:	48 8b 54 24 20       	mov    0x20(%rsp),%rdx
    55ab:	48 89 06             	mov    %rax,(%rsi)
    55ae:	48 89 56 10          	mov    %rdx,0x10(%rsi)
    55b2:	48 8b 74 24 18       	mov    0x18(%rsp),%rsi
    55b7:	4c 89 fa             	mov    %r15,%rdx
    55ba:	48 89 c7             	mov    %rax,%rdi
    55bd:	e8 ae d7 ff ff       	callq  2d70 <memcpy@plt>
    55c2:	48 8b 44 24 08       	mov    0x8(%rsp),%rax
    55c7:	4c 8b 7c 24 20       	mov    0x20(%rsp),%r15
    55cc:	48 8b 00             	mov    (%rax),%rax
    55cf:	48 89 44 24 10       	mov    %rax,0x10(%rsp)
    55d4:	e9 ed fd ff ff       	jmpq   53c6 <_ZNSt6vectorINSt7__cxx1112basic_stringIcSt11char_traitsIcESaIcEEESaIS5_EE17_M_realloc_insertIJRKS5_EEEvN9__gnu_cxx17__normal_iteratorIPS5_S7_EEDpOT_+0xc6>
    55d9:	0f 1f 80 00 00 00 00 	nopl   0x0(%rax)
    55e0:	48 b8 ff ff ff ff ff 	movabs $0x7ffffffffffffff,%rax
    55e7:	ff ff 07 
    55ea:	49 39 c5             	cmp    %rax,%r13
    55ed:	0f 87 5b fd ff ff    	ja     534e <_ZNSt6vectorINSt7__cxx1112basic_stringIcSt11char_traitsIcESaIcEEESaIS5_EE17_M_realloc_insertIJRKS5_EEEvN9__gnu_cxx17__normal_iteratorIPS5_S7_EEDpOT_+0x4e>
    55f3:	4d 85 ed             	test   %r13,%r13
    55f6:	0f 85 6a fe ff ff    	jne    5466 <_ZNSt6vectorINSt7__cxx1112basic_stringIcSt11char_traitsIcESaIcEEESaIS5_EE17_M_realloc_insertIJRKS5_EEEvN9__gnu_cxx17__normal_iteratorIPS5_S7_EEDpOT_+0x166>
    55fc:	45 31 f6             	xor    %r14d,%r14d
    55ff:	e9 66 fd ff ff       	jmpq   536a <_ZNSt6vectorINSt7__cxx1112basic_stringIcSt11char_traitsIcESaIcEEESaIS5_EE17_M_realloc_insertIJRKS5_EEEvN9__gnu_cxx17__normal_iteratorIPS5_S7_EEDpOT_+0x6a>
    5604:	0f 1f 40 00          	nopl   0x0(%rax)
    5608:	4d 89 f7             	mov    %r14,%r15
    560b:	e9 6b fe ff ff       	jmpq   547b <_ZNSt6vectorINSt7__cxx1112basic_stringIcSt11char_traitsIcESaIcEEESaIS5_EE17_M_realloc_insertIJRKS5_EEEvN9__gnu_cxx17__normal_iteratorIPS5_S7_EEDpOT_+0x17b>
    5610:	4d 85 ff             	test   %r15,%r15
    5613:	0f 84 ad fd ff ff    	je     53c6 <_ZNSt6vectorINSt7__cxx1112basic_stringIcSt11char_traitsIcESaIcEEESaIS5_EE17_M_realloc_insertIJRKS5_EEEvN9__gnu_cxx17__normal_iteratorIPS5_S7_EEDpOT_+0xc6>
    5619:	48 8b 44 24 10       	mov    0x10(%rsp),%rax
    561e:	eb 92                	jmp    55b2 <_ZNSt6vectorINSt7__cxx1112basic_stringIcSt11char_traitsIcESaIcEEESaIS5_EE17_M_realloc_insertIJRKS5_EEEvN9__gnu_cxx17__normal_iteratorIPS5_S7_EEDpOT_+0x2b2>
    5620:	e8 db d7 ff ff       	callq  2e00 <__stack_chk_fail@plt>
    5625:	48 89 c7             	mov    %rax,%rdi
    5628:	c5 f8 77             	vzeroupper 
    562b:	e8 50 d6 ff ff       	callq  2c80 <__cxa_begin_catch@plt>
    5630:	4d 85 f6             	test   %r14,%r14
    5633:	74 2c                	je     5661 <_ZNSt6vectorINSt7__cxx1112basic_stringIcSt11char_traitsIcESaIcEEESaIS5_EE17_M_realloc_insertIJRKS5_EEEvN9__gnu_cxx17__normal_iteratorIPS5_S7_EEDpOT_+0x361>
    5635:	4c 89 f7             	mov    %r14,%rdi
    5638:	e8 83 d7 ff ff       	callq  2dc0 <_ZdlPv@plt>
    563d:	e8 8e d8 ff ff       	callq  2ed0 <__cxa_rethrow@plt>
    5642:	48 8d 3d b7 71 00 00 	lea    0x71b7(%rip),%rdi        # c800 <_IO_stdin_used+0x140>
    5649:	e8 d2 d6 ff ff       	callq  2d20 <_ZSt19__throw_logic_errorPKc@plt>
    564e:	48 89 c3             	mov    %rax,%rbx
    5651:	c5 f8 77             	vzeroupper 
    5654:	e8 17 d9 ff ff       	callq  2f70 <__cxa_end_catch@plt>
    5659:	48 89 df             	mov    %rbx,%rdi
    565c:	e8 8f d9 ff ff       	callq  2ff0 <_Unwind_Resume@plt>
    5661:	48 8b 44 24 08       	mov    0x8(%rsp),%rax
    5666:	48 8b 38             	mov    (%rax),%rdi
    5669:	48 3b 7c 24 10       	cmp    0x10(%rsp),%rdi
    566e:	74 cd                	je     563d <_ZNSt6vectorINSt7__cxx1112basic_stringIcSt11char_traitsIcESaIcEEESaIS5_EE17_M_realloc_insertIJRKS5_EEEvN9__gnu_cxx17__normal_iteratorIPS5_S7_EEDpOT_+0x33d>
    5670:	e8 4b d7 ff ff       	callq  2dc0 <_ZdlPv@plt>
    5675:	eb c6                	jmp    563d <_ZNSt6vectorINSt7__cxx1112basic_stringIcSt11char_traitsIcESaIcEEESaIS5_EE17_M_realloc_insertIJRKS5_EEEvN9__gnu_cxx17__normal_iteratorIPS5_S7_EEDpOT_+0x33d>
    5677:	66 0f 1f 84 00 00 00 	nopw   0x0(%rax,%rax,1)
    567e:	00 00 

0000000000005680 <_ZN4util2io3MMFIifE16ParseMmfSizeLineERSt6vectorINSt7__cxx1112basic_stringIcSt11char_traitsIcESaIcEEESaIS9_EE>:
    5680:	41 55                	push   %r13
    5682:	41 54                	push   %r12
    5684:	49 89 f4             	mov    %rsi,%r12
    5687:	55                   	push   %rbp
    5688:	48 89 fd             	mov    %rdi,%rbp
    568b:	53                   	push   %rbx
    568c:	48 83 ec 08          	sub    $0x8,%rsp
    5690:	8b 87 1c 02 00 00    	mov    0x21c(%rdi),%eax
    5696:	85 c0                	test   %eax,%eax
    5698:	74 66                	je     5700 <_ZN4util2io3MMFIifE16ParseMmfSizeLineERSt6vectorINSt7__cxx1112basic_stringIcSt11char_traitsIcESaIcEEESaIS9_EE+0x80>
    569a:	48 8b 16             	mov    (%rsi),%rdx
    569d:	48 8b 3a             	mov    (%rdx),%rdi
    56a0:	80 3f 25             	cmpb   $0x25,(%rdi)
    56a3:	74 5b                	je     5700 <_ZN4util2io3MMFIifE16ParseMmfSizeLineERSt6vectorINSt7__cxx1112basic_stringIcSt11char_traitsIcESaIcEEESaIS9_EE+0x80>
    56a5:	49 8b 44 24 08       	mov    0x8(%r12),%rax
    56aa:	48 29 d0             	sub    %rdx,%rax
    56ad:	48 83 f8 5f          	cmp    $0x5f,%rax
    56b1:	0f 87 9e 00 00 00    	ja     5755 <_ZN4util2io3MMFIifE16ParseMmfSizeLineERSt6vectorINSt7__cxx1112basic_stringIcSt11char_traitsIcESaIcEEESaIS9_EE+0xd5>
    56b7:	48 83 f8 40          	cmp    $0x40,%rax
    56bb:	0f 85 f8 00 00 00    	jne    57b9 <_ZN4util2io3MMFIifE16ParseMmfSizeLineERSt6vectorINSt7__cxx1112basic_stringIcSt11char_traitsIcESaIcEEESaIS9_EE+0x139>
    56c1:	ba 0a 00 00 00       	mov    $0xa,%edx
    56c6:	31 f6                	xor    %esi,%esi
    56c8:	e8 e3 d7 ff ff       	callq  2eb0 <strtol@plt>
    56cd:	ba 0a 00 00 00       	mov    $0xa,%edx
    56d2:	31 f6                	xor    %esi,%esi
    56d4:	89 45 00             	mov    %eax,0x0(%rbp)
    56d7:	49 8b 04 24          	mov    (%r12),%rax
    56db:	48 8b 78 20          	mov    0x20(%rax),%rdi
    56df:	e8 cc d7 ff ff       	callq  2eb0 <strtol@plt>
    56e4:	c7 45 08 00 00 00 00 	movl   $0x0,0x8(%rbp)
    56eb:	89 45 04             	mov    %eax,0x4(%rbp)
    56ee:	48 83 c4 08          	add    $0x8,%rsp
    56f2:	5b                   	pop    %rbx
    56f3:	5d                   	pop    %rbp
    56f4:	41 5c                	pop    %r12
    56f6:	41 5d                	pop    %r13
    56f8:	c3                   	retq   
    56f9:	0f 1f 80 00 00 00 00 	nopl   0x0(%rax)
    5700:	49 bd ff ff ff ff ff 	movabs $0x7fffffffffffffff,%r13
    5707:	ff ff 7f 
    570a:	48 8d 5d 10          	lea    0x10(%rbp),%rbx
    570e:	eb 10                	jmp    5720 <_ZN4util2io3MMFIifE16ParseMmfSizeLineERSt6vectorINSt7__cxx1112basic_stringIcSt11char_traitsIcESaIcEEESaIS9_EE+0xa0>
    5710:	ba 0a 00 00 00       	mov    $0xa,%edx
    5715:	4c 89 ee             	mov    %r13,%rsi
    5718:	48 89 df             	mov    %rbx,%rdi
    571b:	e8 d0 d5 ff ff       	callq  2cf0 <_ZNSi6ignoreEli@plt>
    5720:	48 89 df             	mov    %rbx,%rdi
    5723:	e8 48 d5 ff ff       	callq  2c70 <_ZNSi4peekEv@plt>
    5728:	83 f8 25             	cmp    $0x25,%eax
    572b:	74 e3                	je     5710 <_ZN4util2io3MMFIifE16ParseMmfSizeLineERSt6vectorINSt7__cxx1112basic_stringIcSt11char_traitsIcESaIcEEESaIS9_EE+0x90>
    572d:	4c 89 e6             	mov    %r12,%rsi
    5730:	48 89 df             	mov    %rbx,%rdi
    5733:	e8 98 eb ff ff       	callq  42d0 <_ZN4util2io6DoReadERSt14basic_ifstreamIcSt11char_traitsIcEERSt6vectorINSt7__cxx1112basic_stringIcS3_SaIcEEESaISA_EE>
    5738:	84 c0                	test   %al,%al
    573a:	74 60                	je     579c <_ZN4util2io3MMFIifE16ParseMmfSizeLineERSt6vectorINSt7__cxx1112basic_stringIcSt11char_traitsIcESaIcEEESaIS9_EE+0x11c>
    573c:	49 8b 14 24          	mov    (%r12),%rdx
    5740:	49 8b 44 24 08       	mov    0x8(%r12),%rax
    5745:	48 29 d0             	sub    %rdx,%rax
    5748:	48 8b 3a             	mov    (%rdx),%rdi
    574b:	48 83 f8 5f          	cmp    $0x5f,%rax
    574f:	0f 86 62 ff ff ff    	jbe    56b7 <_ZN4util2io3MMFIifE16ParseMmfSizeLineERSt6vectorINSt7__cxx1112basic_stringIcSt11char_traitsIcESaIcEEESaIS9_EE+0x37>
    5755:	ba 0a 00 00 00       	mov    $0xa,%edx
    575a:	31 f6                	xor    %esi,%esi
    575c:	e8 4f d7 ff ff       	callq  2eb0 <strtol@plt>
    5761:	ba 0a 00 00 00       	mov    $0xa,%edx
    5766:	31 f6                	xor    %esi,%esi
    5768:	89 45 00             	mov    %eax,0x0(%rbp)
    576b:	49 8b 04 24          	mov    (%r12),%rax
    576f:	48 8b 78 20          	mov    0x20(%rax),%rdi
    5773:	e8 38 d7 ff ff       	callq  2eb0 <strtol@plt>
    5778:	31 f6                	xor    %esi,%esi
    577a:	89 45 04             	mov    %eax,0x4(%rbp)
    577d:	49 8b 04 24          	mov    (%r12),%rax
    5781:	48 8b 78 40          	mov    0x40(%rax),%rdi
    5785:	e8 c6 d5 ff ff       	callq  2d50 <strtod@plt>
    578a:	c5 fb 2c c0          	vcvttsd2si %xmm0,%eax
    578e:	89 45 08             	mov    %eax,0x8(%rbp)
    5791:	48 83 c4 08          	add    $0x8,%rsp
    5795:	5b                   	pop    %rbx
    5796:	5d                   	pop    %rbp
    5797:	41 5c                	pop    %r12
    5799:	41 5d                	pop    %r13
    579b:	c3                   	retq   
    579c:	48 8d 3d 7d b8 20 00 	lea    0x20b87d(%rip),%rdi        # 211020 <_ZSt4cout@@GLIBCXX_3.4>
    57a3:	48 8d 35 e5 70 00 00 	lea    0x70e5(%rip),%rsi        # c88f <_IO_stdin_used+0x1cf>
    57aa:	e8 21 d6 ff ff       	callq  2dd0 <_ZStlsISt11char_traitsIcEERSt13basic_ostreamIcT_ES5_PKc@plt>
    57af:	bf 01 00 00 00       	mov    $0x1,%edi
    57b4:	e8 a7 d6 ff ff       	callq  2e60 <exit@plt>
    57b9:	48 8b 52 08          	mov    0x8(%rdx),%rdx
    57bd:	48 89 fe             	mov    %rdi,%rsi
    57c0:	48 8d 3d 59 b8 20 00 	lea    0x20b859(%rip),%rdi        # 211020 <_ZSt4cout@@GLIBCXX_3.4>
    57c7:	e8 54 d6 ff ff       	callq  2e20 <_ZSt16__ostream_insertIcSt11char_traitsIcEERSt13basic_ostreamIT_T0_ES6_PKS3_l@plt>
    57cc:	48 89 c7             	mov    %rax,%rdi
    57cf:	e8 cc d4 ff ff       	callq  2ca0 <_ZSt4endlIcSt11char_traitsIcEERSt13basic_ostreamIT_T0_ES6_@plt>
    57d4:	48 8d 3d 45 b8 20 00 	lea    0x20b845(%rip),%rdi        # 211020 <_ZSt4cout@@GLIBCXX_3.4>
    57db:	48 8d 35 ce 70 00 00 	lea    0x70ce(%rip),%rsi        # c8b0 <_IO_stdin_used+0x1f0>
    57e2:	e8 e9 d5 ff ff       	callq  2dd0 <_ZStlsISt11char_traitsIcEERSt13basic_ostreamIcT_ES5_PKc@plt>
    57e7:	bf 01 00 00 00       	mov    $0x1,%edi
    57ec:	e8 6f d6 ff ff       	callq  2e60 <exit@plt>
    57f1:	66 2e 0f 1f 84 00 00 	nopw   %cs:0x0(%rax,%rax,1)
    57f8:	00 00 00 
    57fb:	0f 1f 44 00 00       	nopl   0x0(%rax,%rax,1)

0000000000005800 <_ZN4util2io3MMFIifE7GetNextERiS3_Rf>:
    5800:	41 57                	push   %r15
    5802:	c5 f9 ef c0          	vpxor  %xmm0,%xmm0,%xmm0
    5806:	41 56                	push   %r14
    5808:	41 55                	push   %r13
    580a:	49 89 f5             	mov    %rsi,%r13
    580d:	41 54                	push   %r12
    580f:	49 89 d4             	mov    %rdx,%r12
    5812:	55                   	push   %rbp
    5813:	48 89 fd             	mov    %rdi,%rbp
    5816:	48 8d 7f 10          	lea    0x10(%rdi),%rdi
    581a:	53                   	push   %rbx
    581b:	48 83 ec 38          	sub    $0x38,%rsp
    581f:	64 48 8b 04 25 28 00 	mov    %fs:0x28,%rax
    5826:	00 00 
    5828:	48 89 44 24 28       	mov    %rax,0x28(%rsp)
    582d:	31 c0                	xor    %eax,%eax
    582f:	48 8d 74 24 10       	lea    0x10(%rsp),%rsi
    5834:	48 89 0c 24          	mov    %rcx,(%rsp)
    5838:	c5 f8 29 44 24 10    	vmovaps %xmm0,0x10(%rsp)
    583e:	48 c7 44 24 20 00 00 	movq   $0x0,0x20(%rsp)
    5845:	00 00 
    5847:	48 89 74 24 08       	mov    %rsi,0x8(%rsp)
    584c:	e8 7f ea ff ff       	callq  42d0 <_ZN4util2io6DoReadERSt14basic_ifstreamIcSt11char_traitsIcEERSt6vectorINSt7__cxx1112basic_stringIcS3_SaIcEEESaISA_EE>
    5851:	89 c3                	mov    %eax,%ebx
    5853:	4c 8b 74 24 10       	mov    0x10(%rsp),%r14
    5858:	4c 8b 7c 24 18       	mov    0x18(%rsp),%r15
    585d:	84 c0                	test   %al,%al
    585f:	74 71                	je     58d2 <_ZN4util2io3MMFIifE7GetNextERiS3_Rf+0xd2>
    5861:	4c 89 fa             	mov    %r15,%rdx
    5864:	49 8b 3e             	mov    (%r14),%rdi
    5867:	4c 29 f2             	sub    %r14,%rdx
    586a:	48 83 fa 5f          	cmp    $0x5f,%rdx
    586e:	0f 87 cc 00 00 00    	ja     5940 <_ZN4util2io3MMFIifE7GetNextERiS3_Rf+0x140>
    5874:	48 83 fa 40          	cmp    $0x40,%rdx
    5878:	0f 85 2d 01 00 00    	jne    59ab <_ZN4util2io3MMFIifE7GetNextERiS3_Rf+0x1ab>
    587e:	ba 0a 00 00 00       	mov    $0xa,%edx
    5883:	31 f6                	xor    %esi,%esi
    5885:	e8 26 d6 ff ff       	callq  2eb0 <strtol@plt>
    588a:	ba 0a 00 00 00       	mov    $0xa,%edx
    588f:	31 f6                	xor    %esi,%esi
    5891:	41 89 45 00          	mov    %eax,0x0(%r13)
    5895:	48 8b 44 24 10       	mov    0x10(%rsp),%rax
    589a:	48 8b 78 20          	mov    0x20(%rax),%rdi
    589e:	e8 0d d6 ff ff       	callq  2eb0 <strtol@plt>
    58a3:	41 89 04 24          	mov    %eax,(%r12)
    58a7:	48 8b 04 24          	mov    (%rsp),%rax
    58ab:	c7 00 3d 0a d7 3e    	movl   $0x3ed70a3d,(%rax)
    58b1:	0f b6 8d 1a 02 00 00 	movzbl 0x21a(%rbp),%ecx
    58b8:	4c 8b 7c 24 18       	mov    0x18(%rsp),%r15
    58bd:	4c 8b 74 24 10       	mov    0x10(%rsp),%r14
    58c2:	84 c9                	test   %cl,%cl
    58c4:	74 0c                	je     58d2 <_ZN4util2io3MMFIifE7GetNextERiS3_Rf+0xd2>
    58c6:	41 83 45 00 01       	addl   $0x1,0x0(%r13)
    58cb:	89 cb                	mov    %ecx,%ebx
    58cd:	41 83 04 24 01       	addl   $0x1,(%r12)
    58d2:	4d 39 fe             	cmp    %r15,%r14
    58d5:	74 28                	je     58ff <_ZN4util2io3MMFIifE7GetNextERiS3_Rf+0xff>
    58d7:	66 0f 1f 84 00 00 00 	nopw   0x0(%rax,%rax,1)
    58de:	00 00 
    58e0:	49 8b 3e             	mov    (%r14),%rdi
    58e3:	49 8d 4e 10          	lea    0x10(%r14),%rcx
    58e7:	48 39 cf             	cmp    %rcx,%rdi
    58ea:	74 44                	je     5930 <_ZN4util2io3MMFIifE7GetNextERiS3_Rf+0x130>
    58ec:	e8 cf d4 ff ff       	callq  2dc0 <_ZdlPv@plt>
    58f1:	49 83 c6 20          	add    $0x20,%r14
    58f5:	4d 39 fe             	cmp    %r15,%r14
    58f8:	75 e6                	jne    58e0 <_ZN4util2io3MMFIifE7GetNextERiS3_Rf+0xe0>
    58fa:	4c 8b 7c 24 10       	mov    0x10(%rsp),%r15
    58ff:	4d 85 ff             	test   %r15,%r15
    5902:	74 08                	je     590c <_ZN4util2io3MMFIifE7GetNextERiS3_Rf+0x10c>
    5904:	4c 89 ff             	mov    %r15,%rdi
    5907:	e8 b4 d4 ff ff       	callq  2dc0 <_ZdlPv@plt>
    590c:	89 d8                	mov    %ebx,%eax
    590e:	48 8b 5c 24 28       	mov    0x28(%rsp),%rbx
    5913:	64 48 33 1c 25 28 00 	xor    %fs:0x28,%rbx
    591a:	00 00 
    591c:	75 70                	jne    598e <_ZN4util2io3MMFIifE7GetNextERiS3_Rf+0x18e>
    591e:	48 83 c4 38          	add    $0x38,%rsp
    5922:	5b                   	pop    %rbx
    5923:	5d                   	pop    %rbp
    5924:	41 5c                	pop    %r12
    5926:	41 5d                	pop    %r13
    5928:	41 5e                	pop    %r14
    592a:	41 5f                	pop    %r15
    592c:	c3                   	retq   
    592d:	0f 1f 00             	nopl   (%rax)
    5930:	49 83 c6 20          	add    $0x20,%r14
    5934:	4d 39 fe             	cmp    %r15,%r14
    5937:	75 a7                	jne    58e0 <_ZN4util2io3MMFIifE7GetNextERiS3_Rf+0xe0>
    5939:	eb bf                	jmp    58fa <_ZN4util2io3MMFIifE7GetNextERiS3_Rf+0xfa>
    593b:	0f 1f 44 00 00       	nopl   0x0(%rax,%rax,1)
    5940:	ba 0a 00 00 00       	mov    $0xa,%edx
    5945:	31 f6                	xor    %esi,%esi
    5947:	e8 64 d5 ff ff       	callq  2eb0 <strtol@plt>
    594c:	ba 0a 00 00 00       	mov    $0xa,%edx
    5951:	31 f6                	xor    %esi,%esi
    5953:	41 89 45 00          	mov    %eax,0x0(%r13)
    5957:	48 8b 44 24 10       	mov    0x10(%rsp),%rax
    595c:	48 8b 78 20          	mov    0x20(%rax),%rdi
    5960:	e8 4b d5 ff ff       	callq  2eb0 <strtol@plt>
    5965:	31 f6                	xor    %esi,%esi
    5967:	41 89 04 24          	mov    %eax,(%r12)
    596b:	48 8b 44 24 10       	mov    0x10(%rsp),%rax
    5970:	48 8b 78 40          	mov    0x40(%rax),%rdi
    5974:	e8 d7 d3 ff ff       	callq  2d50 <strtod@plt>
    5979:	48 8b 04 24          	mov    (%rsp),%rax
    597d:	c5 f0 57 c9          	vxorps %xmm1,%xmm1,%xmm1
    5981:	c5 f3 5a c8          	vcvtsd2ss %xmm0,%xmm1,%xmm1
    5985:	c5 fa 11 08          	vmovss %xmm1,(%rax)
    5989:	e9 23 ff ff ff       	jmpq   58b1 <_ZN4util2io3MMFIifE7GetNextERiS3_Rf+0xb1>
    598e:	e8 6d d4 ff ff       	callq  2e00 <__stack_chk_fail@plt>
    5993:	48 8b 7c 24 08       	mov    0x8(%rsp),%rdi
    5998:	48 89 c3             	mov    %rax,%rbx
    599b:	c5 f8 77             	vzeroupper 
    599e:	e8 ed f8 ff ff       	callq  5290 <_ZNSt6vectorINSt7__cxx1112basic_stringIcSt11char_traitsIcESaIcEEESaIS5_EED1Ev>
    59a3:	48 89 df             	mov    %rbx,%rdi
    59a6:	e8 45 d6 ff ff       	callq  2ff0 <_Unwind_Resume@plt>
    59ab:	49 8b 56 08          	mov    0x8(%r14),%rdx
    59af:	48 89 fe             	mov    %rdi,%rsi
    59b2:	48 8d 3d 67 b6 20 00 	lea    0x20b667(%rip),%rdi        # 211020 <_ZSt4cout@@GLIBCXX_3.4>
    59b9:	e8 62 d4 ff ff       	callq  2e20 <_ZSt16__ostream_insertIcSt11char_traitsIcEERSt13basic_ostreamIT_T0_ES6_PKS3_l@plt>
    59be:	48 89 c7             	mov    %rax,%rdi
    59c1:	e8 da d2 ff ff       	callq  2ca0 <_ZSt4endlIcSt11char_traitsIcEERSt13basic_ostreamIT_T0_ES6_@plt>
    59c6:	48 8d 35 e3 6e 00 00 	lea    0x6ee3(%rip),%rsi        # c8b0 <_IO_stdin_used+0x1f0>
    59cd:	48 8d 3d 4c b6 20 00 	lea    0x20b64c(%rip),%rdi        # 211020 <_ZSt4cout@@GLIBCXX_3.4>
    59d4:	e8 f7 d3 ff ff       	callq  2dd0 <_ZStlsISt11char_traitsIcEERSt13basic_ostreamIcT_ES5_PKc@plt>
    59d9:	bf 01 00 00 00       	mov    $0x1,%edi
    59de:	e8 7d d4 ff ff       	callq  2e60 <exit@plt>
    59e3:	66 2e 0f 1f 84 00 00 	nopw   %cs:0x0(%rax,%rax,1)
    59ea:	00 00 00 
    59ed:	0f 1f 00             	nopl   (%rax)

00000000000059f0 <_ZN4util2io3MMFIifE8iterator5DoSetEv>:
    59f0:	53                   	push   %rbx
    59f1:	48 8d 4f 18          	lea    0x18(%rdi),%rcx
    59f5:	48 89 fb             	mov    %rdi,%rbx
    59f8:	48 8d 57 14          	lea    0x14(%rdi),%rdx
    59fc:	48 8d 77 10          	lea    0x10(%rdi),%rsi
    5a00:	48 8b 3f             	mov    (%rdi),%rdi
    5a03:	e8 f8 fd ff ff       	callq  5800 <_ZN4util2io3MMFIifE7GetNextERiS3_Rf>
    5a08:	88 43 1c             	mov    %al,0x1c(%rbx)
    5a0b:	5b                   	pop    %rbx
    5a0c:	c3                   	retq   
    5a0d:	0f 1f 00             	nopl   (%rax)

0000000000005a10 <_ZN4util2io3MMFIifE8iteratorC1EPS2_m>:
    5a10:	80 be 18 02 00 00 00 	cmpb   $0x0,0x218(%rsi)
    5a17:	48 89 37             	mov    %rsi,(%rdi)
    5a1a:	48 89 57 08          	mov    %rdx,0x8(%rdi)
    5a1e:	75 0e                	jne    5a2e <_ZN4util2io3MMFIifE8iteratorC1EPS2_m+0x1e>
    5a20:	80 be 19 02 00 00 01 	cmpb   $0x1,0x219(%rsi)
    5a27:	74 05                	je     5a2e <_ZN4util2io3MMFIifE8iteratorC1EPS2_m+0x1e>
    5a29:	48 85 d2             	test   %rdx,%rdx
    5a2c:	74 02                	je     5a30 <_ZN4util2io3MMFIifE8iteratorC1EPS2_m+0x20>
    5a2e:	c3                   	retq   
    5a2f:	90                   	nop
    5a30:	53                   	push   %rbx
    5a31:	48 89 f0             	mov    %rsi,%rax
    5a34:	48 89 fb             	mov    %rdi,%rbx
    5a37:	48 8d 4f 18          	lea    0x18(%rdi),%rcx
    5a3b:	48 8d 57 14          	lea    0x14(%rdi),%rdx
    5a3f:	48 8d 77 10          	lea    0x10(%rdi),%rsi
    5a43:	48 89 c7             	mov    %rax,%rdi
    5a46:	e8 b5 fd ff ff       	callq  5800 <_ZN4util2io3MMFIifE7GetNextERiS3_Rf>
    5a4b:	88 43 1c             	mov    %al,0x1c(%rbx)
    5a4e:	5b                   	pop    %rbx
    5a4f:	c3                   	retq   

0000000000005a50 <_ZN4util2io3MMFIifE5beginEv>:
    5a50:	53                   	push   %rbx
    5a51:	31 d2                	xor    %edx,%edx
    5a53:	48 89 fb             	mov    %rdi,%rbx
    5a56:	e8 b5 ff ff ff       	callq  5a10 <_ZN4util2io3MMFIifE8iteratorC1EPS2_m>
    5a5b:	48 89 d8             	mov    %rbx,%rax
    5a5e:	5b                   	pop    %rbx
    5a5f:	c3                   	retq   

0000000000005a60 <_ZN4util2io3MMFIifE3endEv>:
    5a60:	80 be 18 02 00 00 00 	cmpb   $0x0,0x218(%rsi)
    5a67:	53                   	push   %rbx
    5a68:	48 89 fb             	mov    %rdi,%rbx
    5a6b:	75 09                	jne    5a76 <_ZN4util2io3MMFIifE3endEv+0x16>
    5a6d:	80 be 19 02 00 00 00 	cmpb   $0x0,0x219(%rsi)
    5a74:	74 32                	je     5aa8 <_ZN4util2io3MMFIifE3endEv+0x48>
    5a76:	48 8b 96 28 02 00 00 	mov    0x228(%rsi),%rdx
    5a7d:	48 2b 96 20 02 00 00 	sub    0x220(%rsi),%rdx
    5a84:	48 89 df             	mov    %rbx,%rdi
    5a87:	48 b8 ab aa aa aa aa 	movabs $0xaaaaaaaaaaaaaaab,%rax
    5a8e:	aa aa aa 
    5a91:	48 c1 fa 02          	sar    $0x2,%rdx
    5a95:	48 0f af d0          	imul   %rax,%rdx
    5a99:	e8 72 ff ff ff       	callq  5a10 <_ZN4util2io3MMFIifE8iteratorC1EPS2_m>
    5a9e:	48 89 d8             	mov    %rbx,%rax
    5aa1:	5b                   	pop    %rbx
    5aa2:	c3                   	retq   
    5aa3:	0f 1f 44 00 00       	nopl   0x0(%rax,%rax,1)
    5aa8:	48 63 56 08          	movslq 0x8(%rsi),%rdx
    5aac:	e8 5f ff ff ff       	callq  5a10 <_ZN4util2io3MMFIifE8iteratorC1EPS2_m>
    5ab1:	48 89 d8             	mov    %rbx,%rax
    5ab4:	5b                   	pop    %rbx
    5ab5:	c3                   	retq   
    5ab6:	66 2e 0f 1f 84 00 00 	nopw   %cs:0x0(%rax,%rax,1)
    5abd:	00 00 00 

0000000000005ac0 <_ZN4util2io3MMFIifE8iteratorppEv>:
    5ac0:	48 8b 07             	mov    (%rdi),%rax
    5ac3:	48 83 47 08 01       	addq   $0x1,0x8(%rdi)
    5ac8:	80 b8 18 02 00 00 00 	cmpb   $0x0,0x218(%rax)
    5acf:	75 09                	jne    5ada <_ZN4util2io3MMFIifE8iteratorppEv+0x1a>
    5ad1:	80 b8 19 02 00 00 00 	cmpb   $0x0,0x219(%rax)
    5ad8:	74 06                	je     5ae0 <_ZN4util2io3MMFIifE8iteratorppEv+0x20>
    5ada:	c3                   	retq   
    5adb:	0f 1f 44 00 00       	nopl   0x0(%rax,%rax,1)
    5ae0:	53                   	push   %rbx
    5ae1:	48 8d 4f 18          	lea    0x18(%rdi),%rcx
    5ae5:	48 89 fb             	mov    %rdi,%rbx
    5ae8:	48 8d 57 14          	lea    0x14(%rdi),%rdx
    5aec:	48 8d 77 10          	lea    0x10(%rdi),%rsi
    5af0:	48 89 c7             	mov    %rax,%rdi
    5af3:	e8 08 fd ff ff       	callq  5800 <_ZN4util2io3MMFIifE7GetNextERiS3_Rf>
    5af8:	88 43 1c             	mov    %al,0x1c(%rbx)
    5afb:	5b                   	pop    %rbx
    5afc:	c3                   	retq   
    5afd:	0f 1f 00             	nopl   (%rax)

0000000000005b00 <_ZN4util2io3MMFIidE16ParseMmfSizeLineERSt6vectorINSt7__cxx1112basic_stringIcSt11char_traitsIcESaIcEEESaIS9_EE>:
    5b00:	41 55                	push   %r13
    5b02:	41 54                	push   %r12
    5b04:	49 89 f4             	mov    %rsi,%r12
    5b07:	55                   	push   %rbp
    5b08:	48 89 fd             	mov    %rdi,%rbp
    5b0b:	53                   	push   %rbx
    5b0c:	48 83 ec 08          	sub    $0x8,%rsp
    5b10:	8b 87 1c 02 00 00    	mov    0x21c(%rdi),%eax
    5b16:	85 c0                	test   %eax,%eax
    5b18:	74 66                	je     5b80 <_ZN4util2io3MMFIidE16ParseMmfSizeLineERSt6vectorINSt7__cxx1112basic_stringIcSt11char_traitsIcESaIcEEESaIS9_EE+0x80>
    5b1a:	48 8b 16             	mov    (%rsi),%rdx
    5b1d:	48 8b 3a             	mov    (%rdx),%rdi
    5b20:	80 3f 25             	cmpb   $0x25,(%rdi)
    5b23:	74 5b                	je     5b80 <_ZN4util2io3MMFIidE16ParseMmfSizeLineERSt6vectorINSt7__cxx1112basic_stringIcSt11char_traitsIcESaIcEEESaIS9_EE+0x80>
    5b25:	49 8b 44 24 08       	mov    0x8(%r12),%rax
    5b2a:	48 29 d0             	sub    %rdx,%rax
    5b2d:	48 83 f8 5f          	cmp    $0x5f,%rax
    5b31:	0f 87 9e 00 00 00    	ja     5bd5 <_ZN4util2io3MMFIidE16ParseMmfSizeLineERSt6vectorINSt7__cxx1112basic_stringIcSt11char_traitsIcESaIcEEESaIS9_EE+0xd5>
    5b37:	48 83 f8 40          	cmp    $0x40,%rax
    5b3b:	0f 85 f8 00 00 00    	jne    5c39 <_ZN4util2io3MMFIidE16ParseMmfSizeLineERSt6vectorINSt7__cxx1112basic_stringIcSt11char_traitsIcESaIcEEESaIS9_EE+0x139>
    5b41:	ba 0a 00 00 00       	mov    $0xa,%edx
    5b46:	31 f6                	xor    %esi,%esi
    5b48:	e8 63 d3 ff ff       	callq  2eb0 <strtol@plt>
    5b4d:	ba 0a 00 00 00       	mov    $0xa,%edx
    5b52:	31 f6                	xor    %esi,%esi
    5b54:	89 45 00             	mov    %eax,0x0(%rbp)
    5b57:	49 8b 04 24          	mov    (%r12),%rax
    5b5b:	48 8b 78 20          	mov    0x20(%rax),%rdi
    5b5f:	e8 4c d3 ff ff       	callq  2eb0 <strtol@plt>
    5b64:	c7 45 08 00 00 00 00 	movl   $0x0,0x8(%rbp)
    5b6b:	89 45 04             	mov    %eax,0x4(%rbp)
    5b6e:	48 83 c4 08          	add    $0x8,%rsp
    5b72:	5b                   	pop    %rbx
    5b73:	5d                   	pop    %rbp
    5b74:	41 5c                	pop    %r12
    5b76:	41 5d                	pop    %r13
    5b78:	c3                   	retq   
    5b79:	0f 1f 80 00 00 00 00 	nopl   0x0(%rax)
    5b80:	49 bd ff ff ff ff ff 	movabs $0x7fffffffffffffff,%r13
    5b87:	ff ff 7f 
    5b8a:	48 8d 5d 10          	lea    0x10(%rbp),%rbx
    5b8e:	eb 10                	jmp    5ba0 <_ZN4util2io3MMFIidE16ParseMmfSizeLineERSt6vectorINSt7__cxx1112basic_stringIcSt11char_traitsIcESaIcEEESaIS9_EE+0xa0>
    5b90:	ba 0a 00 00 00       	mov    $0xa,%edx
    5b95:	4c 89 ee             	mov    %r13,%rsi
    5b98:	48 89 df             	mov    %rbx,%rdi
    5b9b:	e8 50 d1 ff ff       	callq  2cf0 <_ZNSi6ignoreEli@plt>
    5ba0:	48 89 df             	mov    %rbx,%rdi
    5ba3:	e8 c8 d0 ff ff       	callq  2c70 <_ZNSi4peekEv@plt>
    5ba8:	83 f8 25             	cmp    $0x25,%eax
    5bab:	74 e3                	je     5b90 <_ZN4util2io3MMFIidE16ParseMmfSizeLineERSt6vectorINSt7__cxx1112basic_stringIcSt11char_traitsIcESaIcEEESaIS9_EE+0x90>
    5bad:	4c 89 e6             	mov    %r12,%rsi
    5bb0:	48 89 df             	mov    %rbx,%rdi
    5bb3:	e8 18 e7 ff ff       	callq  42d0 <_ZN4util2io6DoReadERSt14basic_ifstreamIcSt11char_traitsIcEERSt6vectorINSt7__cxx1112basic_stringIcS3_SaIcEEESaISA_EE>
    5bb8:	84 c0                	test   %al,%al
    5bba:	74 60                	je     5c1c <_ZN4util2io3MMFIidE16ParseMmfSizeLineERSt6vectorINSt7__cxx1112basic_stringIcSt11char_traitsIcESaIcEEESaIS9_EE+0x11c>
    5bbc:	49 8b 14 24          	mov    (%r12),%rdx
    5bc0:	49 8b 44 24 08       	mov    0x8(%r12),%rax
    5bc5:	48 29 d0             	sub    %rdx,%rax
    5bc8:	48 8b 3a             	mov    (%rdx),%rdi
    5bcb:	48 83 f8 5f          	cmp    $0x5f,%rax
    5bcf:	0f 86 62 ff ff ff    	jbe    5b37 <_ZN4util2io3MMFIidE16ParseMmfSizeLineERSt6vectorINSt7__cxx1112basic_stringIcSt11char_traitsIcESaIcEEESaIS9_EE+0x37>
    5bd5:	ba 0a 00 00 00       	mov    $0xa,%edx
    5bda:	31 f6                	xor    %esi,%esi
    5bdc:	e8 cf d2 ff ff       	callq  2eb0 <strtol@plt>
    5be1:	ba 0a 00 00 00       	mov    $0xa,%edx
    5be6:	31 f6                	xor    %esi,%esi
    5be8:	89 45 00             	mov    %eax,0x0(%rbp)
    5beb:	49 8b 04 24          	mov    (%r12),%rax
    5bef:	48 8b 78 20          	mov    0x20(%rax),%rdi
    5bf3:	e8 b8 d2 ff ff       	callq  2eb0 <strtol@plt>
    5bf8:	31 f6                	xor    %esi,%esi
    5bfa:	89 45 04             	mov    %eax,0x4(%rbp)
    5bfd:	49 8b 04 24          	mov    (%r12),%rax
    5c01:	48 8b 78 40          	mov    0x40(%rax),%rdi
    5c05:	e8 46 d1 ff ff       	callq  2d50 <strtod@plt>
    5c0a:	c5 fb 2c c0          	vcvttsd2si %xmm0,%eax
    5c0e:	89 45 08             	mov    %eax,0x8(%rbp)
    5c11:	48 83 c4 08          	add    $0x8,%rsp
    5c15:	5b                   	pop    %rbx
    5c16:	5d                   	pop    %rbp
    5c17:	41 5c                	pop    %r12
    5c19:	41 5d                	pop    %r13
    5c1b:	c3                   	retq   
    5c1c:	48 8d 3d fd b3 20 00 	lea    0x20b3fd(%rip),%rdi        # 211020 <_ZSt4cout@@GLIBCXX_3.4>
    5c23:	48 8d 35 65 6c 00 00 	lea    0x6c65(%rip),%rsi        # c88f <_IO_stdin_used+0x1cf>
    5c2a:	e8 a1 d1 ff ff       	callq  2dd0 <_ZStlsISt11char_traitsIcEERSt13basic_ostreamIcT_ES5_PKc@plt>
    5c2f:	bf 01 00 00 00       	mov    $0x1,%edi
    5c34:	e8 27 d2 ff ff       	callq  2e60 <exit@plt>
    5c39:	48 8b 52 08          	mov    0x8(%rdx),%rdx
    5c3d:	48 89 fe             	mov    %rdi,%rsi
    5c40:	48 8d 3d d9 b3 20 00 	lea    0x20b3d9(%rip),%rdi        # 211020 <_ZSt4cout@@GLIBCXX_3.4>
    5c47:	e8 d4 d1 ff ff       	callq  2e20 <_ZSt16__ostream_insertIcSt11char_traitsIcEERSt13basic_ostreamIT_T0_ES6_PKS3_l@plt>
    5c4c:	48 89 c7             	mov    %rax,%rdi
    5c4f:	e8 4c d0 ff ff       	callq  2ca0 <_ZSt4endlIcSt11char_traitsIcEERSt13basic_ostreamIT_T0_ES6_@plt>
    5c54:	48 8d 3d c5 b3 20 00 	lea    0x20b3c5(%rip),%rdi        # 211020 <_ZSt4cout@@GLIBCXX_3.4>
    5c5b:	48 8d 35 4e 6c 00 00 	lea    0x6c4e(%rip),%rsi        # c8b0 <_IO_stdin_used+0x1f0>
    5c62:	e8 69 d1 ff ff       	callq  2dd0 <_ZStlsISt11char_traitsIcEERSt13basic_ostreamIcT_ES5_PKc@plt>
    5c67:	bf 01 00 00 00       	mov    $0x1,%edi
    5c6c:	e8 ef d1 ff ff       	callq  2e60 <exit@plt>
    5c71:	66 2e 0f 1f 84 00 00 	nopw   %cs:0x0(%rax,%rax,1)
    5c78:	00 00 00 
    5c7b:	0f 1f 44 00 00       	nopl   0x0(%rax,%rax,1)

0000000000005c80 <_ZN4util2io3MMFIidE7GetNextERiS3_Rd>:
    5c80:	41 57                	push   %r15
    5c82:	c5 f9 ef c0          	vpxor  %xmm0,%xmm0,%xmm0
    5c86:	41 56                	push   %r14
    5c88:	41 55                	push   %r13
    5c8a:	49 89 f5             	mov    %rsi,%r13
    5c8d:	41 54                	push   %r12
    5c8f:	49 89 d4             	mov    %rdx,%r12
    5c92:	55                   	push   %rbp
    5c93:	48 89 fd             	mov    %rdi,%rbp
    5c96:	48 8d 7f 10          	lea    0x10(%rdi),%rdi
    5c9a:	53                   	push   %rbx
    5c9b:	48 83 ec 38          	sub    $0x38,%rsp
    5c9f:	64 48 8b 04 25 28 00 	mov    %fs:0x28,%rax
    5ca6:	00 00 
    5ca8:	48 89 44 24 28       	mov    %rax,0x28(%rsp)
    5cad:	31 c0                	xor    %eax,%eax
    5caf:	48 8d 74 24 10       	lea    0x10(%rsp),%rsi
    5cb4:	48 89 0c 24          	mov    %rcx,(%rsp)
    5cb8:	c5 f8 29 44 24 10    	vmovaps %xmm0,0x10(%rsp)
    5cbe:	48 c7 44 24 20 00 00 	movq   $0x0,0x20(%rsp)
    5cc5:	00 00 
    5cc7:	48 89 74 24 08       	mov    %rsi,0x8(%rsp)
    5ccc:	e8 ff e5 ff ff       	callq  42d0 <_ZN4util2io6DoReadERSt14basic_ifstreamIcSt11char_traitsIcEERSt6vectorINSt7__cxx1112basic_stringIcS3_SaIcEEESaISA_EE>
    5cd1:	89 c3                	mov    %eax,%ebx
    5cd3:	4c 8b 74 24 10       	mov    0x10(%rsp),%r14
    5cd8:	4c 8b 7c 24 18       	mov    0x18(%rsp),%r15
    5cdd:	84 c0                	test   %al,%al
    5cdf:	74 75                	je     5d56 <_ZN4util2io3MMFIidE7GetNextERiS3_Rd+0xd6>
    5ce1:	4c 89 fa             	mov    %r15,%rdx
    5ce4:	49 8b 3e             	mov    (%r14),%rdi
    5ce7:	4c 29 f2             	sub    %r14,%rdx
    5cea:	48 83 fa 5f          	cmp    $0x5f,%rdx
    5cee:	0f 87 cc 00 00 00    	ja     5dc0 <_ZN4util2io3MMFIidE7GetNextERiS3_Rd+0x140>
    5cf4:	48 83 fa 40          	cmp    $0x40,%rdx
    5cf8:	0f 85 25 01 00 00    	jne    5e23 <_ZN4util2io3MMFIidE7GetNextERiS3_Rd+0x1a3>
    5cfe:	ba 0a 00 00 00       	mov    $0xa,%edx
    5d03:	31 f6                	xor    %esi,%esi
    5d05:	e8 a6 d1 ff ff       	callq  2eb0 <strtol@plt>
    5d0a:	ba 0a 00 00 00       	mov    $0xa,%edx
    5d0f:	31 f6                	xor    %esi,%esi
    5d11:	41 89 45 00          	mov    %eax,0x0(%r13)
    5d15:	48 8b 44 24 10       	mov    0x10(%rsp),%rax
    5d1a:	48 8b 78 20          	mov    0x20(%rax),%rdi
    5d1e:	e8 8d d1 ff ff       	callq  2eb0 <strtol@plt>
    5d23:	48 8b 15 06 6c 00 00 	mov    0x6c06(%rip),%rdx        # c930 <_IO_stdin_used+0x270>
    5d2a:	41 89 04 24          	mov    %eax,(%r12)
    5d2e:	48 8b 04 24          	mov    (%rsp),%rax
    5d32:	48 89 10             	mov    %rdx,(%rax)
    5d35:	0f b6 8d 1a 02 00 00 	movzbl 0x21a(%rbp),%ecx
    5d3c:	4c 8b 7c 24 18       	mov    0x18(%rsp),%r15
    5d41:	4c 8b 74 24 10       	mov    0x10(%rsp),%r14
    5d46:	84 c9                	test   %cl,%cl
    5d48:	74 0c                	je     5d56 <_ZN4util2io3MMFIidE7GetNextERiS3_Rd+0xd6>
    5d4a:	41 83 45 00 01       	addl   $0x1,0x0(%r13)
    5d4f:	89 cb                	mov    %ecx,%ebx
    5d51:	41 83 04 24 01       	addl   $0x1,(%r12)
    5d56:	4d 39 fe             	cmp    %r15,%r14
    5d59:	74 24                	je     5d7f <_ZN4util2io3MMFIidE7GetNextERiS3_Rd+0xff>
    5d5b:	0f 1f 44 00 00       	nopl   0x0(%rax,%rax,1)
    5d60:	49 8b 3e             	mov    (%r14),%rdi
    5d63:	49 8d 4e 10          	lea    0x10(%r14),%rcx
    5d67:	48 39 cf             	cmp    %rcx,%rdi
    5d6a:	74 44                	je     5db0 <_ZN4util2io3MMFIidE7GetNextERiS3_Rd+0x130>
    5d6c:	e8 4f d0 ff ff       	callq  2dc0 <_ZdlPv@plt>
    5d71:	49 83 c6 20          	add    $0x20,%r14
    5d75:	4d 39 fe             	cmp    %r15,%r14
    5d78:	75 e6                	jne    5d60 <_ZN4util2io3MMFIidE7GetNextERiS3_Rd+0xe0>
    5d7a:	4c 8b 7c 24 10       	mov    0x10(%rsp),%r15
    5d7f:	4d 85 ff             	test   %r15,%r15
    5d82:	74 08                	je     5d8c <_ZN4util2io3MMFIidE7GetNextERiS3_Rd+0x10c>
    5d84:	4c 89 ff             	mov    %r15,%rdi
    5d87:	e8 34 d0 ff ff       	callq  2dc0 <_ZdlPv@plt>
    5d8c:	89 d8                	mov    %ebx,%eax
    5d8e:	48 8b 5c 24 28       	mov    0x28(%rsp),%rbx
    5d93:	64 48 33 1c 25 28 00 	xor    %fs:0x28,%rbx
    5d9a:	00 00 
    5d9c:	75 68                	jne    5e06 <_ZN4util2io3MMFIidE7GetNextERiS3_Rd+0x186>
    5d9e:	48 83 c4 38          	add    $0x38,%rsp
    5da2:	5b                   	pop    %rbx
    5da3:	5d                   	pop    %rbp
    5da4:	41 5c                	pop    %r12
    5da6:	41 5d                	pop    %r13
    5da8:	41 5e                	pop    %r14
    5daa:	41 5f                	pop    %r15
    5dac:	c3                   	retq   
    5dad:	0f 1f 00             	nopl   (%rax)
    5db0:	49 83 c6 20          	add    $0x20,%r14
    5db4:	4d 39 fe             	cmp    %r15,%r14
    5db7:	75 a7                	jne    5d60 <_ZN4util2io3MMFIidE7GetNextERiS3_Rd+0xe0>
    5db9:	eb bf                	jmp    5d7a <_ZN4util2io3MMFIidE7GetNextERiS3_Rd+0xfa>
    5dbb:	0f 1f 44 00 00       	nopl   0x0(%rax,%rax,1)
    5dc0:	ba 0a 00 00 00       	mov    $0xa,%edx
    5dc5:	31 f6                	xor    %esi,%esi
    5dc7:	e8 e4 d0 ff ff       	callq  2eb0 <strtol@plt>
    5dcc:	ba 0a 00 00 00       	mov    $0xa,%edx
    5dd1:	31 f6                	xor    %esi,%esi
    5dd3:	41 89 45 00          	mov    %eax,0x0(%r13)
    5dd7:	48 8b 44 24 10       	mov    0x10(%rsp),%rax
    5ddc:	48 8b 78 20          	mov    0x20(%rax),%rdi
    5de0:	e8 cb d0 ff ff       	callq  2eb0 <strtol@plt>
    5de5:	31 f6                	xor    %esi,%esi
    5de7:	41 89 04 24          	mov    %eax,(%r12)
    5deb:	48 8b 44 24 10       	mov    0x10(%rsp),%rax
    5df0:	48 8b 78 40          	mov    0x40(%rax),%rdi
    5df4:	e8 57 cf ff ff       	callq  2d50 <strtod@plt>
    5df9:	48 8b 04 24          	mov    (%rsp),%rax
    5dfd:	c5 fb 11 00          	vmovsd %xmm0,(%rax)
    5e01:	e9 2f ff ff ff       	jmpq   5d35 <_ZN4util2io3MMFIidE7GetNextERiS3_Rd+0xb5>
    5e06:	e8 f5 cf ff ff       	callq  2e00 <__stack_chk_fail@plt>
    5e0b:	48 8b 7c 24 08       	mov    0x8(%rsp),%rdi
    5e10:	48 89 c3             	mov    %rax,%rbx
    5e13:	c5 f8 77             	vzeroupper 
    5e16:	e8 75 f4 ff ff       	callq  5290 <_ZNSt6vectorINSt7__cxx1112basic_stringIcSt11char_traitsIcESaIcEEESaIS5_EED1Ev>
    5e1b:	48 89 df             	mov    %rbx,%rdi
    5e1e:	e8 cd d1 ff ff       	callq  2ff0 <_Unwind_Resume@plt>
    5e23:	49 8b 56 08          	mov    0x8(%r14),%rdx
    5e27:	48 89 fe             	mov    %rdi,%rsi
    5e2a:	48 8d 3d ef b1 20 00 	lea    0x20b1ef(%rip),%rdi        # 211020 <_ZSt4cout@@GLIBCXX_3.4>
    5e31:	e8 ea cf ff ff       	callq  2e20 <_ZSt16__ostream_insertIcSt11char_traitsIcEERSt13basic_ostreamIT_T0_ES6_PKS3_l@plt>
    5e36:	48 89 c7             	mov    %rax,%rdi
    5e39:	e8 62 ce ff ff       	callq  2ca0 <_ZSt4endlIcSt11char_traitsIcEERSt13basic_ostreamIT_T0_ES6_@plt>
    5e3e:	48 8d 35 6b 6a 00 00 	lea    0x6a6b(%rip),%rsi        # c8b0 <_IO_stdin_used+0x1f0>
    5e45:	48 8d 3d d4 b1 20 00 	lea    0x20b1d4(%rip),%rdi        # 211020 <_ZSt4cout@@GLIBCXX_3.4>
    5e4c:	e8 7f cf ff ff       	callq  2dd0 <_ZStlsISt11char_traitsIcEERSt13basic_ostreamIcT_ES5_PKc@plt>
    5e51:	bf 01 00 00 00       	mov    $0x1,%edi
    5e56:	e8 05 d0 ff ff       	callq  2e60 <exit@plt>
    5e5b:	0f 1f 44 00 00       	nopl   0x0(%rax,%rax,1)

0000000000005e60 <_ZN4util2io3MMFIidE8iterator5DoSetEv>:
    5e60:	53                   	push   %rbx
    5e61:	48 8d 4f 18          	lea    0x18(%rdi),%rcx
    5e65:	48 89 fb             	mov    %rdi,%rbx
    5e68:	48 8d 57 14          	lea    0x14(%rdi),%rdx
    5e6c:	48 8d 77 10          	lea    0x10(%rdi),%rsi
    5e70:	48 8b 3f             	mov    (%rdi),%rdi
    5e73:	e8 08 fe ff ff       	callq  5c80 <_ZN4util2io3MMFIidE7GetNextERiS3_Rd>
    5e78:	88 43 20             	mov    %al,0x20(%rbx)
    5e7b:	5b                   	pop    %rbx
    5e7c:	c3                   	retq   
    5e7d:	0f 1f 00             	nopl   (%rax)

0000000000005e80 <_ZN4util2io3MMFIidE8iteratorC1EPS2_m>:
    5e80:	80 be 18 02 00 00 00 	cmpb   $0x0,0x218(%rsi)
    5e87:	48 89 37             	mov    %rsi,(%rdi)
    5e8a:	48 89 57 08          	mov    %rdx,0x8(%rdi)
    5e8e:	75 0e                	jne    5e9e <_ZN4util2io3MMFIidE8iteratorC1EPS2_m+0x1e>
    5e90:	80 be 19 02 00 00 01 	cmpb   $0x1,0x219(%rsi)
    5e97:	74 05                	je     5e9e <_ZN4util2io3MMFIidE8iteratorC1EPS2_m+0x1e>
    5e99:	48 85 d2             	test   %rdx,%rdx
    5e9c:	74 02                	je     5ea0 <_ZN4util2io3MMFIidE8iteratorC1EPS2_m+0x20>
    5e9e:	c3                   	retq   
    5e9f:	90                   	nop
    5ea0:	53                   	push   %rbx
    5ea1:	48 89 f0             	mov    %rsi,%rax
    5ea4:	48 89 fb             	mov    %rdi,%rbx
    5ea7:	48 8d 4f 18          	lea    0x18(%rdi),%rcx
    5eab:	48 8d 57 14          	lea    0x14(%rdi),%rdx
    5eaf:	48 8d 77 10          	lea    0x10(%rdi),%rsi
    5eb3:	48 89 c7             	mov    %rax,%rdi
    5eb6:	e8 c5 fd ff ff       	callq  5c80 <_ZN4util2io3MMFIidE7GetNextERiS3_Rd>
    5ebb:	88 43 20             	mov    %al,0x20(%rbx)
    5ebe:	5b                   	pop    %rbx
    5ebf:	c3                   	retq   

0000000000005ec0 <_ZN4util2io3MMFIidE5beginEv>:
    5ec0:	53                   	push   %rbx
    5ec1:	31 d2                	xor    %edx,%edx
    5ec3:	48 89 fb             	mov    %rdi,%rbx
    5ec6:	e8 b5 ff ff ff       	callq  5e80 <_ZN4util2io3MMFIidE8iteratorC1EPS2_m>
    5ecb:	48 89 d8             	mov    %rbx,%rax
    5ece:	5b                   	pop    %rbx
    5ecf:	c3                   	retq   

0000000000005ed0 <_ZN4util2io3MMFIidE3endEv>:
    5ed0:	80 be 18 02 00 00 00 	cmpb   $0x0,0x218(%rsi)
    5ed7:	53                   	push   %rbx
    5ed8:	48 89 fb             	mov    %rdi,%rbx
    5edb:	75 09                	jne    5ee6 <_ZN4util2io3MMFIidE3endEv+0x16>
    5edd:	80 be 19 02 00 00 00 	cmpb   $0x0,0x219(%rsi)
    5ee4:	74 22                	je     5f08 <_ZN4util2io3MMFIidE3endEv+0x38>
    5ee6:	48 8b 96 28 02 00 00 	mov    0x228(%rsi),%rdx
    5eed:	48 2b 96 20 02 00 00 	sub    0x220(%rsi),%rdx
    5ef4:	48 89 df             	mov    %rbx,%rdi
    5ef7:	48 c1 fa 04          	sar    $0x4,%rdx
    5efb:	e8 80 ff ff ff       	callq  5e80 <_ZN4util2io3MMFIidE8iteratorC1EPS2_m>
    5f00:	48 89 d8             	mov    %rbx,%rax
    5f03:	5b                   	pop    %rbx
    5f04:	c3                   	retq   
    5f05:	0f 1f 00             	nopl   (%rax)
    5f08:	48 63 56 08          	movslq 0x8(%rsi),%rdx
    5f0c:	e8 6f ff ff ff       	callq  5e80 <_ZN4util2io3MMFIidE8iteratorC1EPS2_m>
    5f11:	48 89 d8             	mov    %rbx,%rax
    5f14:	5b                   	pop    %rbx
    5f15:	c3                   	retq   
    5f16:	66 2e 0f 1f 84 00 00 	nopw   %cs:0x0(%rax,%rax,1)
    5f1d:	00 00 00 

0000000000005f20 <_ZN4util2io3MMFIidE8iteratorppEv>:
    5f20:	48 8b 07             	mov    (%rdi),%rax
    5f23:	48 83 47 08 01       	addq   $0x1,0x8(%rdi)
    5f28:	80 b8 18 02 00 00 00 	cmpb   $0x0,0x218(%rax)
    5f2f:	75 09                	jne    5f3a <_ZN4util2io3MMFIidE8iteratorppEv+0x1a>
    5f31:	80 b8 19 02 00 00 00 	cmpb   $0x0,0x219(%rax)
    5f38:	74 06                	je     5f40 <_ZN4util2io3MMFIidE8iteratorppEv+0x20>
    5f3a:	c3                   	retq   
    5f3b:	0f 1f 44 00 00       	nopl   0x0(%rax,%rax,1)
    5f40:	53                   	push   %rbx
    5f41:	48 8d 4f 18          	lea    0x18(%rdi),%rcx
    5f45:	48 89 fb             	mov    %rdi,%rbx
    5f48:	48 8d 57 14          	lea    0x14(%rdi),%rdx
    5f4c:	48 8d 77 10          	lea    0x10(%rdi),%rsi
    5f50:	48 89 c7             	mov    %rax,%rdi
    5f53:	e8 28 fd ff ff       	callq  5c80 <_ZN4util2io3MMFIidE7GetNextERiS3_Rd>
    5f58:	88 43 20             	mov    %al,0x20(%rbx)
    5f5b:	5b                   	pop    %rbx
    5f5c:	c3                   	retq   
    5f5d:	0f 1f 00             	nopl   (%rax)

0000000000005f60 <_ZNSt6vectorIN4util2io4ElemIifEESaIS3_EE17_M_realloc_insertIJRKS3_EEEvN9__gnu_cxx17__normal_iteratorIPS3_S5_EEDpOT_>:
    5f60:	41 57                	push   %r15
    5f62:	41 56                	push   %r14
    5f64:	41 55                	push   %r13
    5f66:	41 54                	push   %r12
    5f68:	49 89 f4             	mov    %rsi,%r12
    5f6b:	48 be ab aa aa aa aa 	movabs $0xaaaaaaaaaaaaaaab,%rsi
    5f72:	aa aa aa 
    5f75:	55                   	push   %rbp
    5f76:	4d 89 e6             	mov    %r12,%r14
    5f79:	48 89 fd             	mov    %rdi,%rbp
    5f7c:	53                   	push   %rbx
    5f7d:	48 83 ec 18          	sub    $0x18,%rsp
    5f81:	48 8b 4f 08          	mov    0x8(%rdi),%rcx
    5f85:	48 8b 1f             	mov    (%rdi),%rbx
    5f88:	48 89 c8             	mov    %rcx,%rax
    5f8b:	49 29 de             	sub    %rbx,%r14
    5f8e:	48 29 d8             	sub    %rbx,%rax
    5f91:	48 c1 f8 02          	sar    $0x2,%rax
    5f95:	48 0f af c6          	imul   %rsi,%rax
    5f99:	48 85 c0             	test   %rax,%rax
    5f9c:	0f 84 be 00 00 00    	je     6060 <_ZNSt6vectorIN4util2io4ElemIifEESaIS3_EE17_M_realloc_insertIJRKS3_EEEvN9__gnu_cxx17__normal_iteratorIPS3_S5_EEDpOT_+0x100>
    5fa2:	48 8d 34 00          	lea    (%rax,%rax,1),%rsi
    5fa6:	49 c7 c7 fc ff ff ff 	mov    $0xfffffffffffffffc,%r15
    5fad:	48 39 f0             	cmp    %rsi,%rax
    5fb0:	0f 86 c2 00 00 00    	jbe    6078 <_ZNSt6vectorIN4util2io4ElemIifEESaIS3_EE17_M_realloc_insertIJRKS3_EEEvN9__gnu_cxx17__normal_iteratorIPS3_S5_EEDpOT_+0x118>
    5fb6:	4c 89 ff             	mov    %r15,%rdi
    5fb9:	48 89 14 24          	mov    %rdx,(%rsp)
    5fbd:	e8 1e ce ff ff       	callq  2de0 <_Znwm@plt>
    5fc2:	48 8b 5d 00          	mov    0x0(%rbp),%rbx
    5fc6:	4d 89 e0             	mov    %r12,%r8
    5fc9:	48 8b 4d 08          	mov    0x8(%rbp),%rcx
    5fcd:	48 8b 14 24          	mov    (%rsp),%rdx
    5fd1:	49 89 c5             	mov    %rax,%r13
    5fd4:	49 01 c7             	add    %rax,%r15
    5fd7:	49 29 d8             	sub    %rbx,%r8
    5fda:	4d 01 ee             	add    %r13,%r14
    5fdd:	74 0d                	je     5fec <_ZNSt6vectorIN4util2io4ElemIifEESaIS3_EE17_M_realloc_insertIJRKS3_EEEvN9__gnu_cxx17__normal_iteratorIPS3_S5_EEDpOT_+0x8c>
    5fdf:	48 8b 02             	mov    (%rdx),%rax
    5fe2:	49 89 06             	mov    %rax,(%r14)
    5fe5:	8b 42 08             	mov    0x8(%rdx),%eax
    5fe8:	41 89 46 08          	mov    %eax,0x8(%r14)
    5fec:	49 39 dc             	cmp    %rbx,%r12
    5fef:	74 20                	je     6011 <_ZNSt6vectorIN4util2io4ElemIifEESaIS3_EE17_M_realloc_insertIJRKS3_EEEvN9__gnu_cxx17__normal_iteratorIPS3_S5_EEDpOT_+0xb1>
    5ff1:	4c 89 c2             	mov    %r8,%rdx
    5ff4:	48 89 de             	mov    %rbx,%rsi
    5ff7:	4c 89 ef             	mov    %r13,%rdi
    5ffa:	48 89 4c 24 08       	mov    %rcx,0x8(%rsp)
    5fff:	4c 89 04 24          	mov    %r8,(%rsp)
    6003:	e8 58 cf ff ff       	callq  2f60 <memmove@plt>
    6008:	48 8b 4c 24 08       	mov    0x8(%rsp),%rcx
    600d:	4c 8b 04 24          	mov    (%rsp),%r8
    6011:	49 89 ce             	mov    %rcx,%r14
    6014:	4f 8d 44 05 0c       	lea    0xc(%r13,%r8,1),%r8
    6019:	4d 29 e6             	sub    %r12,%r14
    601c:	4c 39 e1             	cmp    %r12,%rcx
    601f:	74 11                	je     6032 <_ZNSt6vectorIN4util2io4ElemIifEESaIS3_EE17_M_realloc_insertIJRKS3_EEEvN9__gnu_cxx17__normal_iteratorIPS3_S5_EEDpOT_+0xd2>
    6021:	4c 89 c7             	mov    %r8,%rdi
    6024:	4c 89 f2             	mov    %r14,%rdx
    6027:	4c 89 e6             	mov    %r12,%rsi
    602a:	e8 41 cd ff ff       	callq  2d70 <memcpy@plt>
    602f:	49 89 c0             	mov    %rax,%r8
    6032:	4d 01 c6             	add    %r8,%r14
    6035:	48 85 db             	test   %rbx,%rbx
    6038:	74 08                	je     6042 <_ZNSt6vectorIN4util2io4ElemIifEESaIS3_EE17_M_realloc_insertIJRKS3_EEEvN9__gnu_cxx17__normal_iteratorIPS3_S5_EEDpOT_+0xe2>
    603a:	48 89 df             	mov    %rbx,%rdi
    603d:	e8 7e cd ff ff       	callq  2dc0 <_ZdlPv@plt>
    6042:	4c 89 6d 00          	mov    %r13,0x0(%rbp)
    6046:	4c 89 75 08          	mov    %r14,0x8(%rbp)
    604a:	4c 89 7d 10          	mov    %r15,0x10(%rbp)
    604e:	48 83 c4 18          	add    $0x18,%rsp
    6052:	5b                   	pop    %rbx
    6053:	5d                   	pop    %rbp
    6054:	41 5c                	pop    %r12
    6056:	41 5d                	pop    %r13
    6058:	41 5e                	pop    %r14
    605a:	41 5f                	pop    %r15
    605c:	c3                   	retq   
    605d:	0f 1f 00             	nopl   (%rax)
    6060:	be 01 00 00 00       	mov    $0x1,%esi
    6065:	4c 8d 3c 76          	lea    (%rsi,%rsi,2),%r15
    6069:	49 c1 e7 02          	shl    $0x2,%r15
    606d:	e9 44 ff ff ff       	jmpq   5fb6 <_ZNSt6vectorIN4util2io4ElemIifEESaIS3_EE17_M_realloc_insertIJRKS3_EEEvN9__gnu_cxx17__normal_iteratorIPS3_S5_EEDpOT_+0x56>
    6072:	66 0f 1f 44 00 00    	nopw   0x0(%rax,%rax,1)
    6078:	48 b8 55 55 55 55 55 	movabs $0x1555555555555555,%rax
    607f:	55 55 15 
    6082:	48 39 c6             	cmp    %rax,%rsi
    6085:	0f 87 2b ff ff ff    	ja     5fb6 <_ZNSt6vectorIN4util2io4ElemIifEESaIS3_EE17_M_realloc_insertIJRKS3_EEEvN9__gnu_cxx17__normal_iteratorIPS3_S5_EEDpOT_+0x56>
    608b:	48 85 f6             	test   %rsi,%rsi
    608e:	75 d5                	jne    6065 <_ZNSt6vectorIN4util2io4ElemIifEESaIS3_EE17_M_realloc_insertIJRKS3_EEEvN9__gnu_cxx17__normal_iteratorIPS3_S5_EEDpOT_+0x105>
    6090:	4d 89 f0             	mov    %r14,%r8
    6093:	45 31 ff             	xor    %r15d,%r15d
    6096:	45 31 ed             	xor    %r13d,%r13d
    6099:	e9 3c ff ff ff       	jmpq   5fda <_ZNSt6vectorIN4util2io4ElemIifEESaIS3_EE17_M_realloc_insertIJRKS3_EEEvN9__gnu_cxx17__normal_iteratorIPS3_S5_EEDpOT_+0x7a>
    609e:	66 90                	xchg   %ax,%ax

00000000000060a0 <_ZNSt6vectorIN4util2io4ElemIidEESaIS3_EE17_M_realloc_insertIJRKS3_EEEvN9__gnu_cxx17__normal_iteratorIPS3_S5_EEDpOT_>:
    60a0:	41 57                	push   %r15
    60a2:	41 56                	push   %r14
    60a4:	49 89 f6             	mov    %rsi,%r14
    60a7:	41 55                	push   %r13
    60a9:	41 54                	push   %r12
    60ab:	49 89 f4             	mov    %rsi,%r12
    60ae:	55                   	push   %rbp
    60af:	48 89 fd             	mov    %rdi,%rbp
    60b2:	53                   	push   %rbx
    60b3:	48 83 ec 18          	sub    $0x18,%rsp
    60b7:	48 8b 4f 08          	mov    0x8(%rdi),%rcx
    60bb:	48 8b 1f             	mov    (%rdi),%rbx
    60be:	48 89 c8             	mov    %rcx,%rax
    60c1:	49 29 de             	sub    %rbx,%r14
    60c4:	48 29 d8             	sub    %rbx,%rax
    60c7:	48 c1 f8 04          	sar    $0x4,%rax
    60cb:	0f 84 bf 00 00 00    	je     6190 <_ZNSt6vectorIN4util2io4ElemIidEESaIS3_EE17_M_realloc_insertIJRKS3_EEEvN9__gnu_cxx17__normal_iteratorIPS3_S5_EEDpOT_+0xf0>
    60d1:	48 8d 34 00          	lea    (%rax,%rax,1),%rsi
    60d5:	49 c7 c7 f0 ff ff ff 	mov    $0xfffffffffffffff0,%r15
    60dc:	48 39 f0             	cmp    %rsi,%rax
    60df:	0f 86 c3 00 00 00    	jbe    61a8 <_ZNSt6vectorIN4util2io4ElemIidEESaIS3_EE17_M_realloc_insertIJRKS3_EEEvN9__gnu_cxx17__normal_iteratorIPS3_S5_EEDpOT_+0x108>
    60e5:	4c 89 ff             	mov    %r15,%rdi
    60e8:	48 89 14 24          	mov    %rdx,(%rsp)
    60ec:	e8 ef cc ff ff       	callq  2de0 <_Znwm@plt>
    60f1:	48 8b 5d 00          	mov    0x0(%rbp),%rbx
    60f5:	4d 89 e0             	mov    %r12,%r8
    60f8:	48 8b 4d 08          	mov    0x8(%rbp),%rcx
    60fc:	48 8b 14 24          	mov    (%rsp),%rdx
    6100:	49 89 c5             	mov    %rax,%r13
    6103:	49 01 c7             	add    %rax,%r15
    6106:	49 29 d8             	sub    %rbx,%r8
    6109:	4d 01 ee             	add    %r13,%r14
    610c:	74 09                	je     6117 <_ZNSt6vectorIN4util2io4ElemIidEESaIS3_EE17_M_realloc_insertIJRKS3_EEEvN9__gnu_cxx17__normal_iteratorIPS3_S5_EEDpOT_+0x77>
    610e:	c5 fa 6f 02          	vmovdqu (%rdx),%xmm0
    6112:	c4 c1 78 11 06       	vmovups %xmm0,(%r14)
    6117:	49 39 dc             	cmp    %rbx,%r12
    611a:	74 20                	je     613c <_ZNSt6vectorIN4util2io4ElemIidEESaIS3_EE17_M_realloc_insertIJRKS3_EEEvN9__gnu_cxx17__normal_iteratorIPS3_S5_EEDpOT_+0x9c>
    611c:	4c 89 c2             	mov    %r8,%rdx
    611f:	48 89 de             	mov    %rbx,%rsi
    6122:	4c 89 ef             	mov    %r13,%rdi
    6125:	48 89 4c 24 08       	mov    %rcx,0x8(%rsp)
    612a:	4c 89 04 24          	mov    %r8,(%rsp)
    612e:	e8 2d ce ff ff       	callq  2f60 <memmove@plt>
    6133:	48 8b 4c 24 08       	mov    0x8(%rsp),%rcx
    6138:	4c 8b 04 24          	mov    (%rsp),%r8
    613c:	49 89 ce             	mov    %rcx,%r14
    613f:	4f 8d 44 05 10       	lea    0x10(%r13,%r8,1),%r8
    6144:	4d 29 e6             	sub    %r12,%r14
    6147:	4c 39 e1             	cmp    %r12,%rcx
    614a:	74 11                	je     615d <_ZNSt6vectorIN4util2io4ElemIidEESaIS3_EE17_M_realloc_insertIJRKS3_EEEvN9__gnu_cxx17__normal_iteratorIPS3_S5_EEDpOT_+0xbd>
    614c:	4c 89 c7             	mov    %r8,%rdi
    614f:	4c 89 f2             	mov    %r14,%rdx
    6152:	4c 89 e6             	mov    %r12,%rsi
    6155:	e8 16 cc ff ff       	callq  2d70 <memcpy@plt>
    615a:	49 89 c0             	mov    %rax,%r8
    615d:	4d 01 c6             	add    %r8,%r14
    6160:	48 85 db             	test   %rbx,%rbx
    6163:	74 08                	je     616d <_ZNSt6vectorIN4util2io4ElemIidEESaIS3_EE17_M_realloc_insertIJRKS3_EEEvN9__gnu_cxx17__normal_iteratorIPS3_S5_EEDpOT_+0xcd>
    6165:	48 89 df             	mov    %rbx,%rdi
    6168:	e8 53 cc ff ff       	callq  2dc0 <_ZdlPv@plt>
    616d:	4c 89 6d 00          	mov    %r13,0x0(%rbp)
    6171:	4c 89 75 08          	mov    %r14,0x8(%rbp)
    6175:	4c 89 7d 10          	mov    %r15,0x10(%rbp)
    6179:	48 83 c4 18          	add    $0x18,%rsp
    617d:	5b                   	pop    %rbx
    617e:	5d                   	pop    %rbp
    617f:	41 5c                	pop    %r12
    6181:	41 5d                	pop    %r13
    6183:	41 5e                	pop    %r14
    6185:	41 5f                	pop    %r15
    6187:	c3                   	retq   
    6188:	0f 1f 84 00 00 00 00 	nopl   0x0(%rax,%rax,1)
    618f:	00 
    6190:	be 01 00 00 00       	mov    $0x1,%esi
    6195:	48 c1 e6 04          	shl    $0x4,%rsi
    6199:	49 89 f7             	mov    %rsi,%r15
    619c:	e9 44 ff ff ff       	jmpq   60e5 <_ZNSt6vectorIN4util2io4ElemIidEESaIS3_EE17_M_realloc_insertIJRKS3_EEEvN9__gnu_cxx17__normal_iteratorIPS3_S5_EEDpOT_+0x45>
    61a1:	0f 1f 80 00 00 00 00 	nopl   0x0(%rax)
    61a8:	48 b8 ff ff ff ff ff 	movabs $0xfffffffffffffff,%rax
    61af:	ff ff 0f 
    61b2:	48 39 c6             	cmp    %rax,%rsi
    61b5:	0f 87 2a ff ff ff    	ja     60e5 <_ZNSt6vectorIN4util2io4ElemIidEESaIS3_EE17_M_realloc_insertIJRKS3_EEEvN9__gnu_cxx17__normal_iteratorIPS3_S5_EEDpOT_+0x45>
    61bb:	48 85 f6             	test   %rsi,%rsi
    61be:	75 d5                	jne    6195 <_ZNSt6vectorIN4util2io4ElemIidEESaIS3_EE17_M_realloc_insertIJRKS3_EEEvN9__gnu_cxx17__normal_iteratorIPS3_S5_EEDpOT_+0xf5>
    61c0:	4d 89 f0             	mov    %r14,%r8
    61c3:	45 31 ff             	xor    %r15d,%r15d
    61c6:	45 31 ed             	xor    %r13d,%r13d
    61c9:	e9 3b ff ff ff       	jmpq   6109 <_ZNSt6vectorIN4util2io4ElemIidEESaIS3_EE17_M_realloc_insertIJRKS3_EEEvN9__gnu_cxx17__normal_iteratorIPS3_S5_EEDpOT_+0x69>
    61ce:	66 90                	xchg   %ax,%ax

00000000000061d0 <_ZSt16__insertion_sortIN9__gnu_cxx17__normal_iteratorIPN4util2io4ElemIifEESt6vectorIS5_SaIS5_EEEENS0_5__ops15_Iter_comp_iterINS3_10ElemSorterIifEEEEEvT_SG_T0_>:
    61d0:	48 39 fe             	cmp    %rdi,%rsi
    61d3:	0f 84 df 00 00 00    	je     62b8 <_ZSt16__insertion_sortIN9__gnu_cxx17__normal_iteratorIPN4util2io4ElemIifEESt6vectorIS5_SaIS5_EEEENS0_5__ops15_Iter_comp_iterINS3_10ElemSorterIifEEEEEvT_SG_T0_+0xe8>
    61d9:	41 57                	push   %r15
    61db:	4c 8d 7f 0c          	lea    0xc(%rdi),%r15
    61df:	41 56                	push   %r14
    61e1:	41 55                	push   %r13
    61e3:	41 54                	push   %r12
    61e5:	55                   	push   %rbp
    61e6:	53                   	push   %rbx
    61e7:	48 83 ec 18          	sub    $0x18,%rsp
    61eb:	49 39 f7             	cmp    %rsi,%r15
    61ee:	74 73                	je     6263 <_ZSt16__insertion_sortIN9__gnu_cxx17__normal_iteratorIPN4util2io4ElemIifEESt6vectorIS5_SaIS5_EEEENS0_5__ops15_Iter_comp_iterINS3_10ElemSorterIifEEEEEvT_SG_T0_+0x93>
    61f0:	4c 8d 77 18          	lea    0x18(%rdi),%r14
    61f4:	49 89 fc             	mov    %rdi,%r12
    61f7:	4c 89 fd             	mov    %r15,%rbp
    61fa:	4c 29 f6             	sub    %r14,%rsi
    61fd:	48 83 e6 fc          	and    $0xfffffffffffffffc,%rsi
    6201:	49 01 f6             	add    %rsi,%r14
    6204:	0f 1f 40 00          	nopl   0x0(%rax)
    6208:	8b 5d 00             	mov    0x0(%rbp),%ebx
    620b:	44 8b 6d 04          	mov    0x4(%rbp),%r13d
    620f:	41 3b 1c 24          	cmp    (%r12),%ebx
    6213:	7c 63                	jl     6278 <_ZSt16__insertion_sortIN9__gnu_cxx17__normal_iteratorIPN4util2io4ElemIifEESt6vectorIS5_SaIS5_EEEENS0_5__ops15_Iter_comp_iterINS3_10ElemSorterIifEEEEEvT_SG_T0_+0xa8>
    6215:	7f 07                	jg     621e <_ZSt16__insertion_sortIN9__gnu_cxx17__normal_iteratorIPN4util2io4ElemIifEESt6vectorIS5_SaIS5_EEEENS0_5__ops15_Iter_comp_iterINS3_10ElemSorterIifEEEEEvT_SG_T0_+0x4e>
    6217:	45 39 6c 24 04       	cmp    %r13d,0x4(%r12)
    621c:	7f 5a                	jg     6278 <_ZSt16__insertion_sortIN9__gnu_cxx17__normal_iteratorIPN4util2io4ElemIifEESt6vectorIS5_SaIS5_EEEENS0_5__ops15_Iter_comp_iterINS3_10ElemSorterIifEEEEEvT_SG_T0_+0xa8>
    621e:	c5 fa 10 45 08       	vmovss 0x8(%rbp),%xmm0
    6223:	48 89 e8             	mov    %rbp,%rax
    6226:	eb 20                	jmp    6248 <_ZSt16__insertion_sortIN9__gnu_cxx17__normal_iteratorIPN4util2io4ElemIifEESt6vectorIS5_SaIS5_EEEENS0_5__ops15_Iter_comp_iterINS3_10ElemSorterIifEEEEEvT_SG_T0_+0x78>
    6228:	0f 1f 84 00 00 00 00 	nopl   0x0(%rax,%rax,1)
    622f:	00 
    6230:	44 39 68 f8          	cmp    %r13d,-0x8(%rax)
    6234:	7e 19                	jle    624f <_ZSt16__insertion_sortIN9__gnu_cxx17__normal_iteratorIPN4util2io4ElemIifEESt6vectorIS5_SaIS5_EEEENS0_5__ops15_Iter_comp_iterINS3_10ElemSorterIifEEEEEvT_SG_T0_+0x7f>
    6236:	48 8b 50 f4          	mov    -0xc(%rax),%rdx
    623a:	48 83 e8 0c          	sub    $0xc,%rax
    623e:	48 89 50 0c          	mov    %rdx,0xc(%rax)
    6242:	8b 50 08             	mov    0x8(%rax),%edx
    6245:	89 50 14             	mov    %edx,0x14(%rax)
    6248:	3b 58 f4             	cmp    -0xc(%rax),%ebx
    624b:	7c e9                	jl     6236 <_ZSt16__insertion_sortIN9__gnu_cxx17__normal_iteratorIPN4util2io4ElemIifEESt6vectorIS5_SaIS5_EEEENS0_5__ops15_Iter_comp_iterINS3_10ElemSorterIifEEEEEvT_SG_T0_+0x66>
    624d:	7e e1                	jle    6230 <_ZSt16__insertion_sortIN9__gnu_cxx17__normal_iteratorIPN4util2io4ElemIifEESt6vectorIS5_SaIS5_EEEENS0_5__ops15_Iter_comp_iterINS3_10ElemSorterIifEEEEEvT_SG_T0_+0x60>
    624f:	89 18                	mov    %ebx,(%rax)
    6251:	44 89 68 04          	mov    %r13d,0x4(%rax)
    6255:	c5 fa 11 40 08       	vmovss %xmm0,0x8(%rax)
    625a:	48 83 c5 0c          	add    $0xc,%rbp
    625e:	49 39 ee             	cmp    %rbp,%r14
    6261:	75 a5                	jne    6208 <_ZSt16__insertion_sortIN9__gnu_cxx17__normal_iteratorIPN4util2io4ElemIifEESt6vectorIS5_SaIS5_EEEENS0_5__ops15_Iter_comp_iterINS3_10ElemSorterIifEEEEEvT_SG_T0_+0x38>
    6263:	48 83 c4 18          	add    $0x18,%rsp
    6267:	5b                   	pop    %rbx
    6268:	5d                   	pop    %rbp
    6269:	41 5c                	pop    %r12
    626b:	41 5d                	pop    %r13
    626d:	41 5e                	pop    %r14
    626f:	41 5f                	pop    %r15
    6271:	c3                   	retq   
    6272:	66 0f 1f 44 00 00    	nopw   0x0(%rax,%rax,1)
    6278:	c5 fa 10 45 08       	vmovss 0x8(%rbp),%xmm0
    627d:	49 39 ec             	cmp    %rbp,%r12
    6280:	74 1d                	je     629f <_ZSt16__insertion_sortIN9__gnu_cxx17__normal_iteratorIPN4util2io4ElemIifEESt6vectorIS5_SaIS5_EEEENS0_5__ops15_Iter_comp_iterINS3_10ElemSorterIifEEEEEvT_SG_T0_+0xcf>
    6282:	48 89 ea             	mov    %rbp,%rdx
    6285:	4c 89 ff             	mov    %r15,%rdi
    6288:	4c 89 e6             	mov    %r12,%rsi
    628b:	c5 fa 11 44 24 0c    	vmovss %xmm0,0xc(%rsp)
    6291:	4c 29 e2             	sub    %r12,%rdx
    6294:	e8 c7 cc ff ff       	callq  2f60 <memmove@plt>
    6299:	c5 fa 10 44 24 0c    	vmovss 0xc(%rsp),%xmm0
    629f:	41 89 1c 24          	mov    %ebx,(%r12)
    62a3:	45 89 6c 24 04       	mov    %r13d,0x4(%r12)
    62a8:	c4 c1 7a 11 44 24 08 	vmovss %xmm0,0x8(%r12)
    62af:	eb a9                	jmp    625a <_ZSt16__insertion_sortIN9__gnu_cxx17__normal_iteratorIPN4util2io4ElemIifEESt6vectorIS5_SaIS5_EEEENS0_5__ops15_Iter_comp_iterINS3_10ElemSorterIifEEEEEvT_SG_T0_+0x8a>
    62b1:	0f 1f 80 00 00 00 00 	nopl   0x0(%rax)
    62b8:	c3                   	retq   
    62b9:	0f 1f 80 00 00 00 00 	nopl   0x0(%rax)

00000000000062c0 <_ZSt16__insertion_sortIN9__gnu_cxx17__normal_iteratorIPN4util2io4ElemIidEESt6vectorIS5_SaIS5_EEEENS0_5__ops15_Iter_comp_iterINS3_10ElemSorterIidEEEEEvT_SG_T0_>:
    62c0:	48 39 fe             	cmp    %rdi,%rsi
    62c3:	0f 84 c7 00 00 00    	je     6390 <_ZSt16__insertion_sortIN9__gnu_cxx17__normal_iteratorIPN4util2io4ElemIidEESt6vectorIS5_SaIS5_EEEENS0_5__ops15_Iter_comp_iterINS3_10ElemSorterIidEEEEEvT_SG_T0_+0xd0>
    62c9:	41 57                	push   %r15
    62cb:	4c 8d 7f 10          	lea    0x10(%rdi),%r15
    62cf:	41 56                	push   %r14
    62d1:	41 55                	push   %r13
    62d3:	41 54                	push   %r12
    62d5:	55                   	push   %rbp
    62d6:	53                   	push   %rbx
    62d7:	48 83 ec 18          	sub    $0x18,%rsp
    62db:	49 39 f7             	cmp    %rsi,%r15
    62de:	74 5f                	je     633f <_ZSt16__insertion_sortIN9__gnu_cxx17__normal_iteratorIPN4util2io4ElemIidEESt6vectorIS5_SaIS5_EEEENS0_5__ops15_Iter_comp_iterINS3_10ElemSorterIidEEEEEvT_SG_T0_+0x7f>
    62e0:	49 89 fc             	mov    %rdi,%r12
    62e3:	4c 89 fd             	mov    %r15,%rbp
    62e6:	49 89 f6             	mov    %rsi,%r14
    62e9:	0f 1f 80 00 00 00 00 	nopl   0x0(%rax)
    62f0:	8b 5d 00             	mov    0x0(%rbp),%ebx
    62f3:	44 8b 6d 04          	mov    0x4(%rbp),%r13d
    62f7:	41 3b 1c 24          	cmp    (%r12),%ebx
    62fb:	7c 53                	jl     6350 <_ZSt16__insertion_sortIN9__gnu_cxx17__normal_iteratorIPN4util2io4ElemIidEESt6vectorIS5_SaIS5_EEEENS0_5__ops15_Iter_comp_iterINS3_10ElemSorterIidEEEEEvT_SG_T0_+0x90>
    62fd:	7f 07                	jg     6306 <_ZSt16__insertion_sortIN9__gnu_cxx17__normal_iteratorIPN4util2io4ElemIidEESt6vectorIS5_SaIS5_EEEENS0_5__ops15_Iter_comp_iterINS3_10ElemSorterIidEEEEEvT_SG_T0_+0x46>
    62ff:	45 39 6c 24 04       	cmp    %r13d,0x4(%r12)
    6304:	7f 4a                	jg     6350 <_ZSt16__insertion_sortIN9__gnu_cxx17__normal_iteratorIPN4util2io4ElemIidEESt6vectorIS5_SaIS5_EEEENS0_5__ops15_Iter_comp_iterINS3_10ElemSorterIidEEEEEvT_SG_T0_+0x90>
    6306:	c5 fb 10 4d 08       	vmovsd 0x8(%rbp),%xmm1
    630b:	48 89 e8             	mov    %rbp,%rax
    630e:	eb 14                	jmp    6324 <_ZSt16__insertion_sortIN9__gnu_cxx17__normal_iteratorIPN4util2io4ElemIidEESt6vectorIS5_SaIS5_EEEENS0_5__ops15_Iter_comp_iterINS3_10ElemSorterIidEEEEEvT_SG_T0_+0x64>
    6310:	44 39 68 f4          	cmp    %r13d,-0xc(%rax)
    6314:	7e 15                	jle    632b <_ZSt16__insertion_sortIN9__gnu_cxx17__normal_iteratorIPN4util2io4ElemIidEESt6vectorIS5_SaIS5_EEEENS0_5__ops15_Iter_comp_iterINS3_10ElemSorterIidEEEEEvT_SG_T0_+0x6b>
    6316:	c5 fa 6f 40 f0       	vmovdqu -0x10(%rax),%xmm0
    631b:	48 83 e8 10          	sub    $0x10,%rax
    631f:	c5 f8 11 40 10       	vmovups %xmm0,0x10(%rax)
    6324:	3b 58 f0             	cmp    -0x10(%rax),%ebx
    6327:	7c ed                	jl     6316 <_ZSt16__insertion_sortIN9__gnu_cxx17__normal_iteratorIPN4util2io4ElemIidEESt6vectorIS5_SaIS5_EEEENS0_5__ops15_Iter_comp_iterINS3_10ElemSorterIidEEEEEvT_SG_T0_+0x56>
    6329:	7e e5                	jle    6310 <_ZSt16__insertion_sortIN9__gnu_cxx17__normal_iteratorIPN4util2io4ElemIidEESt6vectorIS5_SaIS5_EEEENS0_5__ops15_Iter_comp_iterINS3_10ElemSorterIidEEEEEvT_SG_T0_+0x50>
    632b:	89 18                	mov    %ebx,(%rax)
    632d:	44 89 68 04          	mov    %r13d,0x4(%rax)
    6331:	c5 fb 11 48 08       	vmovsd %xmm1,0x8(%rax)
    6336:	48 83 c5 10          	add    $0x10,%rbp
    633a:	49 39 ee             	cmp    %rbp,%r14
    633d:	75 b1                	jne    62f0 <_ZSt16__insertion_sortIN9__gnu_cxx17__normal_iteratorIPN4util2io4ElemIidEESt6vectorIS5_SaIS5_EEEENS0_5__ops15_Iter_comp_iterINS3_10ElemSorterIidEEEEEvT_SG_T0_+0x30>
    633f:	48 83 c4 18          	add    $0x18,%rsp
    6343:	5b                   	pop    %rbx
    6344:	5d                   	pop    %rbp
    6345:	41 5c                	pop    %r12
    6347:	41 5d                	pop    %r13
    6349:	41 5e                	pop    %r14
    634b:	41 5f                	pop    %r15
    634d:	c3                   	retq   
    634e:	66 90                	xchg   %ax,%ax
    6350:	c5 fb 10 45 08       	vmovsd 0x8(%rbp),%xmm0
    6355:	49 39 ec             	cmp    %rbp,%r12
    6358:	74 1d                	je     6377 <_ZSt16__insertion_sortIN9__gnu_cxx17__normal_iteratorIPN4util2io4ElemIidEESt6vectorIS5_SaIS5_EEEENS0_5__ops15_Iter_comp_iterINS3_10ElemSorterIidEEEEEvT_SG_T0_+0xb7>
    635a:	48 89 ea             	mov    %rbp,%rdx
    635d:	4c 89 ff             	mov    %r15,%rdi
    6360:	4c 89 e6             	mov    %r12,%rsi
    6363:	c5 fb 11 44 24 08    	vmovsd %xmm0,0x8(%rsp)
    6369:	4c 29 e2             	sub    %r12,%rdx
    636c:	e8 ef cb ff ff       	callq  2f60 <memmove@plt>
    6371:	c5 fb 10 44 24 08    	vmovsd 0x8(%rsp),%xmm0
    6377:	41 89 1c 24          	mov    %ebx,(%r12)
    637b:	45 89 6c 24 04       	mov    %r13d,0x4(%r12)
    6380:	c4 c1 7b 11 44 24 08 	vmovsd %xmm0,0x8(%r12)
    6387:	eb ad                	jmp    6336 <_ZSt16__insertion_sortIN9__gnu_cxx17__normal_iteratorIPN4util2io4ElemIidEESt6vectorIS5_SaIS5_EEEENS0_5__ops15_Iter_comp_iterINS3_10ElemSorterIidEEEEEvT_SG_T0_+0x76>
    6389:	0f 1f 80 00 00 00 00 	nopl   0x0(%rax)
    6390:	c3                   	retq   
    6391:	66 2e 0f 1f 84 00 00 	nopw   %cs:0x0(%rax,%rax,1)
    6398:	00 00 00 
    639b:	0f 1f 44 00 00       	nopl   0x0(%rax,%rax,1)

00000000000063a0 <_ZSt22__move_median_to_firstIN9__gnu_cxx17__normal_iteratorIPN4util2io4ElemIifEESt6vectorIS5_SaIS5_EEEENS0_5__ops15_Iter_comp_iterINS3_10ElemSorterIifEEEEEvT_SG_SG_SG_T0_>:
    63a0:	44 8b 06             	mov    (%rsi),%r8d
    63a3:	8b 02                	mov    (%rdx),%eax
    63a5:	44 39 c0             	cmp    %r8d,%eax
    63a8:	7f 50                	jg     63fa <_ZSt22__move_median_to_firstIN9__gnu_cxx17__normal_iteratorIPN4util2io4ElemIifEESt6vectorIS5_SaIS5_EEEENS0_5__ops15_Iter_comp_iterINS3_10ElemSorterIifEEEEEvT_SG_SG_SG_T0_+0x5a>
    63aa:	7d 44                	jge    63f0 <_ZSt22__move_median_to_firstIN9__gnu_cxx17__normal_iteratorIPN4util2io4ElemIifEESt6vectorIS5_SaIS5_EEEENS0_5__ops15_Iter_comp_iterINS3_10ElemSorterIifEEEEEvT_SG_SG_SG_T0_+0x50>
    63ac:	44 8b 09             	mov    (%rcx),%r9d
    63af:	45 39 c8             	cmp    %r9d,%r8d
    63b2:	0f 8c 8e 00 00 00    	jl     6446 <_ZSt22__move_median_to_firstIN9__gnu_cxx17__normal_iteratorIPN4util2io4ElemIifEESt6vectorIS5_SaIS5_EEEENS0_5__ops15_Iter_comp_iterINS3_10ElemSorterIifEEEEEvT_SG_SG_SG_T0_+0xa6>
    63b8:	7e 7e                	jle    6438 <_ZSt22__move_median_to_firstIN9__gnu_cxx17__normal_iteratorIPN4util2io4ElemIifEESt6vectorIS5_SaIS5_EEEENS0_5__ops15_Iter_comp_iterINS3_10ElemSorterIifEEEEEvT_SG_SG_SG_T0_+0x98>
    63ba:	44 39 c8             	cmp    %r9d,%eax
    63bd:	7c 54                	jl     6413 <_ZSt22__move_median_to_firstIN9__gnu_cxx17__normal_iteratorIPN4util2io4ElemIifEESt6vectorIS5_SaIS5_EEEENS0_5__ops15_Iter_comp_iterINS3_10ElemSorterIifEEEEEvT_SG_SG_SG_T0_+0x73>
    63bf:	0f 8e bb 00 00 00    	jle    6480 <_ZSt22__move_median_to_firstIN9__gnu_cxx17__normal_iteratorIPN4util2io4ElemIifEESt6vectorIS5_SaIS5_EEEENS0_5__ops15_Iter_comp_iterINS3_10ElemSorterIifEEEEEvT_SG_SG_SG_T0_+0xe0>
    63c5:	48 8b 32             	mov    (%rdx),%rsi
    63c8:	8b 0f                	mov    (%rdi),%ecx
    63ca:	8b 47 04             	mov    0x4(%rdi),%eax
    63cd:	c5 fa 10 47 08       	vmovss 0x8(%rdi),%xmm0
    63d2:	48 89 37             	mov    %rsi,(%rdi)
    63d5:	8b 72 08             	mov    0x8(%rdx),%esi
    63d8:	89 77 08             	mov    %esi,0x8(%rdi)
    63db:	89 0a                	mov    %ecx,(%rdx)
    63dd:	89 42 04             	mov    %eax,0x4(%rdx)
    63e0:	c5 fa 11 42 08       	vmovss %xmm0,0x8(%rdx)
    63e5:	c3                   	retq   
    63e6:	66 2e 0f 1f 84 00 00 	nopw   %cs:0x0(%rax,%rax,1)
    63ed:	00 00 00 
    63f0:	44 8b 52 04          	mov    0x4(%rdx),%r10d
    63f4:	44 39 56 04          	cmp    %r10d,0x4(%rsi)
    63f8:	7d b2                	jge    63ac <_ZSt22__move_median_to_firstIN9__gnu_cxx17__normal_iteratorIPN4util2io4ElemIifEESt6vectorIS5_SaIS5_EEEENS0_5__ops15_Iter_comp_iterINS3_10ElemSorterIifEEEEEvT_SG_SG_SG_T0_+0xc>
    63fa:	44 8b 09             	mov    (%rcx),%r9d
    63fd:	44 39 c8             	cmp    %r9d,%eax
    6400:	7c c3                	jl     63c5 <_ZSt22__move_median_to_firstIN9__gnu_cxx17__normal_iteratorIPN4util2io4ElemIifEESt6vectorIS5_SaIS5_EEEENS0_5__ops15_Iter_comp_iterINS3_10ElemSorterIifEEEEEvT_SG_SG_SG_T0_+0x25>
    6402:	7e 6c                	jle    6470 <_ZSt22__move_median_to_firstIN9__gnu_cxx17__normal_iteratorIPN4util2io4ElemIifEESt6vectorIS5_SaIS5_EEEENS0_5__ops15_Iter_comp_iterINS3_10ElemSorterIifEEEEEvT_SG_SG_SG_T0_+0xd0>
    6404:	45 39 c8             	cmp    %r9d,%r8d
    6407:	7c 0a                	jl     6413 <_ZSt22__move_median_to_firstIN9__gnu_cxx17__normal_iteratorIPN4util2io4ElemIifEESt6vectorIS5_SaIS5_EEEENS0_5__ops15_Iter_comp_iterINS3_10ElemSorterIifEEEEEvT_SG_SG_SG_T0_+0x73>
    6409:	7f 3b                	jg     6446 <_ZSt22__move_median_to_firstIN9__gnu_cxx17__normal_iteratorIPN4util2io4ElemIifEESt6vectorIS5_SaIS5_EEEENS0_5__ops15_Iter_comp_iterINS3_10ElemSorterIifEEEEEvT_SG_SG_SG_T0_+0xa6>
    640b:	8b 41 04             	mov    0x4(%rcx),%eax
    640e:	39 46 04             	cmp    %eax,0x4(%rsi)
    6411:	7d 33                	jge    6446 <_ZSt22__move_median_to_firstIN9__gnu_cxx17__normal_iteratorIPN4util2io4ElemIifEESt6vectorIS5_SaIS5_EEEENS0_5__ops15_Iter_comp_iterINS3_10ElemSorterIifEEEEEvT_SG_SG_SG_T0_+0xa6>
    6413:	48 8b 31             	mov    (%rcx),%rsi
    6416:	8b 17                	mov    (%rdi),%edx
    6418:	8b 47 04             	mov    0x4(%rdi),%eax
    641b:	c5 fa 10 47 08       	vmovss 0x8(%rdi),%xmm0
    6420:	48 89 37             	mov    %rsi,(%rdi)
    6423:	8b 71 08             	mov    0x8(%rcx),%esi
    6426:	89 77 08             	mov    %esi,0x8(%rdi)
    6429:	89 11                	mov    %edx,(%rcx)
    642b:	89 41 04             	mov    %eax,0x4(%rcx)
    642e:	c5 fa 11 41 08       	vmovss %xmm0,0x8(%rcx)
    6433:	c3                   	retq   
    6434:	0f 1f 40 00          	nopl   0x0(%rax)
    6438:	44 8b 59 04          	mov    0x4(%rcx),%r11d
    643c:	44 39 5e 04          	cmp    %r11d,0x4(%rsi)
    6440:	0f 8d 74 ff ff ff    	jge    63ba <_ZSt22__move_median_to_firstIN9__gnu_cxx17__normal_iteratorIPN4util2io4ElemIifEESt6vectorIS5_SaIS5_EEEENS0_5__ops15_Iter_comp_iterINS3_10ElemSorterIifEEEEEvT_SG_SG_SG_T0_+0x1a>
    6446:	48 8b 0e             	mov    (%rsi),%rcx
    6449:	8b 17                	mov    (%rdi),%edx
    644b:	8b 47 04             	mov    0x4(%rdi),%eax
    644e:	c5 fa 10 47 08       	vmovss 0x8(%rdi),%xmm0
    6453:	48 89 0f             	mov    %rcx,(%rdi)
    6456:	8b 4e 08             	mov    0x8(%rsi),%ecx
    6459:	89 4f 08             	mov    %ecx,0x8(%rdi)
    645c:	89 16                	mov    %edx,(%rsi)
    645e:	89 46 04             	mov    %eax,0x4(%rsi)
    6461:	c5 fa 11 46 08       	vmovss %xmm0,0x8(%rsi)
    6466:	c3                   	retq   
    6467:	66 0f 1f 84 00 00 00 	nopw   0x0(%rax,%rax,1)
    646e:	00 00 
    6470:	8b 41 04             	mov    0x4(%rcx),%eax
    6473:	39 42 04             	cmp    %eax,0x4(%rdx)
    6476:	7d 8c                	jge    6404 <_ZSt22__move_median_to_firstIN9__gnu_cxx17__normal_iteratorIPN4util2io4ElemIifEESt6vectorIS5_SaIS5_EEEENS0_5__ops15_Iter_comp_iterINS3_10ElemSorterIifEEEEEvT_SG_SG_SG_T0_+0x64>
    6478:	e9 48 ff ff ff       	jmpq   63c5 <_ZSt22__move_median_to_firstIN9__gnu_cxx17__normal_iteratorIPN4util2io4ElemIifEESt6vectorIS5_SaIS5_EEEENS0_5__ops15_Iter_comp_iterINS3_10ElemSorterIifEEEEEvT_SG_SG_SG_T0_+0x25>
    647d:	0f 1f 00             	nopl   (%rax)
    6480:	8b 41 04             	mov    0x4(%rcx),%eax
    6483:	39 42 04             	cmp    %eax,0x4(%rdx)
    6486:	0f 8d 39 ff ff ff    	jge    63c5 <_ZSt22__move_median_to_firstIN9__gnu_cxx17__normal_iteratorIPN4util2io4ElemIifEESt6vectorIS5_SaIS5_EEEENS0_5__ops15_Iter_comp_iterINS3_10ElemSorterIifEEEEEvT_SG_SG_SG_T0_+0x25>
    648c:	eb 85                	jmp    6413 <_ZSt22__move_median_to_firstIN9__gnu_cxx17__normal_iteratorIPN4util2io4ElemIifEESt6vectorIS5_SaIS5_EEEENS0_5__ops15_Iter_comp_iterINS3_10ElemSorterIifEEEEEvT_SG_SG_SG_T0_+0x73>
    648e:	66 90                	xchg   %ax,%ax

0000000000006490 <_ZSt22__move_median_to_firstIN9__gnu_cxx17__normal_iteratorIPN4util2io4ElemIidEESt6vectorIS5_SaIS5_EEEENS0_5__ops15_Iter_comp_iterINS3_10ElemSorterIidEEEEEvT_SG_SG_SG_T0_>:
    6490:	44 8b 06             	mov    (%rsi),%r8d
    6493:	8b 02                	mov    (%rdx),%eax
    6495:	44 39 c0             	cmp    %r8d,%eax
    6498:	7f 40                	jg     64da <_ZSt22__move_median_to_firstIN9__gnu_cxx17__normal_iteratorIPN4util2io4ElemIidEESt6vectorIS5_SaIS5_EEEENS0_5__ops15_Iter_comp_iterINS3_10ElemSorterIidEEEEEvT_SG_SG_SG_T0_+0x4a>
    649a:	7d 34                	jge    64d0 <_ZSt22__move_median_to_firstIN9__gnu_cxx17__normal_iteratorIPN4util2io4ElemIidEESt6vectorIS5_SaIS5_EEEENS0_5__ops15_Iter_comp_iterINS3_10ElemSorterIidEEEEEvT_SG_SG_SG_T0_+0x40>
    649c:	44 8b 09             	mov    (%rcx),%r9d
    649f:	45 39 c8             	cmp    %r9d,%r8d
    64a2:	7c 76                	jl     651a <_ZSt22__move_median_to_firstIN9__gnu_cxx17__normal_iteratorIPN4util2io4ElemIidEESt6vectorIS5_SaIS5_EEEENS0_5__ops15_Iter_comp_iterINS3_10ElemSorterIidEEEEEvT_SG_SG_SG_T0_+0x8a>
    64a4:	7e 6a                	jle    6510 <_ZSt22__move_median_to_firstIN9__gnu_cxx17__normal_iteratorIPN4util2io4ElemIidEESt6vectorIS5_SaIS5_EEEENS0_5__ops15_Iter_comp_iterINS3_10ElemSorterIidEEEEEvT_SG_SG_SG_T0_+0x80>
    64a6:	44 39 c8             	cmp    %r9d,%eax
    64a9:	7c 48                	jl     64f3 <_ZSt22__move_median_to_firstIN9__gnu_cxx17__normal_iteratorIPN4util2io4ElemIidEESt6vectorIS5_SaIS5_EEEENS0_5__ops15_Iter_comp_iterINS3_10ElemSorterIidEEEEEvT_SG_SG_SG_T0_+0x63>
    64ab:	0f 8e 9f 00 00 00    	jle    6550 <_ZSt22__move_median_to_firstIN9__gnu_cxx17__normal_iteratorIPN4util2io4ElemIidEESt6vectorIS5_SaIS5_EEEENS0_5__ops15_Iter_comp_iterINS3_10ElemSorterIidEEEEEvT_SG_SG_SG_T0_+0xc0>
    64b1:	8b 0f                	mov    (%rdi),%ecx
    64b3:	8b 47 04             	mov    0x4(%rdi),%eax
    64b6:	c5 fb 10 47 08       	vmovsd 0x8(%rdi),%xmm0
    64bb:	c5 fa 6f 0a          	vmovdqu (%rdx),%xmm1
    64bf:	c5 f8 11 0f          	vmovups %xmm1,(%rdi)
    64c3:	89 0a                	mov    %ecx,(%rdx)
    64c5:	89 42 04             	mov    %eax,0x4(%rdx)
    64c8:	c5 fb 11 42 08       	vmovsd %xmm0,0x8(%rdx)
    64cd:	c3                   	retq   
    64ce:	66 90                	xchg   %ax,%ax
    64d0:	44 8b 52 04          	mov    0x4(%rdx),%r10d
    64d4:	44 39 56 04          	cmp    %r10d,0x4(%rsi)
    64d8:	7d c2                	jge    649c <_ZSt22__move_median_to_firstIN9__gnu_cxx17__normal_iteratorIPN4util2io4ElemIidEESt6vectorIS5_SaIS5_EEEENS0_5__ops15_Iter_comp_iterINS3_10ElemSorterIidEEEEEvT_SG_SG_SG_T0_+0xc>
    64da:	44 8b 09             	mov    (%rcx),%r9d
    64dd:	44 39 c8             	cmp    %r9d,%eax
    64e0:	7c cf                	jl     64b1 <_ZSt22__move_median_to_firstIN9__gnu_cxx17__normal_iteratorIPN4util2io4ElemIidEESt6vectorIS5_SaIS5_EEEENS0_5__ops15_Iter_comp_iterINS3_10ElemSorterIidEEEEEvT_SG_SG_SG_T0_+0x21>
    64e2:	7e 5c                	jle    6540 <_ZSt22__move_median_to_firstIN9__gnu_cxx17__normal_iteratorIPN4util2io4ElemIidEESt6vectorIS5_SaIS5_EEEENS0_5__ops15_Iter_comp_iterINS3_10ElemSorterIidEEEEEvT_SG_SG_SG_T0_+0xb0>
    64e4:	45 39 c8             	cmp    %r9d,%r8d
    64e7:	7c 0a                	jl     64f3 <_ZSt22__move_median_to_firstIN9__gnu_cxx17__normal_iteratorIPN4util2io4ElemIidEESt6vectorIS5_SaIS5_EEEENS0_5__ops15_Iter_comp_iterINS3_10ElemSorterIidEEEEEvT_SG_SG_SG_T0_+0x63>
    64e9:	7f 2f                	jg     651a <_ZSt22__move_median_to_firstIN9__gnu_cxx17__normal_iteratorIPN4util2io4ElemIidEESt6vectorIS5_SaIS5_EEEENS0_5__ops15_Iter_comp_iterINS3_10ElemSorterIidEEEEEvT_SG_SG_SG_T0_+0x8a>
    64eb:	8b 41 04             	mov    0x4(%rcx),%eax
    64ee:	39 46 04             	cmp    %eax,0x4(%rsi)
    64f1:	7d 27                	jge    651a <_ZSt22__move_median_to_firstIN9__gnu_cxx17__normal_iteratorIPN4util2io4ElemIidEESt6vectorIS5_SaIS5_EEEENS0_5__ops15_Iter_comp_iterINS3_10ElemSorterIidEEEEEvT_SG_SG_SG_T0_+0x8a>
    64f3:	8b 17                	mov    (%rdi),%edx
    64f5:	8b 47 04             	mov    0x4(%rdi),%eax
    64f8:	c5 fb 10 47 08       	vmovsd 0x8(%rdi),%xmm0
    64fd:	c5 fa 6f 09          	vmovdqu (%rcx),%xmm1
    6501:	c5 f8 11 0f          	vmovups %xmm1,(%rdi)
    6505:	89 11                	mov    %edx,(%rcx)
    6507:	89 41 04             	mov    %eax,0x4(%rcx)
    650a:	c5 fb 11 41 08       	vmovsd %xmm0,0x8(%rcx)
    650f:	c3                   	retq   
    6510:	44 8b 59 04          	mov    0x4(%rcx),%r11d
    6514:	44 39 5e 04          	cmp    %r11d,0x4(%rsi)
    6518:	7d 8c                	jge    64a6 <_ZSt22__move_median_to_firstIN9__gnu_cxx17__normal_iteratorIPN4util2io4ElemIidEESt6vectorIS5_SaIS5_EEEENS0_5__ops15_Iter_comp_iterINS3_10ElemSorterIidEEEEEvT_SG_SG_SG_T0_+0x16>
    651a:	8b 17                	mov    (%rdi),%edx
    651c:	8b 47 04             	mov    0x4(%rdi),%eax
    651f:	c5 fb 10 47 08       	vmovsd 0x8(%rdi),%xmm0
    6524:	c5 fa 6f 0e          	vmovdqu (%rsi),%xmm1
    6528:	c5 f8 11 0f          	vmovups %xmm1,(%rdi)
    652c:	89 16                	mov    %edx,(%rsi)
    652e:	89 46 04             	mov    %eax,0x4(%rsi)
    6531:	c5 fb 11 46 08       	vmovsd %xmm0,0x8(%rsi)
    6536:	c3                   	retq   
    6537:	66 0f 1f 84 00 00 00 	nopw   0x0(%rax,%rax,1)
    653e:	00 00 
    6540:	8b 41 04             	mov    0x4(%rcx),%eax
    6543:	39 42 04             	cmp    %eax,0x4(%rdx)
    6546:	7d 9c                	jge    64e4 <_ZSt22__move_median_to_firstIN9__gnu_cxx17__normal_iteratorIPN4util2io4ElemIidEESt6vectorIS5_SaIS5_EEEENS0_5__ops15_Iter_comp_iterINS3_10ElemSorterIidEEEEEvT_SG_SG_SG_T0_+0x54>
    6548:	e9 64 ff ff ff       	jmpq   64b1 <_ZSt22__move_median_to_firstIN9__gnu_cxx17__normal_iteratorIPN4util2io4ElemIidEESt6vectorIS5_SaIS5_EEEENS0_5__ops15_Iter_comp_iterINS3_10ElemSorterIidEEEEEvT_SG_SG_SG_T0_+0x21>
    654d:	0f 1f 00             	nopl   (%rax)
    6550:	8b 41 04             	mov    0x4(%rcx),%eax
    6553:	39 42 04             	cmp    %eax,0x4(%rdx)
    6556:	0f 8d 55 ff ff ff    	jge    64b1 <_ZSt22__move_median_to_firstIN9__gnu_cxx17__normal_iteratorIPN4util2io4ElemIidEESt6vectorIS5_SaIS5_EEEENS0_5__ops15_Iter_comp_iterINS3_10ElemSorterIidEEEEEvT_SG_SG_SG_T0_+0x21>
    655c:	eb 95                	jmp    64f3 <_ZSt22__move_median_to_firstIN9__gnu_cxx17__normal_iteratorIPN4util2io4ElemIidEESt6vectorIS5_SaIS5_EEEENS0_5__ops15_Iter_comp_iterINS3_10ElemSorterIidEEEEEvT_SG_SG_SG_T0_+0x63>
    655e:	66 90                	xchg   %ax,%ax

0000000000006560 <_ZSt13__adjust_heapIN9__gnu_cxx17__normal_iteratorIPN4util2io4ElemIifEESt6vectorIS5_SaIS5_EEEElS5_NS0_5__ops15_Iter_comp_iterINS3_10ElemSorterIifEEEEEvT_T0_SH_T1_T2_>:
    6560:	48 8d 42 ff          	lea    -0x1(%rdx),%rax
    6564:	53                   	push   %rbx
    6565:	49 89 c3             	mov    %rax,%r11
    6568:	49 c1 eb 3f          	shr    $0x3f,%r11
    656c:	49 01 c3             	add    %rax,%r11
    656f:	48 89 4c 24 f0       	mov    %rcx,-0x10(%rsp)
    6574:	49 d1 fb             	sar    %r11
    6577:	c5 fa 11 44 24 f8    	vmovss %xmm0,-0x8(%rsp)
    657d:	4c 39 de             	cmp    %r11,%rsi
    6580:	7d 6e                	jge    65f0 <_ZSt13__adjust_heapIN9__gnu_cxx17__normal_iteratorIPN4util2io4ElemIifEESt6vectorIS5_SaIS5_EEEElS5_NS0_5__ops15_Iter_comp_iterINS3_10ElemSorterIifEEEEEvT_T0_SH_T1_T2_+0x90>
    6582:	49 89 f0             	mov    %rsi,%r8
